
proba_senzor.elf:     file format elf32-littlearm

Sections:
Idx Name          Size      VMA       LMA       File off  Algn
  0 .isr_vector   000000c0  08000000  08000000  00001000  2**0
                  CONTENTS, ALLOC, LOAD, READONLY, DATA
  1 .text         000071a0  080000c0  080000c0  000010c0  2**2
                  CONTENTS, ALLOC, LOAD, READONLY, CODE
  2 .rodata       00000480  08007260  08007260  00008260  2**3
                  CONTENTS, ALLOC, LOAD, READONLY, DATA
  3 .ARM.extab    00000000  080076e0  080076e0  000091d4  2**0
                  CONTENTS
  4 .ARM          00000000  080076e0  080076e0  000091d4  2**0
                  CONTENTS
  5 .preinit_array 00000000  080076e0  080076e0  000091d4  2**0
                  CONTENTS, ALLOC, LOAD, DATA
  6 .init_array   00000004  080076e0  080076e0  000086e0  2**2
                  CONTENTS, ALLOC, LOAD, READONLY, DATA
  7 .fini_array   00000004  080076e4  080076e4  000086e4  2**2
                  CONTENTS, ALLOC, LOAD, READONLY, DATA
  8 .data         000001d4  20000000  080076e8  00009000  2**2
                  CONTENTS, ALLOC, LOAD, DATA
  9 .bss          00000344  200001d4  080078bc  000091d4  2**2
                  ALLOC
 10 ._user_heap_stack 00000600  20000518  080078bc  00009518  2**0
                  ALLOC
 11 .ARM.attributes 00000028  00000000  00000000  000091d4  2**0
                  CONTENTS, READONLY
 12 .debug_info   0000bbba  00000000  00000000  000091fc  2**0
                  CONTENTS, READONLY, DEBUGGING, OCTETS
 13 .debug_abbrev 00001fb4  00000000  00000000  00014db6  2**0
                  CONTENTS, READONLY, DEBUGGING, OCTETS
 14 .debug_loclists 00003ad9  00000000  00000000  00016d6a  2**0
                  CONTENTS, READONLY, DEBUGGING, OCTETS
 15 .debug_aranges 00000790  00000000  00000000  0001a843  2**0
                  CONTENTS, READONLY, DEBUGGING, OCTETS
 16 .debug_rnglists 000007e2  00000000  00000000  0001afd3  2**0
                  CONTENTS, READONLY, DEBUGGING, OCTETS
 17 .debug_macro  000191d4  00000000  00000000  0001b7b5  2**0
                  CONTENTS, READONLY, DEBUGGING, OCTETS
 18 .debug_line   0000ce51  00000000  00000000  00034989  2**0
                  CONTENTS, READONLY, DEBUGGING, OCTETS
 19 .debug_str    0008dbcc  00000000  00000000  000417da  2**0
                  CONTENTS, READONLY, DEBUGGING, OCTETS
 20 .comment      00000043  00000000  00000000  000cf3a6  2**0
                  CONTENTS, READONLY
 21 .debug_frame  00002630  00000000  00000000  000cf3ec  2**2
                  CONTENTS, READONLY, DEBUGGING, OCTETS

Disassembly of section .text:

080000c0 <__do_global_dtors_aux>:
 80000c0:	b510      	push	{r4, lr}
 80000c2:	4c06      	ldr	r4, [pc, #24]	@ (80000dc <__do_global_dtors_aux+0x1c>)
 80000c4:	7823      	ldrb	r3, [r4, #0]
 80000c6:	2b00      	cmp	r3, #0
 80000c8:	d107      	bne.n	80000da <__do_global_dtors_aux+0x1a>
 80000ca:	4b05      	ldr	r3, [pc, #20]	@ (80000e0 <__do_global_dtors_aux+0x20>)
 80000cc:	2b00      	cmp	r3, #0
 80000ce:	d002      	beq.n	80000d6 <__do_global_dtors_aux+0x16>
 80000d0:	4804      	ldr	r0, [pc, #16]	@ (80000e4 <__do_global_dtors_aux+0x24>)
 80000d2:	e000      	b.n	80000d6 <__do_global_dtors_aux+0x16>
 80000d4:	bf00      	nop
 80000d6:	2301      	movs	r3, #1
 80000d8:	7023      	strb	r3, [r4, #0]
 80000da:	bd10      	pop	{r4, pc}
 80000dc:	200001d4 	.word	0x200001d4
 80000e0:	00000000 	.word	0x00000000
 80000e4:	08007248 	.word	0x08007248

080000e8 <frame_dummy>:
 80000e8:	4b04      	ldr	r3, [pc, #16]	@ (80000fc <frame_dummy+0x14>)
 80000ea:	b510      	push	{r4, lr}
 80000ec:	2b00      	cmp	r3, #0
 80000ee:	d003      	beq.n	80000f8 <frame_dummy+0x10>
 80000f0:	4903      	ldr	r1, [pc, #12]	@ (8000100 <frame_dummy+0x18>)
 80000f2:	4804      	ldr	r0, [pc, #16]	@ (8000104 <frame_dummy+0x1c>)
 80000f4:	e000      	b.n	80000f8 <frame_dummy+0x10>
 80000f6:	bf00      	nop
 80000f8:	bd10      	pop	{r4, pc}
 80000fa:	46c0      	nop			@ (mov r8, r8)
 80000fc:	00000000 	.word	0x00000000
 8000100:	200001d8 	.word	0x200001d8
 8000104:	08007248 	.word	0x08007248

08000108 <strlen>:
 8000108:	2300      	movs	r3, #0
 800010a:	5cc2      	ldrb	r2, [r0, r3]
 800010c:	3301      	adds	r3, #1
 800010e:	2a00      	cmp	r2, #0
 8000110:	d1fb      	bne.n	800010a <strlen+0x2>
 8000112:	1e58      	subs	r0, r3, #1
 8000114:	4770      	bx	lr
	...

08000118 <__gnu_thumb1_case_uqi>:
 8000118:	b402      	push	{r1}
 800011a:	4671      	mov	r1, lr
 800011c:	0849      	lsrs	r1, r1, #1
 800011e:	0049      	lsls	r1, r1, #1
 8000120:	5c09      	ldrb	r1, [r1, r0]
 8000122:	0049      	lsls	r1, r1, #1
 8000124:	448e      	add	lr, r1
 8000126:	bc02      	pop	{r1}
 8000128:	4770      	bx	lr
 800012a:	46c0      	nop			@ (mov r8, r8)

0800012c <__gnu_thumb1_case_shi>:
 800012c:	b403      	push	{r0, r1}
 800012e:	4671      	mov	r1, lr
 8000130:	0849      	lsrs	r1, r1, #1
 8000132:	0040      	lsls	r0, r0, #1
 8000134:	0049      	lsls	r1, r1, #1
 8000136:	5e09      	ldrsh	r1, [r1, r0]
 8000138:	0049      	lsls	r1, r1, #1
 800013a:	448e      	add	lr, r1
 800013c:	bc03      	pop	{r0, r1}
 800013e:	4770      	bx	lr

08000140 <__udivsi3>:
 8000140:	2200      	movs	r2, #0
 8000142:	0843      	lsrs	r3, r0, #1
 8000144:	428b      	cmp	r3, r1
 8000146:	d374      	bcc.n	8000232 <__udivsi3+0xf2>
 8000148:	0903      	lsrs	r3, r0, #4
 800014a:	428b      	cmp	r3, r1
 800014c:	d35f      	bcc.n	800020e <__udivsi3+0xce>
 800014e:	0a03      	lsrs	r3, r0, #8
 8000150:	428b      	cmp	r3, r1
 8000152:	d344      	bcc.n	80001de <__udivsi3+0x9e>
 8000154:	0b03      	lsrs	r3, r0, #12
 8000156:	428b      	cmp	r3, r1
 8000158:	d328      	bcc.n	80001ac <__udivsi3+0x6c>
 800015a:	0c03      	lsrs	r3, r0, #16
 800015c:	428b      	cmp	r3, r1
 800015e:	d30d      	bcc.n	800017c <__udivsi3+0x3c>
 8000160:	22ff      	movs	r2, #255	@ 0xff
 8000162:	0209      	lsls	r1, r1, #8
 8000164:	ba12      	rev	r2, r2
 8000166:	0c03      	lsrs	r3, r0, #16
 8000168:	428b      	cmp	r3, r1
 800016a:	d302      	bcc.n	8000172 <__udivsi3+0x32>
 800016c:	1212      	asrs	r2, r2, #8
 800016e:	0209      	lsls	r1, r1, #8
 8000170:	d065      	beq.n	800023e <__udivsi3+0xfe>
 8000172:	0b03      	lsrs	r3, r0, #12
 8000174:	428b      	cmp	r3, r1
 8000176:	d319      	bcc.n	80001ac <__udivsi3+0x6c>
 8000178:	e000      	b.n	800017c <__udivsi3+0x3c>
 800017a:	0a09      	lsrs	r1, r1, #8
 800017c:	0bc3      	lsrs	r3, r0, #15
 800017e:	428b      	cmp	r3, r1
 8000180:	d301      	bcc.n	8000186 <__udivsi3+0x46>
 8000182:	03cb      	lsls	r3, r1, #15
 8000184:	1ac0      	subs	r0, r0, r3
 8000186:	4152      	adcs	r2, r2
 8000188:	0b83      	lsrs	r3, r0, #14
 800018a:	428b      	cmp	r3, r1
 800018c:	d301      	bcc.n	8000192 <__udivsi3+0x52>
 800018e:	038b      	lsls	r3, r1, #14
 8000190:	1ac0      	subs	r0, r0, r3
 8000192:	4152      	adcs	r2, r2
 8000194:	0b43      	lsrs	r3, r0, #13
 8000196:	428b      	cmp	r3, r1
 8000198:	d301      	bcc.n	800019e <__udivsi3+0x5e>
 800019a:	034b      	lsls	r3, r1, #13
 800019c:	1ac0      	subs	r0, r0, r3
 800019e:	4152      	adcs	r2, r2
 80001a0:	0b03      	lsrs	r3, r0, #12
 80001a2:	428b      	cmp	r3, r1
 80001a4:	d301      	bcc.n	80001aa <__udivsi3+0x6a>
 80001a6:	030b      	lsls	r3, r1, #12
 80001a8:	1ac0      	subs	r0, r0, r3
 80001aa:	4152      	adcs	r2, r2
 80001ac:	0ac3      	lsrs	r3, r0, #11
 80001ae:	428b      	cmp	r3, r1
 80001b0:	d301      	bcc.n	80001b6 <__udivsi3+0x76>
 80001b2:	02cb      	lsls	r3, r1, #11
 80001b4:	1ac0      	subs	r0, r0, r3
 80001b6:	4152      	adcs	r2, r2
 80001b8:	0a83      	lsrs	r3, r0, #10
 80001ba:	428b      	cmp	r3, r1
 80001bc:	d301      	bcc.n	80001c2 <__udivsi3+0x82>
 80001be:	028b      	lsls	r3, r1, #10
 80001c0:	1ac0      	subs	r0, r0, r3
 80001c2:	4152      	adcs	r2, r2
 80001c4:	0a43      	lsrs	r3, r0, #9
 80001c6:	428b      	cmp	r3, r1
 80001c8:	d301      	bcc.n	80001ce <__udivsi3+0x8e>
 80001ca:	024b      	lsls	r3, r1, #9
 80001cc:	1ac0      	subs	r0, r0, r3
 80001ce:	4152      	adcs	r2, r2
 80001d0:	0a03      	lsrs	r3, r0, #8
 80001d2:	428b      	cmp	r3, r1
 80001d4:	d301      	bcc.n	80001da <__udivsi3+0x9a>
 80001d6:	020b      	lsls	r3, r1, #8
 80001d8:	1ac0      	subs	r0, r0, r3
 80001da:	4152      	adcs	r2, r2
 80001dc:	d2cd      	bcs.n	800017a <__udivsi3+0x3a>
 80001de:	09c3      	lsrs	r3, r0, #7
 80001e0:	428b      	cmp	r3, r1
 80001e2:	d301      	bcc.n	80001e8 <__udivsi3+0xa8>
 80001e4:	01cb      	lsls	r3, r1, #7
 80001e6:	1ac0      	subs	r0, r0, r3
 80001e8:	4152      	adcs	r2, r2
 80001ea:	0983      	lsrs	r3, r0, #6
 80001ec:	428b      	cmp	r3, r1
 80001ee:	d301      	bcc.n	80001f4 <__udivsi3+0xb4>
 80001f0:	018b      	lsls	r3, r1, #6
 80001f2:	1ac0      	subs	r0, r0, r3
 80001f4:	4152      	adcs	r2, r2
 80001f6:	0943      	lsrs	r3, r0, #5
 80001f8:	428b      	cmp	r3, r1
 80001fa:	d301      	bcc.n	8000200 <__udivsi3+0xc0>
 80001fc:	014b      	lsls	r3, r1, #5
 80001fe:	1ac0      	subs	r0, r0, r3
 8000200:	4152      	adcs	r2, r2
 8000202:	0903      	lsrs	r3, r0, #4
 8000204:	428b      	cmp	r3, r1
 8000206:	d301      	bcc.n	800020c <__udivsi3+0xcc>
 8000208:	010b      	lsls	r3, r1, #4
 800020a:	1ac0      	subs	r0, r0, r3
 800020c:	4152      	adcs	r2, r2
 800020e:	08c3      	lsrs	r3, r0, #3
 8000210:	428b      	cmp	r3, r1
 8000212:	d301      	bcc.n	8000218 <__udivsi3+0xd8>
 8000214:	00cb      	lsls	r3, r1, #3
 8000216:	1ac0      	subs	r0, r0, r3
 8000218:	4152      	adcs	r2, r2
 800021a:	0883      	lsrs	r3, r0, #2
 800021c:	428b      	cmp	r3, r1
 800021e:	d301      	bcc.n	8000224 <__udivsi3+0xe4>
 8000220:	008b      	lsls	r3, r1, #2
 8000222:	1ac0      	subs	r0, r0, r3
 8000224:	4152      	adcs	r2, r2
 8000226:	0843      	lsrs	r3, r0, #1
 8000228:	428b      	cmp	r3, r1
 800022a:	d301      	bcc.n	8000230 <__udivsi3+0xf0>
 800022c:	004b      	lsls	r3, r1, #1
 800022e:	1ac0      	subs	r0, r0, r3
 8000230:	4152      	adcs	r2, r2
 8000232:	1a41      	subs	r1, r0, r1
 8000234:	d200      	bcs.n	8000238 <__udivsi3+0xf8>
 8000236:	4601      	mov	r1, r0
 8000238:	4152      	adcs	r2, r2
 800023a:	4610      	mov	r0, r2
 800023c:	4770      	bx	lr
 800023e:	e7ff      	b.n	8000240 <__udivsi3+0x100>
 8000240:	b501      	push	{r0, lr}
 8000242:	2000      	movs	r0, #0
 8000244:	f000 f8f0 	bl	8000428 <__aeabi_idiv0>
 8000248:	bd02      	pop	{r1, pc}
 800024a:	46c0      	nop			@ (mov r8, r8)

0800024c <__aeabi_uidivmod>:
 800024c:	2900      	cmp	r1, #0
 800024e:	d0f7      	beq.n	8000240 <__udivsi3+0x100>
 8000250:	e776      	b.n	8000140 <__udivsi3>
 8000252:	4770      	bx	lr

08000254 <__divsi3>:
 8000254:	4603      	mov	r3, r0
 8000256:	430b      	orrs	r3, r1
 8000258:	d47f      	bmi.n	800035a <__divsi3+0x106>
 800025a:	2200      	movs	r2, #0
 800025c:	0843      	lsrs	r3, r0, #1
 800025e:	428b      	cmp	r3, r1
 8000260:	d374      	bcc.n	800034c <__divsi3+0xf8>
 8000262:	0903      	lsrs	r3, r0, #4
 8000264:	428b      	cmp	r3, r1
 8000266:	d35f      	bcc.n	8000328 <__divsi3+0xd4>
 8000268:	0a03      	lsrs	r3, r0, #8
 800026a:	428b      	cmp	r3, r1
 800026c:	d344      	bcc.n	80002f8 <__divsi3+0xa4>
 800026e:	0b03      	lsrs	r3, r0, #12
 8000270:	428b      	cmp	r3, r1
 8000272:	d328      	bcc.n	80002c6 <__divsi3+0x72>
 8000274:	0c03      	lsrs	r3, r0, #16
 8000276:	428b      	cmp	r3, r1
 8000278:	d30d      	bcc.n	8000296 <__divsi3+0x42>
 800027a:	22ff      	movs	r2, #255	@ 0xff
 800027c:	0209      	lsls	r1, r1, #8
 800027e:	ba12      	rev	r2, r2
 8000280:	0c03      	lsrs	r3, r0, #16
 8000282:	428b      	cmp	r3, r1
 8000284:	d302      	bcc.n	800028c <__divsi3+0x38>
 8000286:	1212      	asrs	r2, r2, #8
 8000288:	0209      	lsls	r1, r1, #8
 800028a:	d065      	beq.n	8000358 <__divsi3+0x104>
 800028c:	0b03      	lsrs	r3, r0, #12
 800028e:	428b      	cmp	r3, r1
 8000290:	d319      	bcc.n	80002c6 <__divsi3+0x72>
 8000292:	e000      	b.n	8000296 <__divsi3+0x42>
 8000294:	0a09      	lsrs	r1, r1, #8
 8000296:	0bc3      	lsrs	r3, r0, #15
 8000298:	428b      	cmp	r3, r1
 800029a:	d301      	bcc.n	80002a0 <__divsi3+0x4c>
 800029c:	03cb      	lsls	r3, r1, #15
 800029e:	1ac0      	subs	r0, r0, r3
 80002a0:	4152      	adcs	r2, r2
 80002a2:	0b83      	lsrs	r3, r0, #14
 80002a4:	428b      	cmp	r3, r1
 80002a6:	d301      	bcc.n	80002ac <__divsi3+0x58>
 80002a8:	038b      	lsls	r3, r1, #14
 80002aa:	1ac0      	subs	r0, r0, r3
 80002ac:	4152      	adcs	r2, r2
 80002ae:	0b43      	lsrs	r3, r0, #13
 80002b0:	428b      	cmp	r3, r1
 80002b2:	d301      	bcc.n	80002b8 <__divsi3+0x64>
 80002b4:	034b      	lsls	r3, r1, #13
 80002b6:	1ac0      	subs	r0, r0, r3
 80002b8:	4152      	adcs	r2, r2
 80002ba:	0b03      	lsrs	r3, r0, #12
 80002bc:	428b      	cmp	r3, r1
 80002be:	d301      	bcc.n	80002c4 <__divsi3+0x70>
 80002c0:	030b      	lsls	r3, r1, #12
 80002c2:	1ac0      	subs	r0, r0, r3
 80002c4:	4152      	adcs	r2, r2
 80002c6:	0ac3      	lsrs	r3, r0, #11
 80002c8:	428b      	cmp	r3, r1
 80002ca:	d301      	bcc.n	80002d0 <__divsi3+0x7c>
 80002cc:	02cb      	lsls	r3, r1, #11
 80002ce:	1ac0      	subs	r0, r0, r3
 80002d0:	4152      	adcs	r2, r2
 80002d2:	0a83      	lsrs	r3, r0, #10
 80002d4:	428b      	cmp	r3, r1
 80002d6:	d301      	bcc.n	80002dc <__divsi3+0x88>
 80002d8:	028b      	lsls	r3, r1, #10
 80002da:	1ac0      	subs	r0, r0, r3
 80002dc:	4152      	adcs	r2, r2
 80002de:	0a43      	lsrs	r3, r0, #9
 80002e0:	428b      	cmp	r3, r1
 80002e2:	d301      	bcc.n	80002e8 <__divsi3+0x94>
 80002e4:	024b      	lsls	r3, r1, #9
 80002e6:	1ac0      	subs	r0, r0, r3
 80002e8:	4152      	adcs	r2, r2
 80002ea:	0a03      	lsrs	r3, r0, #8
 80002ec:	428b      	cmp	r3, r1
 80002ee:	d301      	bcc.n	80002f4 <__divsi3+0xa0>
 80002f0:	020b      	lsls	r3, r1, #8
 80002f2:	1ac0      	subs	r0, r0, r3
 80002f4:	4152      	adcs	r2, r2
 80002f6:	d2cd      	bcs.n	8000294 <__divsi3+0x40>
 80002f8:	09c3      	lsrs	r3, r0, #7
 80002fa:	428b      	cmp	r3, r1
 80002fc:	d301      	bcc.n	8000302 <__divsi3+0xae>
 80002fe:	01cb      	lsls	r3, r1, #7
 8000300:	1ac0      	subs	r0, r0, r3
 8000302:	4152      	adcs	r2, r2
 8000304:	0983      	lsrs	r3, r0, #6
 8000306:	428b      	cmp	r3, r1
 8000308:	d301      	bcc.n	800030e <__divsi3+0xba>
 800030a:	018b      	lsls	r3, r1, #6
 800030c:	1ac0      	subs	r0, r0, r3
 800030e:	4152      	adcs	r2, r2
 8000310:	0943      	lsrs	r3, r0, #5
 8000312:	428b      	cmp	r3, r1
 8000314:	d301      	bcc.n	800031a <__divsi3+0xc6>
 8000316:	014b      	lsls	r3, r1, #5
 8000318:	1ac0      	subs	r0, r0, r3
 800031a:	4152      	adcs	r2, r2
 800031c:	0903      	lsrs	r3, r0, #4
 800031e:	428b      	cmp	r3, r1
 8000320:	d301      	bcc.n	8000326 <__divsi3+0xd2>
 8000322:	010b      	lsls	r3, r1, #4
 8000324:	1ac0      	subs	r0, r0, r3
 8000326:	4152      	adcs	r2, r2
 8000328:	08c3      	lsrs	r3, r0, #3
 800032a:	428b      	cmp	r3, r1
 800032c:	d301      	bcc.n	8000332 <__divsi3+0xde>
 800032e:	00cb      	lsls	r3, r1, #3
 8000330:	1ac0      	subs	r0, r0, r3
 8000332:	4152      	adcs	r2, r2
 8000334:	0883      	lsrs	r3, r0, #2
 8000336:	428b      	cmp	r3, r1
 8000338:	d301      	bcc.n	800033e <__divsi3+0xea>
 800033a:	008b      	lsls	r3, r1, #2
 800033c:	1ac0      	subs	r0, r0, r3
 800033e:	4152      	adcs	r2, r2
 8000340:	0843      	lsrs	r3, r0, #1
 8000342:	428b      	cmp	r3, r1
 8000344:	d301      	bcc.n	800034a <__divsi3+0xf6>
 8000346:	004b      	lsls	r3, r1, #1
 8000348:	1ac0      	subs	r0, r0, r3
 800034a:	4152      	adcs	r2, r2
 800034c:	1a41      	subs	r1, r0, r1
 800034e:	d200      	bcs.n	8000352 <__divsi3+0xfe>
 8000350:	4601      	mov	r1, r0
 8000352:	4152      	adcs	r2, r2
 8000354:	4610      	mov	r0, r2
 8000356:	4770      	bx	lr
 8000358:	e05d      	b.n	8000416 <__divsi3+0x1c2>
 800035a:	0fca      	lsrs	r2, r1, #31
 800035c:	d000      	beq.n	8000360 <__divsi3+0x10c>
 800035e:	4249      	negs	r1, r1
 8000360:	1003      	asrs	r3, r0, #32
 8000362:	d300      	bcc.n	8000366 <__divsi3+0x112>
 8000364:	4240      	negs	r0, r0
 8000366:	4053      	eors	r3, r2
 8000368:	2200      	movs	r2, #0
 800036a:	469c      	mov	ip, r3
 800036c:	0903      	lsrs	r3, r0, #4
 800036e:	428b      	cmp	r3, r1
 8000370:	d32d      	bcc.n	80003ce <__divsi3+0x17a>
 8000372:	0a03      	lsrs	r3, r0, #8
 8000374:	428b      	cmp	r3, r1
 8000376:	d312      	bcc.n	800039e <__divsi3+0x14a>
 8000378:	22fc      	movs	r2, #252	@ 0xfc
 800037a:	0189      	lsls	r1, r1, #6
 800037c:	ba12      	rev	r2, r2
 800037e:	0a03      	lsrs	r3, r0, #8
 8000380:	428b      	cmp	r3, r1
 8000382:	d30c      	bcc.n	800039e <__divsi3+0x14a>
 8000384:	0189      	lsls	r1, r1, #6
 8000386:	1192      	asrs	r2, r2, #6
 8000388:	428b      	cmp	r3, r1
 800038a:	d308      	bcc.n	800039e <__divsi3+0x14a>
 800038c:	0189      	lsls	r1, r1, #6
 800038e:	1192      	asrs	r2, r2, #6
 8000390:	428b      	cmp	r3, r1
 8000392:	d304      	bcc.n	800039e <__divsi3+0x14a>
 8000394:	0189      	lsls	r1, r1, #6
 8000396:	d03a      	beq.n	800040e <__divsi3+0x1ba>
 8000398:	1192      	asrs	r2, r2, #6
 800039a:	e000      	b.n	800039e <__divsi3+0x14a>
 800039c:	0989      	lsrs	r1, r1, #6
 800039e:	09c3      	lsrs	r3, r0, #7
 80003a0:	428b      	cmp	r3, r1
 80003a2:	d301      	bcc.n	80003a8 <__divsi3+0x154>
 80003a4:	01cb      	lsls	r3, r1, #7
 80003a6:	1ac0      	subs	r0, r0, r3
 80003a8:	4152      	adcs	r2, r2
 80003aa:	0983      	lsrs	r3, r0, #6
 80003ac:	428b      	cmp	r3, r1
 80003ae:	d301      	bcc.n	80003b4 <__divsi3+0x160>
 80003b0:	018b      	lsls	r3, r1, #6
 80003b2:	1ac0      	subs	r0, r0, r3
 80003b4:	4152      	adcs	r2, r2
 80003b6:	0943      	lsrs	r3, r0, #5
 80003b8:	428b      	cmp	r3, r1
 80003ba:	d301      	bcc.n	80003c0 <__divsi3+0x16c>
 80003bc:	014b      	lsls	r3, r1, #5
 80003be:	1ac0      	subs	r0, r0, r3
 80003c0:	4152      	adcs	r2, r2
 80003c2:	0903      	lsrs	r3, r0, #4
 80003c4:	428b      	cmp	r3, r1
 80003c6:	d301      	bcc.n	80003cc <__divsi3+0x178>
 80003c8:	010b      	lsls	r3, r1, #4
 80003ca:	1ac0      	subs	r0, r0, r3
 80003cc:	4152      	adcs	r2, r2
 80003ce:	08c3      	lsrs	r3, r0, #3
 80003d0:	428b      	cmp	r3, r1
 80003d2:	d301      	bcc.n	80003d8 <__divsi3+0x184>
 80003d4:	00cb      	lsls	r3, r1, #3
 80003d6:	1ac0      	subs	r0, r0, r3
 80003d8:	4152      	adcs	r2, r2
 80003da:	0883      	lsrs	r3, r0, #2
 80003dc:	428b      	cmp	r3, r1
 80003de:	d301      	bcc.n	80003e4 <__divsi3+0x190>
 80003e0:	008b      	lsls	r3, r1, #2
 80003e2:	1ac0      	subs	r0, r0, r3
 80003e4:	4152      	adcs	r2, r2
 80003e6:	d2d9      	bcs.n	800039c <__divsi3+0x148>
 80003e8:	0843      	lsrs	r3, r0, #1
 80003ea:	428b      	cmp	r3, r1
 80003ec:	d301      	bcc.n	80003f2 <__divsi3+0x19e>
 80003ee:	004b      	lsls	r3, r1, #1
 80003f0:	1ac0      	subs	r0, r0, r3
 80003f2:	4152      	adcs	r2, r2
 80003f4:	1a41      	subs	r1, r0, r1
 80003f6:	d200      	bcs.n	80003fa <__divsi3+0x1a6>
 80003f8:	4601      	mov	r1, r0
 80003fa:	4663      	mov	r3, ip
 80003fc:	4152      	adcs	r2, r2
 80003fe:	105b      	asrs	r3, r3, #1
 8000400:	4610      	mov	r0, r2
 8000402:	d301      	bcc.n	8000408 <__divsi3+0x1b4>
 8000404:	4240      	negs	r0, r0
 8000406:	2b00      	cmp	r3, #0
 8000408:	d500      	bpl.n	800040c <__divsi3+0x1b8>
 800040a:	4249      	negs	r1, r1
 800040c:	4770      	bx	lr
 800040e:	4663      	mov	r3, ip
 8000410:	105b      	asrs	r3, r3, #1
 8000412:	d300      	bcc.n	8000416 <__divsi3+0x1c2>
 8000414:	4240      	negs	r0, r0
 8000416:	b501      	push	{r0, lr}
 8000418:	2000      	movs	r0, #0
 800041a:	f000 f805 	bl	8000428 <__aeabi_idiv0>
 800041e:	bd02      	pop	{r1, pc}

08000420 <__aeabi_idivmod>:
 8000420:	2900      	cmp	r1, #0
 8000422:	d0f8      	beq.n	8000416 <__divsi3+0x1c2>
 8000424:	e716      	b.n	8000254 <__divsi3>
 8000426:	4770      	bx	lr

08000428 <__aeabi_idiv0>:
 8000428:	4770      	bx	lr
 800042a:	46c0      	nop			@ (mov r8, r8)

0800042c <__aeabi_cdrcmple>:
 800042c:	4684      	mov	ip, r0
 800042e:	0010      	movs	r0, r2
 8000430:	4662      	mov	r2, ip
 8000432:	468c      	mov	ip, r1
 8000434:	0019      	movs	r1, r3
 8000436:	4663      	mov	r3, ip
 8000438:	e000      	b.n	800043c <__aeabi_cdcmpeq>
 800043a:	46c0      	nop			@ (mov r8, r8)

0800043c <__aeabi_cdcmpeq>:
 800043c:	b51f      	push	{r0, r1, r2, r3, r4, lr}
 800043e:	f001 f8cb 	bl	80015d8 <__ledf2>
 8000442:	2800      	cmp	r0, #0
 8000444:	d401      	bmi.n	800044a <__aeabi_cdcmpeq+0xe>
 8000446:	2100      	movs	r1, #0
 8000448:	42c8      	cmn	r0, r1
 800044a:	bd1f      	pop	{r0, r1, r2, r3, r4, pc}

0800044c <__aeabi_dcmpeq>:
 800044c:	b510      	push	{r4, lr}
 800044e:	f001 f80b 	bl	8001468 <__eqdf2>
 8000452:	4240      	negs	r0, r0
 8000454:	3001      	adds	r0, #1
 8000456:	bd10      	pop	{r4, pc}

08000458 <__aeabi_dcmplt>:
 8000458:	b510      	push	{r4, lr}
 800045a:	f001 f8bd 	bl	80015d8 <__ledf2>
 800045e:	2800      	cmp	r0, #0
 8000460:	db01      	blt.n	8000466 <__aeabi_dcmplt+0xe>
 8000462:	2000      	movs	r0, #0
 8000464:	bd10      	pop	{r4, pc}
 8000466:	2001      	movs	r0, #1
 8000468:	bd10      	pop	{r4, pc}
 800046a:	46c0      	nop			@ (mov r8, r8)

0800046c <__aeabi_dcmple>:
 800046c:	b510      	push	{r4, lr}
 800046e:	f001 f8b3 	bl	80015d8 <__ledf2>
 8000472:	2800      	cmp	r0, #0
 8000474:	dd01      	ble.n	800047a <__aeabi_dcmple+0xe>
 8000476:	2000      	movs	r0, #0
 8000478:	bd10      	pop	{r4, pc}
 800047a:	2001      	movs	r0, #1
 800047c:	bd10      	pop	{r4, pc}
 800047e:	46c0      	nop			@ (mov r8, r8)

08000480 <__aeabi_dcmpgt>:
 8000480:	b510      	push	{r4, lr}
 8000482:	f001 f835 	bl	80014f0 <__gedf2>
 8000486:	2800      	cmp	r0, #0
 8000488:	dc01      	bgt.n	800048e <__aeabi_dcmpgt+0xe>
 800048a:	2000      	movs	r0, #0
 800048c:	bd10      	pop	{r4, pc}
 800048e:	2001      	movs	r0, #1
 8000490:	bd10      	pop	{r4, pc}
 8000492:	46c0      	nop			@ (mov r8, r8)

08000494 <__aeabi_dcmpge>:
 8000494:	b510      	push	{r4, lr}
 8000496:	f001 f82b 	bl	80014f0 <__gedf2>
 800049a:	2800      	cmp	r0, #0
 800049c:	da01      	bge.n	80004a2 <__aeabi_dcmpge+0xe>
 800049e:	2000      	movs	r0, #0
 80004a0:	bd10      	pop	{r4, pc}
 80004a2:	2001      	movs	r0, #1
 80004a4:	bd10      	pop	{r4, pc}
 80004a6:	46c0      	nop			@ (mov r8, r8)

080004a8 <__aeabi_fdiv>:
 80004a8:	b5f0      	push	{r4, r5, r6, r7, lr}
 80004aa:	464f      	mov	r7, r9
 80004ac:	4646      	mov	r6, r8
 80004ae:	46d6      	mov	lr, sl
 80004b0:	0244      	lsls	r4, r0, #9
 80004b2:	b5c0      	push	{r6, r7, lr}
 80004b4:	0047      	lsls	r7, r0, #1
 80004b6:	1c0e      	adds	r6, r1, #0
 80004b8:	0a64      	lsrs	r4, r4, #9
 80004ba:	0e3f      	lsrs	r7, r7, #24
 80004bc:	0fc5      	lsrs	r5, r0, #31
 80004be:	2f00      	cmp	r7, #0
 80004c0:	d03c      	beq.n	800053c <__aeabi_fdiv+0x94>
 80004c2:	2fff      	cmp	r7, #255	@ 0xff
 80004c4:	d042      	beq.n	800054c <__aeabi_fdiv+0xa4>
 80004c6:	2300      	movs	r3, #0
 80004c8:	2280      	movs	r2, #128	@ 0x80
 80004ca:	4699      	mov	r9, r3
 80004cc:	469a      	mov	sl, r3
 80004ce:	00e4      	lsls	r4, r4, #3
 80004d0:	04d2      	lsls	r2, r2, #19
 80004d2:	4314      	orrs	r4, r2
 80004d4:	3f7f      	subs	r7, #127	@ 0x7f
 80004d6:	0273      	lsls	r3, r6, #9
 80004d8:	0a5b      	lsrs	r3, r3, #9
 80004da:	4698      	mov	r8, r3
 80004dc:	0073      	lsls	r3, r6, #1
 80004de:	0e1b      	lsrs	r3, r3, #24
 80004e0:	0ff6      	lsrs	r6, r6, #31
 80004e2:	2b00      	cmp	r3, #0
 80004e4:	d01b      	beq.n	800051e <__aeabi_fdiv+0x76>
 80004e6:	2bff      	cmp	r3, #255	@ 0xff
 80004e8:	d013      	beq.n	8000512 <__aeabi_fdiv+0x6a>
 80004ea:	4642      	mov	r2, r8
 80004ec:	2180      	movs	r1, #128	@ 0x80
 80004ee:	00d2      	lsls	r2, r2, #3
 80004f0:	04c9      	lsls	r1, r1, #19
 80004f2:	4311      	orrs	r1, r2
 80004f4:	4688      	mov	r8, r1
 80004f6:	2000      	movs	r0, #0
 80004f8:	3b7f      	subs	r3, #127	@ 0x7f
 80004fa:	0029      	movs	r1, r5
 80004fc:	1aff      	subs	r7, r7, r3
 80004fe:	464b      	mov	r3, r9
 8000500:	4071      	eors	r1, r6
 8000502:	b2c9      	uxtb	r1, r1
 8000504:	2b0f      	cmp	r3, #15
 8000506:	d900      	bls.n	800050a <__aeabi_fdiv+0x62>
 8000508:	e0b5      	b.n	8000676 <__aeabi_fdiv+0x1ce>
 800050a:	4a74      	ldr	r2, [pc, #464]	@ (80006dc <__aeabi_fdiv+0x234>)
 800050c:	009b      	lsls	r3, r3, #2
 800050e:	58d3      	ldr	r3, [r2, r3]
 8000510:	469f      	mov	pc, r3
 8000512:	4643      	mov	r3, r8
 8000514:	2b00      	cmp	r3, #0
 8000516:	d13f      	bne.n	8000598 <__aeabi_fdiv+0xf0>
 8000518:	3fff      	subs	r7, #255	@ 0xff
 800051a:	3302      	adds	r3, #2
 800051c:	e003      	b.n	8000526 <__aeabi_fdiv+0x7e>
 800051e:	4643      	mov	r3, r8
 8000520:	2b00      	cmp	r3, #0
 8000522:	d12d      	bne.n	8000580 <__aeabi_fdiv+0xd8>
 8000524:	2301      	movs	r3, #1
 8000526:	0029      	movs	r1, r5
 8000528:	464a      	mov	r2, r9
 800052a:	4071      	eors	r1, r6
 800052c:	b2c9      	uxtb	r1, r1
 800052e:	431a      	orrs	r2, r3
 8000530:	2a0e      	cmp	r2, #14
 8000532:	d838      	bhi.n	80005a6 <__aeabi_fdiv+0xfe>
 8000534:	486a      	ldr	r0, [pc, #424]	@ (80006e0 <__aeabi_fdiv+0x238>)
 8000536:	0092      	lsls	r2, r2, #2
 8000538:	5882      	ldr	r2, [r0, r2]
 800053a:	4697      	mov	pc, r2
 800053c:	2c00      	cmp	r4, #0
 800053e:	d113      	bne.n	8000568 <__aeabi_fdiv+0xc0>
 8000540:	2304      	movs	r3, #4
 8000542:	4699      	mov	r9, r3
 8000544:	3b03      	subs	r3, #3
 8000546:	2700      	movs	r7, #0
 8000548:	469a      	mov	sl, r3
 800054a:	e7c4      	b.n	80004d6 <__aeabi_fdiv+0x2e>
 800054c:	2c00      	cmp	r4, #0
 800054e:	d105      	bne.n	800055c <__aeabi_fdiv+0xb4>
 8000550:	2308      	movs	r3, #8
 8000552:	4699      	mov	r9, r3
 8000554:	3b06      	subs	r3, #6
 8000556:	27ff      	movs	r7, #255	@ 0xff
 8000558:	469a      	mov	sl, r3
 800055a:	e7bc      	b.n	80004d6 <__aeabi_fdiv+0x2e>
 800055c:	230c      	movs	r3, #12
 800055e:	4699      	mov	r9, r3
 8000560:	3b09      	subs	r3, #9
 8000562:	27ff      	movs	r7, #255	@ 0xff
 8000564:	469a      	mov	sl, r3
 8000566:	e7b6      	b.n	80004d6 <__aeabi_fdiv+0x2e>
 8000568:	0020      	movs	r0, r4
 800056a:	f002 f887 	bl	800267c <__clzsi2>
 800056e:	2776      	movs	r7, #118	@ 0x76
 8000570:	1f43      	subs	r3, r0, #5
 8000572:	409c      	lsls	r4, r3
 8000574:	2300      	movs	r3, #0
 8000576:	427f      	negs	r7, r7
 8000578:	4699      	mov	r9, r3
 800057a:	469a      	mov	sl, r3
 800057c:	1a3f      	subs	r7, r7, r0
 800057e:	e7aa      	b.n	80004d6 <__aeabi_fdiv+0x2e>
 8000580:	4640      	mov	r0, r8
 8000582:	f002 f87b 	bl	800267c <__clzsi2>
 8000586:	4642      	mov	r2, r8
 8000588:	1f43      	subs	r3, r0, #5
 800058a:	409a      	lsls	r2, r3
 800058c:	2376      	movs	r3, #118	@ 0x76
 800058e:	425b      	negs	r3, r3
 8000590:	1a1b      	subs	r3, r3, r0
 8000592:	4690      	mov	r8, r2
 8000594:	2000      	movs	r0, #0
 8000596:	e7b0      	b.n	80004fa <__aeabi_fdiv+0x52>
 8000598:	2303      	movs	r3, #3
 800059a:	464a      	mov	r2, r9
 800059c:	431a      	orrs	r2, r3
 800059e:	4691      	mov	r9, r2
 80005a0:	2003      	movs	r0, #3
 80005a2:	33fc      	adds	r3, #252	@ 0xfc
 80005a4:	e7a9      	b.n	80004fa <__aeabi_fdiv+0x52>
 80005a6:	000d      	movs	r5, r1
 80005a8:	20ff      	movs	r0, #255	@ 0xff
 80005aa:	2200      	movs	r2, #0
 80005ac:	05c0      	lsls	r0, r0, #23
 80005ae:	07ed      	lsls	r5, r5, #31
 80005b0:	4310      	orrs	r0, r2
 80005b2:	4328      	orrs	r0, r5
 80005b4:	bce0      	pop	{r5, r6, r7}
 80005b6:	46ba      	mov	sl, r7
 80005b8:	46b1      	mov	r9, r6
 80005ba:	46a8      	mov	r8, r5
 80005bc:	bdf0      	pop	{r4, r5, r6, r7, pc}
 80005be:	000d      	movs	r5, r1
 80005c0:	2000      	movs	r0, #0
 80005c2:	2200      	movs	r2, #0
 80005c4:	e7f2      	b.n	80005ac <__aeabi_fdiv+0x104>
 80005c6:	4653      	mov	r3, sl
 80005c8:	2b02      	cmp	r3, #2
 80005ca:	d0ed      	beq.n	80005a8 <__aeabi_fdiv+0x100>
 80005cc:	2b03      	cmp	r3, #3
 80005ce:	d033      	beq.n	8000638 <__aeabi_fdiv+0x190>
 80005d0:	46a0      	mov	r8, r4
 80005d2:	2b01      	cmp	r3, #1
 80005d4:	d105      	bne.n	80005e2 <__aeabi_fdiv+0x13a>
 80005d6:	2000      	movs	r0, #0
 80005d8:	2200      	movs	r2, #0
 80005da:	e7e7      	b.n	80005ac <__aeabi_fdiv+0x104>
 80005dc:	0035      	movs	r5, r6
 80005de:	2803      	cmp	r0, #3
 80005e0:	d07a      	beq.n	80006d8 <__aeabi_fdiv+0x230>
 80005e2:	003b      	movs	r3, r7
 80005e4:	337f      	adds	r3, #127	@ 0x7f
 80005e6:	2b00      	cmp	r3, #0
 80005e8:	dd2d      	ble.n	8000646 <__aeabi_fdiv+0x19e>
 80005ea:	4642      	mov	r2, r8
 80005ec:	0752      	lsls	r2, r2, #29
 80005ee:	d007      	beq.n	8000600 <__aeabi_fdiv+0x158>
 80005f0:	220f      	movs	r2, #15
 80005f2:	4641      	mov	r1, r8
 80005f4:	400a      	ands	r2, r1
 80005f6:	2a04      	cmp	r2, #4
 80005f8:	d002      	beq.n	8000600 <__aeabi_fdiv+0x158>
 80005fa:	2204      	movs	r2, #4
 80005fc:	4694      	mov	ip, r2
 80005fe:	44e0      	add	r8, ip
 8000600:	4642      	mov	r2, r8
 8000602:	0112      	lsls	r2, r2, #4
 8000604:	d505      	bpl.n	8000612 <__aeabi_fdiv+0x16a>
 8000606:	4642      	mov	r2, r8
 8000608:	4b36      	ldr	r3, [pc, #216]	@ (80006e4 <__aeabi_fdiv+0x23c>)
 800060a:	401a      	ands	r2, r3
 800060c:	003b      	movs	r3, r7
 800060e:	4690      	mov	r8, r2
 8000610:	3380      	adds	r3, #128	@ 0x80
 8000612:	2bfe      	cmp	r3, #254	@ 0xfe
 8000614:	dcc8      	bgt.n	80005a8 <__aeabi_fdiv+0x100>
 8000616:	4642      	mov	r2, r8
 8000618:	0192      	lsls	r2, r2, #6
 800061a:	0a52      	lsrs	r2, r2, #9
 800061c:	b2d8      	uxtb	r0, r3
 800061e:	e7c5      	b.n	80005ac <__aeabi_fdiv+0x104>
 8000620:	2280      	movs	r2, #128	@ 0x80
 8000622:	2500      	movs	r5, #0
 8000624:	20ff      	movs	r0, #255	@ 0xff
 8000626:	03d2      	lsls	r2, r2, #15
 8000628:	e7c0      	b.n	80005ac <__aeabi_fdiv+0x104>
 800062a:	2280      	movs	r2, #128	@ 0x80
 800062c:	03d2      	lsls	r2, r2, #15
 800062e:	4214      	tst	r4, r2
 8000630:	d002      	beq.n	8000638 <__aeabi_fdiv+0x190>
 8000632:	4643      	mov	r3, r8
 8000634:	4213      	tst	r3, r2
 8000636:	d049      	beq.n	80006cc <__aeabi_fdiv+0x224>
 8000638:	2280      	movs	r2, #128	@ 0x80
 800063a:	03d2      	lsls	r2, r2, #15
 800063c:	4322      	orrs	r2, r4
 800063e:	0252      	lsls	r2, r2, #9
 8000640:	20ff      	movs	r0, #255	@ 0xff
 8000642:	0a52      	lsrs	r2, r2, #9
 8000644:	e7b2      	b.n	80005ac <__aeabi_fdiv+0x104>
 8000646:	2201      	movs	r2, #1
 8000648:	1ad3      	subs	r3, r2, r3
 800064a:	2b1b      	cmp	r3, #27
 800064c:	dcc3      	bgt.n	80005d6 <__aeabi_fdiv+0x12e>
 800064e:	4642      	mov	r2, r8
 8000650:	40da      	lsrs	r2, r3
 8000652:	4643      	mov	r3, r8
 8000654:	379e      	adds	r7, #158	@ 0x9e
 8000656:	40bb      	lsls	r3, r7
 8000658:	1e59      	subs	r1, r3, #1
 800065a:	418b      	sbcs	r3, r1
 800065c:	431a      	orrs	r2, r3
 800065e:	0753      	lsls	r3, r2, #29
 8000660:	d004      	beq.n	800066c <__aeabi_fdiv+0x1c4>
 8000662:	230f      	movs	r3, #15
 8000664:	4013      	ands	r3, r2
 8000666:	2b04      	cmp	r3, #4
 8000668:	d000      	beq.n	800066c <__aeabi_fdiv+0x1c4>
 800066a:	3204      	adds	r2, #4
 800066c:	0153      	lsls	r3, r2, #5
 800066e:	d529      	bpl.n	80006c4 <__aeabi_fdiv+0x21c>
 8000670:	2001      	movs	r0, #1
 8000672:	2200      	movs	r2, #0
 8000674:	e79a      	b.n	80005ac <__aeabi_fdiv+0x104>
 8000676:	4642      	mov	r2, r8
 8000678:	0163      	lsls	r3, r4, #5
 800067a:	0155      	lsls	r5, r2, #5
 800067c:	42ab      	cmp	r3, r5
 800067e:	d215      	bcs.n	80006ac <__aeabi_fdiv+0x204>
 8000680:	201b      	movs	r0, #27
 8000682:	2200      	movs	r2, #0
 8000684:	3f01      	subs	r7, #1
 8000686:	2601      	movs	r6, #1
 8000688:	001c      	movs	r4, r3
 800068a:	0052      	lsls	r2, r2, #1
 800068c:	005b      	lsls	r3, r3, #1
 800068e:	2c00      	cmp	r4, #0
 8000690:	db01      	blt.n	8000696 <__aeabi_fdiv+0x1ee>
 8000692:	429d      	cmp	r5, r3
 8000694:	d801      	bhi.n	800069a <__aeabi_fdiv+0x1f2>
 8000696:	1b5b      	subs	r3, r3, r5
 8000698:	4332      	orrs	r2, r6
 800069a:	3801      	subs	r0, #1
 800069c:	2800      	cmp	r0, #0
 800069e:	d1f3      	bne.n	8000688 <__aeabi_fdiv+0x1e0>
 80006a0:	1e58      	subs	r0, r3, #1
 80006a2:	4183      	sbcs	r3, r0
 80006a4:	4313      	orrs	r3, r2
 80006a6:	4698      	mov	r8, r3
 80006a8:	000d      	movs	r5, r1
 80006aa:	e79a      	b.n	80005e2 <__aeabi_fdiv+0x13a>
 80006ac:	201a      	movs	r0, #26
 80006ae:	2201      	movs	r2, #1
 80006b0:	1b5b      	subs	r3, r3, r5
 80006b2:	e7e8      	b.n	8000686 <__aeabi_fdiv+0x1de>
 80006b4:	3b02      	subs	r3, #2
 80006b6:	425a      	negs	r2, r3
 80006b8:	4153      	adcs	r3, r2
 80006ba:	425b      	negs	r3, r3
 80006bc:	0035      	movs	r5, r6
 80006be:	2200      	movs	r2, #0
 80006c0:	b2d8      	uxtb	r0, r3
 80006c2:	e773      	b.n	80005ac <__aeabi_fdiv+0x104>
 80006c4:	0192      	lsls	r2, r2, #6
 80006c6:	2000      	movs	r0, #0
 80006c8:	0a52      	lsrs	r2, r2, #9
 80006ca:	e76f      	b.n	80005ac <__aeabi_fdiv+0x104>
 80006cc:	431a      	orrs	r2, r3
 80006ce:	0252      	lsls	r2, r2, #9
 80006d0:	0035      	movs	r5, r6
 80006d2:	20ff      	movs	r0, #255	@ 0xff
 80006d4:	0a52      	lsrs	r2, r2, #9
 80006d6:	e769      	b.n	80005ac <__aeabi_fdiv+0x104>
 80006d8:	4644      	mov	r4, r8
 80006da:	e7ad      	b.n	8000638 <__aeabi_fdiv+0x190>
 80006dc:	08007260 	.word	0x08007260
 80006e0:	080072a0 	.word	0x080072a0
 80006e4:	f7ffffff 	.word	0xf7ffffff

080006e8 <__aeabi_ui2f>:
 80006e8:	b570      	push	{r4, r5, r6, lr}
 80006ea:	1e04      	subs	r4, r0, #0
 80006ec:	d00e      	beq.n	800070c <__aeabi_ui2f+0x24>
 80006ee:	f001 ffc5 	bl	800267c <__clzsi2>
 80006f2:	239e      	movs	r3, #158	@ 0x9e
 80006f4:	0001      	movs	r1, r0
 80006f6:	1a1b      	subs	r3, r3, r0
 80006f8:	2b96      	cmp	r3, #150	@ 0x96
 80006fa:	dc0c      	bgt.n	8000716 <__aeabi_ui2f+0x2e>
 80006fc:	2808      	cmp	r0, #8
 80006fe:	d02f      	beq.n	8000760 <__aeabi_ui2f+0x78>
 8000700:	3908      	subs	r1, #8
 8000702:	408c      	lsls	r4, r1
 8000704:	0264      	lsls	r4, r4, #9
 8000706:	0a64      	lsrs	r4, r4, #9
 8000708:	b2d8      	uxtb	r0, r3
 800070a:	e001      	b.n	8000710 <__aeabi_ui2f+0x28>
 800070c:	2000      	movs	r0, #0
 800070e:	2400      	movs	r4, #0
 8000710:	05c0      	lsls	r0, r0, #23
 8000712:	4320      	orrs	r0, r4
 8000714:	bd70      	pop	{r4, r5, r6, pc}
 8000716:	2b99      	cmp	r3, #153	@ 0x99
 8000718:	dc16      	bgt.n	8000748 <__aeabi_ui2f+0x60>
 800071a:	1f42      	subs	r2, r0, #5
 800071c:	2805      	cmp	r0, #5
 800071e:	d000      	beq.n	8000722 <__aeabi_ui2f+0x3a>
 8000720:	4094      	lsls	r4, r2
 8000722:	0022      	movs	r2, r4
 8000724:	4810      	ldr	r0, [pc, #64]	@ (8000768 <__aeabi_ui2f+0x80>)
 8000726:	4002      	ands	r2, r0
 8000728:	0765      	lsls	r5, r4, #29
 800072a:	d009      	beq.n	8000740 <__aeabi_ui2f+0x58>
 800072c:	250f      	movs	r5, #15
 800072e:	402c      	ands	r4, r5
 8000730:	2c04      	cmp	r4, #4
 8000732:	d005      	beq.n	8000740 <__aeabi_ui2f+0x58>
 8000734:	3204      	adds	r2, #4
 8000736:	0154      	lsls	r4, r2, #5
 8000738:	d502      	bpl.n	8000740 <__aeabi_ui2f+0x58>
 800073a:	239f      	movs	r3, #159	@ 0x9f
 800073c:	4002      	ands	r2, r0
 800073e:	1a5b      	subs	r3, r3, r1
 8000740:	0192      	lsls	r2, r2, #6
 8000742:	0a54      	lsrs	r4, r2, #9
 8000744:	b2d8      	uxtb	r0, r3
 8000746:	e7e3      	b.n	8000710 <__aeabi_ui2f+0x28>
 8000748:	0002      	movs	r2, r0
 800074a:	0020      	movs	r0, r4
 800074c:	321b      	adds	r2, #27
 800074e:	4090      	lsls	r0, r2
 8000750:	0002      	movs	r2, r0
 8000752:	1e50      	subs	r0, r2, #1
 8000754:	4182      	sbcs	r2, r0
 8000756:	2005      	movs	r0, #5
 8000758:	1a40      	subs	r0, r0, r1
 800075a:	40c4      	lsrs	r4, r0
 800075c:	4314      	orrs	r4, r2
 800075e:	e7e0      	b.n	8000722 <__aeabi_ui2f+0x3a>
 8000760:	0264      	lsls	r4, r4, #9
 8000762:	2096      	movs	r0, #150	@ 0x96
 8000764:	0a64      	lsrs	r4, r4, #9
 8000766:	e7d3      	b.n	8000710 <__aeabi_ui2f+0x28>
 8000768:	fbffffff 	.word	0xfbffffff

0800076c <__aeabi_dadd>:
 800076c:	b5f0      	push	{r4, r5, r6, r7, lr}
 800076e:	4657      	mov	r7, sl
 8000770:	464e      	mov	r6, r9
 8000772:	4645      	mov	r5, r8
 8000774:	46de      	mov	lr, fp
 8000776:	b5e0      	push	{r5, r6, r7, lr}
 8000778:	b083      	sub	sp, #12
 800077a:	9000      	str	r0, [sp, #0]
 800077c:	9101      	str	r1, [sp, #4]
 800077e:	030c      	lsls	r4, r1, #12
 8000780:	004f      	lsls	r7, r1, #1
 8000782:	0fce      	lsrs	r6, r1, #31
 8000784:	0a61      	lsrs	r1, r4, #9
 8000786:	9c00      	ldr	r4, [sp, #0]
 8000788:	031d      	lsls	r5, r3, #12
 800078a:	0f64      	lsrs	r4, r4, #29
 800078c:	430c      	orrs	r4, r1
 800078e:	9900      	ldr	r1, [sp, #0]
 8000790:	9200      	str	r2, [sp, #0]
 8000792:	9301      	str	r3, [sp, #4]
 8000794:	00c8      	lsls	r0, r1, #3
 8000796:	0059      	lsls	r1, r3, #1
 8000798:	0d4b      	lsrs	r3, r1, #21
 800079a:	4699      	mov	r9, r3
 800079c:	9a00      	ldr	r2, [sp, #0]
 800079e:	9b01      	ldr	r3, [sp, #4]
 80007a0:	0a6d      	lsrs	r5, r5, #9
 80007a2:	0fd9      	lsrs	r1, r3, #31
 80007a4:	0f53      	lsrs	r3, r2, #29
 80007a6:	432b      	orrs	r3, r5
 80007a8:	469a      	mov	sl, r3
 80007aa:	9b00      	ldr	r3, [sp, #0]
 80007ac:	0d7f      	lsrs	r7, r7, #21
 80007ae:	00da      	lsls	r2, r3, #3
 80007b0:	4694      	mov	ip, r2
 80007b2:	464a      	mov	r2, r9
 80007b4:	46b0      	mov	r8, r6
 80007b6:	1aba      	subs	r2, r7, r2
 80007b8:	428e      	cmp	r6, r1
 80007ba:	d100      	bne.n	80007be <__aeabi_dadd+0x52>
 80007bc:	e0b0      	b.n	8000920 <__aeabi_dadd+0x1b4>
 80007be:	2a00      	cmp	r2, #0
 80007c0:	dc00      	bgt.n	80007c4 <__aeabi_dadd+0x58>
 80007c2:	e078      	b.n	80008b6 <__aeabi_dadd+0x14a>
 80007c4:	4649      	mov	r1, r9
 80007c6:	2900      	cmp	r1, #0
 80007c8:	d100      	bne.n	80007cc <__aeabi_dadd+0x60>
 80007ca:	e0e9      	b.n	80009a0 <__aeabi_dadd+0x234>
 80007cc:	49c9      	ldr	r1, [pc, #804]	@ (8000af4 <__aeabi_dadd+0x388>)
 80007ce:	428f      	cmp	r7, r1
 80007d0:	d100      	bne.n	80007d4 <__aeabi_dadd+0x68>
 80007d2:	e195      	b.n	8000b00 <__aeabi_dadd+0x394>
 80007d4:	2501      	movs	r5, #1
 80007d6:	2a38      	cmp	r2, #56	@ 0x38
 80007d8:	dc16      	bgt.n	8000808 <__aeabi_dadd+0x9c>
 80007da:	2180      	movs	r1, #128	@ 0x80
 80007dc:	4653      	mov	r3, sl
 80007de:	0409      	lsls	r1, r1, #16
 80007e0:	430b      	orrs	r3, r1
 80007e2:	469a      	mov	sl, r3
 80007e4:	2a1f      	cmp	r2, #31
 80007e6:	dd00      	ble.n	80007ea <__aeabi_dadd+0x7e>
 80007e8:	e1e7      	b.n	8000bba <__aeabi_dadd+0x44e>
 80007ea:	2120      	movs	r1, #32
 80007ec:	4655      	mov	r5, sl
 80007ee:	1a8b      	subs	r3, r1, r2
 80007f0:	4661      	mov	r1, ip
 80007f2:	409d      	lsls	r5, r3
 80007f4:	40d1      	lsrs	r1, r2
 80007f6:	430d      	orrs	r5, r1
 80007f8:	4661      	mov	r1, ip
 80007fa:	4099      	lsls	r1, r3
 80007fc:	1e4b      	subs	r3, r1, #1
 80007fe:	4199      	sbcs	r1, r3
 8000800:	4653      	mov	r3, sl
 8000802:	40d3      	lsrs	r3, r2
 8000804:	430d      	orrs	r5, r1
 8000806:	1ae4      	subs	r4, r4, r3
 8000808:	1b45      	subs	r5, r0, r5
 800080a:	42a8      	cmp	r0, r5
 800080c:	4180      	sbcs	r0, r0
 800080e:	4240      	negs	r0, r0
 8000810:	1a24      	subs	r4, r4, r0
 8000812:	0223      	lsls	r3, r4, #8
 8000814:	d400      	bmi.n	8000818 <__aeabi_dadd+0xac>
 8000816:	e10f      	b.n	8000a38 <__aeabi_dadd+0x2cc>
 8000818:	0264      	lsls	r4, r4, #9
 800081a:	0a64      	lsrs	r4, r4, #9
 800081c:	2c00      	cmp	r4, #0
 800081e:	d100      	bne.n	8000822 <__aeabi_dadd+0xb6>
 8000820:	e139      	b.n	8000a96 <__aeabi_dadd+0x32a>
 8000822:	0020      	movs	r0, r4
 8000824:	f001 ff2a 	bl	800267c <__clzsi2>
 8000828:	0003      	movs	r3, r0
 800082a:	3b08      	subs	r3, #8
 800082c:	2120      	movs	r1, #32
 800082e:	0028      	movs	r0, r5
 8000830:	1aca      	subs	r2, r1, r3
 8000832:	40d0      	lsrs	r0, r2
 8000834:	409c      	lsls	r4, r3
 8000836:	0002      	movs	r2, r0
 8000838:	409d      	lsls	r5, r3
 800083a:	4322      	orrs	r2, r4
 800083c:	429f      	cmp	r7, r3
 800083e:	dd00      	ble.n	8000842 <__aeabi_dadd+0xd6>
 8000840:	e173      	b.n	8000b2a <__aeabi_dadd+0x3be>
 8000842:	1bd8      	subs	r0, r3, r7
 8000844:	3001      	adds	r0, #1
 8000846:	1a09      	subs	r1, r1, r0
 8000848:	002c      	movs	r4, r5
 800084a:	408d      	lsls	r5, r1
 800084c:	40c4      	lsrs	r4, r0
 800084e:	1e6b      	subs	r3, r5, #1
 8000850:	419d      	sbcs	r5, r3
 8000852:	0013      	movs	r3, r2
 8000854:	40c2      	lsrs	r2, r0
 8000856:	408b      	lsls	r3, r1
 8000858:	4325      	orrs	r5, r4
 800085a:	2700      	movs	r7, #0
 800085c:	0014      	movs	r4, r2
 800085e:	431d      	orrs	r5, r3
 8000860:	076b      	lsls	r3, r5, #29
 8000862:	d009      	beq.n	8000878 <__aeabi_dadd+0x10c>
 8000864:	230f      	movs	r3, #15
 8000866:	402b      	ands	r3, r5
 8000868:	2b04      	cmp	r3, #4
 800086a:	d005      	beq.n	8000878 <__aeabi_dadd+0x10c>
 800086c:	1d2b      	adds	r3, r5, #4
 800086e:	42ab      	cmp	r3, r5
 8000870:	41ad      	sbcs	r5, r5
 8000872:	426d      	negs	r5, r5
 8000874:	1964      	adds	r4, r4, r5
 8000876:	001d      	movs	r5, r3
 8000878:	0223      	lsls	r3, r4, #8
 800087a:	d400      	bmi.n	800087e <__aeabi_dadd+0x112>
 800087c:	e12d      	b.n	8000ada <__aeabi_dadd+0x36e>
 800087e:	4a9d      	ldr	r2, [pc, #628]	@ (8000af4 <__aeabi_dadd+0x388>)
 8000880:	3701      	adds	r7, #1
 8000882:	4297      	cmp	r7, r2
 8000884:	d100      	bne.n	8000888 <__aeabi_dadd+0x11c>
 8000886:	e0d3      	b.n	8000a30 <__aeabi_dadd+0x2c4>
 8000888:	4646      	mov	r6, r8
 800088a:	499b      	ldr	r1, [pc, #620]	@ (8000af8 <__aeabi_dadd+0x38c>)
 800088c:	08ed      	lsrs	r5, r5, #3
 800088e:	4021      	ands	r1, r4
 8000890:	074a      	lsls	r2, r1, #29
 8000892:	432a      	orrs	r2, r5
 8000894:	057c      	lsls	r4, r7, #21
 8000896:	024d      	lsls	r5, r1, #9
 8000898:	0b2d      	lsrs	r5, r5, #12
 800089a:	0d64      	lsrs	r4, r4, #21
 800089c:	0524      	lsls	r4, r4, #20
 800089e:	432c      	orrs	r4, r5
 80008a0:	07f6      	lsls	r6, r6, #31
 80008a2:	4334      	orrs	r4, r6
 80008a4:	0010      	movs	r0, r2
 80008a6:	0021      	movs	r1, r4
 80008a8:	b003      	add	sp, #12
 80008aa:	bcf0      	pop	{r4, r5, r6, r7}
 80008ac:	46bb      	mov	fp, r7
 80008ae:	46b2      	mov	sl, r6
 80008b0:	46a9      	mov	r9, r5
 80008b2:	46a0      	mov	r8, r4
 80008b4:	bdf0      	pop	{r4, r5, r6, r7, pc}
 80008b6:	2a00      	cmp	r2, #0
 80008b8:	d100      	bne.n	80008bc <__aeabi_dadd+0x150>
 80008ba:	e084      	b.n	80009c6 <__aeabi_dadd+0x25a>
 80008bc:	464a      	mov	r2, r9
 80008be:	1bd2      	subs	r2, r2, r7
 80008c0:	2f00      	cmp	r7, #0
 80008c2:	d000      	beq.n	80008c6 <__aeabi_dadd+0x15a>
 80008c4:	e16d      	b.n	8000ba2 <__aeabi_dadd+0x436>
 80008c6:	0025      	movs	r5, r4
 80008c8:	4305      	orrs	r5, r0
 80008ca:	d100      	bne.n	80008ce <__aeabi_dadd+0x162>
 80008cc:	e127      	b.n	8000b1e <__aeabi_dadd+0x3b2>
 80008ce:	1e56      	subs	r6, r2, #1
 80008d0:	2a01      	cmp	r2, #1
 80008d2:	d100      	bne.n	80008d6 <__aeabi_dadd+0x16a>
 80008d4:	e23b      	b.n	8000d4e <__aeabi_dadd+0x5e2>
 80008d6:	4d87      	ldr	r5, [pc, #540]	@ (8000af4 <__aeabi_dadd+0x388>)
 80008d8:	42aa      	cmp	r2, r5
 80008da:	d100      	bne.n	80008de <__aeabi_dadd+0x172>
 80008dc:	e26a      	b.n	8000db4 <__aeabi_dadd+0x648>
 80008de:	2501      	movs	r5, #1
 80008e0:	2e38      	cmp	r6, #56	@ 0x38
 80008e2:	dc12      	bgt.n	800090a <__aeabi_dadd+0x19e>
 80008e4:	0032      	movs	r2, r6
 80008e6:	2a1f      	cmp	r2, #31
 80008e8:	dd00      	ble.n	80008ec <__aeabi_dadd+0x180>
 80008ea:	e1f8      	b.n	8000cde <__aeabi_dadd+0x572>
 80008ec:	2620      	movs	r6, #32
 80008ee:	0025      	movs	r5, r4
 80008f0:	1ab6      	subs	r6, r6, r2
 80008f2:	0007      	movs	r7, r0
 80008f4:	4653      	mov	r3, sl
 80008f6:	40b0      	lsls	r0, r6
 80008f8:	40d4      	lsrs	r4, r2
 80008fa:	40b5      	lsls	r5, r6
 80008fc:	40d7      	lsrs	r7, r2
 80008fe:	1e46      	subs	r6, r0, #1
 8000900:	41b0      	sbcs	r0, r6
 8000902:	1b1b      	subs	r3, r3, r4
 8000904:	469a      	mov	sl, r3
 8000906:	433d      	orrs	r5, r7
 8000908:	4305      	orrs	r5, r0
 800090a:	4662      	mov	r2, ip
 800090c:	1b55      	subs	r5, r2, r5
 800090e:	45ac      	cmp	ip, r5
 8000910:	4192      	sbcs	r2, r2
 8000912:	4653      	mov	r3, sl
 8000914:	4252      	negs	r2, r2
 8000916:	000e      	movs	r6, r1
 8000918:	464f      	mov	r7, r9
 800091a:	4688      	mov	r8, r1
 800091c:	1a9c      	subs	r4, r3, r2
 800091e:	e778      	b.n	8000812 <__aeabi_dadd+0xa6>
 8000920:	2a00      	cmp	r2, #0
 8000922:	dc00      	bgt.n	8000926 <__aeabi_dadd+0x1ba>
 8000924:	e08e      	b.n	8000a44 <__aeabi_dadd+0x2d8>
 8000926:	4649      	mov	r1, r9
 8000928:	2900      	cmp	r1, #0
 800092a:	d175      	bne.n	8000a18 <__aeabi_dadd+0x2ac>
 800092c:	4661      	mov	r1, ip
 800092e:	4653      	mov	r3, sl
 8000930:	4319      	orrs	r1, r3
 8000932:	d100      	bne.n	8000936 <__aeabi_dadd+0x1ca>
 8000934:	e0f6      	b.n	8000b24 <__aeabi_dadd+0x3b8>
 8000936:	1e51      	subs	r1, r2, #1
 8000938:	2a01      	cmp	r2, #1
 800093a:	d100      	bne.n	800093e <__aeabi_dadd+0x1d2>
 800093c:	e191      	b.n	8000c62 <__aeabi_dadd+0x4f6>
 800093e:	4d6d      	ldr	r5, [pc, #436]	@ (8000af4 <__aeabi_dadd+0x388>)
 8000940:	42aa      	cmp	r2, r5
 8000942:	d100      	bne.n	8000946 <__aeabi_dadd+0x1da>
 8000944:	e0dc      	b.n	8000b00 <__aeabi_dadd+0x394>
 8000946:	2501      	movs	r5, #1
 8000948:	2938      	cmp	r1, #56	@ 0x38
 800094a:	dc14      	bgt.n	8000976 <__aeabi_dadd+0x20a>
 800094c:	000a      	movs	r2, r1
 800094e:	2a1f      	cmp	r2, #31
 8000950:	dd00      	ble.n	8000954 <__aeabi_dadd+0x1e8>
 8000952:	e1a2      	b.n	8000c9a <__aeabi_dadd+0x52e>
 8000954:	2120      	movs	r1, #32
 8000956:	4653      	mov	r3, sl
 8000958:	1a89      	subs	r1, r1, r2
 800095a:	408b      	lsls	r3, r1
 800095c:	001d      	movs	r5, r3
 800095e:	4663      	mov	r3, ip
 8000960:	40d3      	lsrs	r3, r2
 8000962:	431d      	orrs	r5, r3
 8000964:	4663      	mov	r3, ip
 8000966:	408b      	lsls	r3, r1
 8000968:	0019      	movs	r1, r3
 800096a:	1e4b      	subs	r3, r1, #1
 800096c:	4199      	sbcs	r1, r3
 800096e:	4653      	mov	r3, sl
 8000970:	40d3      	lsrs	r3, r2
 8000972:	430d      	orrs	r5, r1
 8000974:	18e4      	adds	r4, r4, r3
 8000976:	182d      	adds	r5, r5, r0
 8000978:	4285      	cmp	r5, r0
 800097a:	4180      	sbcs	r0, r0
 800097c:	4240      	negs	r0, r0
 800097e:	1824      	adds	r4, r4, r0
 8000980:	0223      	lsls	r3, r4, #8
 8000982:	d559      	bpl.n	8000a38 <__aeabi_dadd+0x2cc>
 8000984:	4b5b      	ldr	r3, [pc, #364]	@ (8000af4 <__aeabi_dadd+0x388>)
 8000986:	3701      	adds	r7, #1
 8000988:	429f      	cmp	r7, r3
 800098a:	d051      	beq.n	8000a30 <__aeabi_dadd+0x2c4>
 800098c:	2101      	movs	r1, #1
 800098e:	4b5a      	ldr	r3, [pc, #360]	@ (8000af8 <__aeabi_dadd+0x38c>)
 8000990:	086a      	lsrs	r2, r5, #1
 8000992:	401c      	ands	r4, r3
 8000994:	4029      	ands	r1, r5
 8000996:	430a      	orrs	r2, r1
 8000998:	07e5      	lsls	r5, r4, #31
 800099a:	4315      	orrs	r5, r2
 800099c:	0864      	lsrs	r4, r4, #1
 800099e:	e75f      	b.n	8000860 <__aeabi_dadd+0xf4>
 80009a0:	4661      	mov	r1, ip
 80009a2:	4653      	mov	r3, sl
 80009a4:	4319      	orrs	r1, r3
 80009a6:	d100      	bne.n	80009aa <__aeabi_dadd+0x23e>
 80009a8:	e0bc      	b.n	8000b24 <__aeabi_dadd+0x3b8>
 80009aa:	1e51      	subs	r1, r2, #1
 80009ac:	2a01      	cmp	r2, #1
 80009ae:	d100      	bne.n	80009b2 <__aeabi_dadd+0x246>
 80009b0:	e164      	b.n	8000c7c <__aeabi_dadd+0x510>
 80009b2:	4d50      	ldr	r5, [pc, #320]	@ (8000af4 <__aeabi_dadd+0x388>)
 80009b4:	42aa      	cmp	r2, r5
 80009b6:	d100      	bne.n	80009ba <__aeabi_dadd+0x24e>
 80009b8:	e16a      	b.n	8000c90 <__aeabi_dadd+0x524>
 80009ba:	2501      	movs	r5, #1
 80009bc:	2938      	cmp	r1, #56	@ 0x38
 80009be:	dd00      	ble.n	80009c2 <__aeabi_dadd+0x256>
 80009c0:	e722      	b.n	8000808 <__aeabi_dadd+0x9c>
 80009c2:	000a      	movs	r2, r1
 80009c4:	e70e      	b.n	80007e4 <__aeabi_dadd+0x78>
 80009c6:	4a4d      	ldr	r2, [pc, #308]	@ (8000afc <__aeabi_dadd+0x390>)
 80009c8:	1c7d      	adds	r5, r7, #1
 80009ca:	4215      	tst	r5, r2
 80009cc:	d000      	beq.n	80009d0 <__aeabi_dadd+0x264>
 80009ce:	e0d0      	b.n	8000b72 <__aeabi_dadd+0x406>
 80009d0:	0025      	movs	r5, r4
 80009d2:	4662      	mov	r2, ip
 80009d4:	4653      	mov	r3, sl
 80009d6:	4305      	orrs	r5, r0
 80009d8:	431a      	orrs	r2, r3
 80009da:	2f00      	cmp	r7, #0
 80009dc:	d000      	beq.n	80009e0 <__aeabi_dadd+0x274>
 80009de:	e137      	b.n	8000c50 <__aeabi_dadd+0x4e4>
 80009e0:	2d00      	cmp	r5, #0
 80009e2:	d100      	bne.n	80009e6 <__aeabi_dadd+0x27a>
 80009e4:	e1a8      	b.n	8000d38 <__aeabi_dadd+0x5cc>
 80009e6:	2a00      	cmp	r2, #0
 80009e8:	d100      	bne.n	80009ec <__aeabi_dadd+0x280>
 80009ea:	e16a      	b.n	8000cc2 <__aeabi_dadd+0x556>
 80009ec:	4663      	mov	r3, ip
 80009ee:	1ac5      	subs	r5, r0, r3
 80009f0:	4653      	mov	r3, sl
 80009f2:	1ae2      	subs	r2, r4, r3
 80009f4:	42a8      	cmp	r0, r5
 80009f6:	419b      	sbcs	r3, r3
 80009f8:	425b      	negs	r3, r3
 80009fa:	1ad3      	subs	r3, r2, r3
 80009fc:	021a      	lsls	r2, r3, #8
 80009fe:	d400      	bmi.n	8000a02 <__aeabi_dadd+0x296>
 8000a00:	e203      	b.n	8000e0a <__aeabi_dadd+0x69e>
 8000a02:	4663      	mov	r3, ip
 8000a04:	1a1d      	subs	r5, r3, r0
 8000a06:	45ac      	cmp	ip, r5
 8000a08:	4192      	sbcs	r2, r2
 8000a0a:	4653      	mov	r3, sl
 8000a0c:	4252      	negs	r2, r2
 8000a0e:	1b1c      	subs	r4, r3, r4
 8000a10:	000e      	movs	r6, r1
 8000a12:	4688      	mov	r8, r1
 8000a14:	1aa4      	subs	r4, r4, r2
 8000a16:	e723      	b.n	8000860 <__aeabi_dadd+0xf4>
 8000a18:	4936      	ldr	r1, [pc, #216]	@ (8000af4 <__aeabi_dadd+0x388>)
 8000a1a:	428f      	cmp	r7, r1
 8000a1c:	d070      	beq.n	8000b00 <__aeabi_dadd+0x394>
 8000a1e:	2501      	movs	r5, #1
 8000a20:	2a38      	cmp	r2, #56	@ 0x38
 8000a22:	dca8      	bgt.n	8000976 <__aeabi_dadd+0x20a>
 8000a24:	2180      	movs	r1, #128	@ 0x80
 8000a26:	4653      	mov	r3, sl
 8000a28:	0409      	lsls	r1, r1, #16
 8000a2a:	430b      	orrs	r3, r1
 8000a2c:	469a      	mov	sl, r3
 8000a2e:	e78e      	b.n	800094e <__aeabi_dadd+0x1e2>
 8000a30:	003c      	movs	r4, r7
 8000a32:	2500      	movs	r5, #0
 8000a34:	2200      	movs	r2, #0
 8000a36:	e731      	b.n	800089c <__aeabi_dadd+0x130>
 8000a38:	2307      	movs	r3, #7
 8000a3a:	402b      	ands	r3, r5
 8000a3c:	2b00      	cmp	r3, #0
 8000a3e:	d000      	beq.n	8000a42 <__aeabi_dadd+0x2d6>
 8000a40:	e710      	b.n	8000864 <__aeabi_dadd+0xf8>
 8000a42:	e093      	b.n	8000b6c <__aeabi_dadd+0x400>
 8000a44:	2a00      	cmp	r2, #0
 8000a46:	d074      	beq.n	8000b32 <__aeabi_dadd+0x3c6>
 8000a48:	464a      	mov	r2, r9
 8000a4a:	1bd2      	subs	r2, r2, r7
 8000a4c:	2f00      	cmp	r7, #0
 8000a4e:	d100      	bne.n	8000a52 <__aeabi_dadd+0x2e6>
 8000a50:	e0c7      	b.n	8000be2 <__aeabi_dadd+0x476>
 8000a52:	4928      	ldr	r1, [pc, #160]	@ (8000af4 <__aeabi_dadd+0x388>)
 8000a54:	4589      	cmp	r9, r1
 8000a56:	d100      	bne.n	8000a5a <__aeabi_dadd+0x2ee>
 8000a58:	e185      	b.n	8000d66 <__aeabi_dadd+0x5fa>
 8000a5a:	2501      	movs	r5, #1
 8000a5c:	2a38      	cmp	r2, #56	@ 0x38
 8000a5e:	dc12      	bgt.n	8000a86 <__aeabi_dadd+0x31a>
 8000a60:	2180      	movs	r1, #128	@ 0x80
 8000a62:	0409      	lsls	r1, r1, #16
 8000a64:	430c      	orrs	r4, r1
 8000a66:	2a1f      	cmp	r2, #31
 8000a68:	dd00      	ble.n	8000a6c <__aeabi_dadd+0x300>
 8000a6a:	e1ab      	b.n	8000dc4 <__aeabi_dadd+0x658>
 8000a6c:	2120      	movs	r1, #32
 8000a6e:	0025      	movs	r5, r4
 8000a70:	1a89      	subs	r1, r1, r2
 8000a72:	0007      	movs	r7, r0
 8000a74:	4088      	lsls	r0, r1
 8000a76:	408d      	lsls	r5, r1
 8000a78:	40d7      	lsrs	r7, r2
 8000a7a:	1e41      	subs	r1, r0, #1
 8000a7c:	4188      	sbcs	r0, r1
 8000a7e:	40d4      	lsrs	r4, r2
 8000a80:	433d      	orrs	r5, r7
 8000a82:	4305      	orrs	r5, r0
 8000a84:	44a2      	add	sl, r4
 8000a86:	4465      	add	r5, ip
 8000a88:	4565      	cmp	r5, ip
 8000a8a:	4192      	sbcs	r2, r2
 8000a8c:	4252      	negs	r2, r2
 8000a8e:	4452      	add	r2, sl
 8000a90:	0014      	movs	r4, r2
 8000a92:	464f      	mov	r7, r9
 8000a94:	e774      	b.n	8000980 <__aeabi_dadd+0x214>
 8000a96:	0028      	movs	r0, r5
 8000a98:	f001 fdf0 	bl	800267c <__clzsi2>
 8000a9c:	0003      	movs	r3, r0
 8000a9e:	3318      	adds	r3, #24
 8000aa0:	2b1f      	cmp	r3, #31
 8000aa2:	dc00      	bgt.n	8000aa6 <__aeabi_dadd+0x33a>
 8000aa4:	e6c2      	b.n	800082c <__aeabi_dadd+0xc0>
 8000aa6:	002a      	movs	r2, r5
 8000aa8:	3808      	subs	r0, #8
 8000aaa:	4082      	lsls	r2, r0
 8000aac:	429f      	cmp	r7, r3
 8000aae:	dd00      	ble.n	8000ab2 <__aeabi_dadd+0x346>
 8000ab0:	e0a9      	b.n	8000c06 <__aeabi_dadd+0x49a>
 8000ab2:	1bdb      	subs	r3, r3, r7
 8000ab4:	1c58      	adds	r0, r3, #1
 8000ab6:	281f      	cmp	r0, #31
 8000ab8:	dc00      	bgt.n	8000abc <__aeabi_dadd+0x350>
 8000aba:	e1ac      	b.n	8000e16 <__aeabi_dadd+0x6aa>
 8000abc:	0015      	movs	r5, r2
 8000abe:	3b1f      	subs	r3, #31
 8000ac0:	40dd      	lsrs	r5, r3
 8000ac2:	2820      	cmp	r0, #32
 8000ac4:	d005      	beq.n	8000ad2 <__aeabi_dadd+0x366>
 8000ac6:	2340      	movs	r3, #64	@ 0x40
 8000ac8:	1a1b      	subs	r3, r3, r0
 8000aca:	409a      	lsls	r2, r3
 8000acc:	1e53      	subs	r3, r2, #1
 8000ace:	419a      	sbcs	r2, r3
 8000ad0:	4315      	orrs	r5, r2
 8000ad2:	2307      	movs	r3, #7
 8000ad4:	2700      	movs	r7, #0
 8000ad6:	402b      	ands	r3, r5
 8000ad8:	e7b0      	b.n	8000a3c <__aeabi_dadd+0x2d0>
 8000ada:	08ed      	lsrs	r5, r5, #3
 8000adc:	4b05      	ldr	r3, [pc, #20]	@ (8000af4 <__aeabi_dadd+0x388>)
 8000ade:	0762      	lsls	r2, r4, #29
 8000ae0:	432a      	orrs	r2, r5
 8000ae2:	08e4      	lsrs	r4, r4, #3
 8000ae4:	429f      	cmp	r7, r3
 8000ae6:	d00f      	beq.n	8000b08 <__aeabi_dadd+0x39c>
 8000ae8:	0324      	lsls	r4, r4, #12
 8000aea:	0b25      	lsrs	r5, r4, #12
 8000aec:	057c      	lsls	r4, r7, #21
 8000aee:	0d64      	lsrs	r4, r4, #21
 8000af0:	e6d4      	b.n	800089c <__aeabi_dadd+0x130>
 8000af2:	46c0      	nop			@ (mov r8, r8)
 8000af4:	000007ff 	.word	0x000007ff
 8000af8:	ff7fffff 	.word	0xff7fffff
 8000afc:	000007fe 	.word	0x000007fe
 8000b00:	08c0      	lsrs	r0, r0, #3
 8000b02:	0762      	lsls	r2, r4, #29
 8000b04:	4302      	orrs	r2, r0
 8000b06:	08e4      	lsrs	r4, r4, #3
 8000b08:	0013      	movs	r3, r2
 8000b0a:	4323      	orrs	r3, r4
 8000b0c:	d100      	bne.n	8000b10 <__aeabi_dadd+0x3a4>
 8000b0e:	e186      	b.n	8000e1e <__aeabi_dadd+0x6b2>
 8000b10:	2580      	movs	r5, #128	@ 0x80
 8000b12:	032d      	lsls	r5, r5, #12
 8000b14:	4325      	orrs	r5, r4
 8000b16:	032d      	lsls	r5, r5, #12
 8000b18:	4cc3      	ldr	r4, [pc, #780]	@ (8000e28 <__aeabi_dadd+0x6bc>)
 8000b1a:	0b2d      	lsrs	r5, r5, #12
 8000b1c:	e6be      	b.n	800089c <__aeabi_dadd+0x130>
 8000b1e:	4660      	mov	r0, ip
 8000b20:	4654      	mov	r4, sl
 8000b22:	000e      	movs	r6, r1
 8000b24:	0017      	movs	r7, r2
 8000b26:	08c5      	lsrs	r5, r0, #3
 8000b28:	e7d8      	b.n	8000adc <__aeabi_dadd+0x370>
 8000b2a:	4cc0      	ldr	r4, [pc, #768]	@ (8000e2c <__aeabi_dadd+0x6c0>)
 8000b2c:	1aff      	subs	r7, r7, r3
 8000b2e:	4014      	ands	r4, r2
 8000b30:	e696      	b.n	8000860 <__aeabi_dadd+0xf4>
 8000b32:	4abf      	ldr	r2, [pc, #764]	@ (8000e30 <__aeabi_dadd+0x6c4>)
 8000b34:	1c79      	adds	r1, r7, #1
 8000b36:	4211      	tst	r1, r2
 8000b38:	d16b      	bne.n	8000c12 <__aeabi_dadd+0x4a6>
 8000b3a:	0022      	movs	r2, r4
 8000b3c:	4302      	orrs	r2, r0
 8000b3e:	2f00      	cmp	r7, #0
 8000b40:	d000      	beq.n	8000b44 <__aeabi_dadd+0x3d8>
 8000b42:	e0db      	b.n	8000cfc <__aeabi_dadd+0x590>
 8000b44:	2a00      	cmp	r2, #0
 8000b46:	d100      	bne.n	8000b4a <__aeabi_dadd+0x3de>
 8000b48:	e12d      	b.n	8000da6 <__aeabi_dadd+0x63a>
 8000b4a:	4662      	mov	r2, ip
 8000b4c:	4653      	mov	r3, sl
 8000b4e:	431a      	orrs	r2, r3
 8000b50:	d100      	bne.n	8000b54 <__aeabi_dadd+0x3e8>
 8000b52:	e0b6      	b.n	8000cc2 <__aeabi_dadd+0x556>
 8000b54:	4663      	mov	r3, ip
 8000b56:	18c5      	adds	r5, r0, r3
 8000b58:	4285      	cmp	r5, r0
 8000b5a:	4180      	sbcs	r0, r0
 8000b5c:	4454      	add	r4, sl
 8000b5e:	4240      	negs	r0, r0
 8000b60:	1824      	adds	r4, r4, r0
 8000b62:	0223      	lsls	r3, r4, #8
 8000b64:	d502      	bpl.n	8000b6c <__aeabi_dadd+0x400>
 8000b66:	000f      	movs	r7, r1
 8000b68:	4bb0      	ldr	r3, [pc, #704]	@ (8000e2c <__aeabi_dadd+0x6c0>)
 8000b6a:	401c      	ands	r4, r3
 8000b6c:	003a      	movs	r2, r7
 8000b6e:	0028      	movs	r0, r5
 8000b70:	e7d8      	b.n	8000b24 <__aeabi_dadd+0x3b8>
 8000b72:	4662      	mov	r2, ip
 8000b74:	1a85      	subs	r5, r0, r2
 8000b76:	42a8      	cmp	r0, r5
 8000b78:	4192      	sbcs	r2, r2
 8000b7a:	4653      	mov	r3, sl
 8000b7c:	4252      	negs	r2, r2
 8000b7e:	4691      	mov	r9, r2
 8000b80:	1ae3      	subs	r3, r4, r3
 8000b82:	001a      	movs	r2, r3
 8000b84:	464b      	mov	r3, r9
 8000b86:	1ad2      	subs	r2, r2, r3
 8000b88:	0013      	movs	r3, r2
 8000b8a:	4691      	mov	r9, r2
 8000b8c:	021a      	lsls	r2, r3, #8
 8000b8e:	d454      	bmi.n	8000c3a <__aeabi_dadd+0x4ce>
 8000b90:	464a      	mov	r2, r9
 8000b92:	464c      	mov	r4, r9
 8000b94:	432a      	orrs	r2, r5
 8000b96:	d000      	beq.n	8000b9a <__aeabi_dadd+0x42e>
 8000b98:	e640      	b.n	800081c <__aeabi_dadd+0xb0>
 8000b9a:	2600      	movs	r6, #0
 8000b9c:	2400      	movs	r4, #0
 8000b9e:	2500      	movs	r5, #0
 8000ba0:	e67c      	b.n	800089c <__aeabi_dadd+0x130>
 8000ba2:	4da1      	ldr	r5, [pc, #644]	@ (8000e28 <__aeabi_dadd+0x6bc>)
 8000ba4:	45a9      	cmp	r9, r5
 8000ba6:	d100      	bne.n	8000baa <__aeabi_dadd+0x43e>
 8000ba8:	e090      	b.n	8000ccc <__aeabi_dadd+0x560>
 8000baa:	2501      	movs	r5, #1
 8000bac:	2a38      	cmp	r2, #56	@ 0x38
 8000bae:	dd00      	ble.n	8000bb2 <__aeabi_dadd+0x446>
 8000bb0:	e6ab      	b.n	800090a <__aeabi_dadd+0x19e>
 8000bb2:	2580      	movs	r5, #128	@ 0x80
 8000bb4:	042d      	lsls	r5, r5, #16
 8000bb6:	432c      	orrs	r4, r5
 8000bb8:	e695      	b.n	80008e6 <__aeabi_dadd+0x17a>
 8000bba:	0011      	movs	r1, r2
 8000bbc:	4655      	mov	r5, sl
 8000bbe:	3920      	subs	r1, #32
 8000bc0:	40cd      	lsrs	r5, r1
 8000bc2:	46a9      	mov	r9, r5
 8000bc4:	2a20      	cmp	r2, #32
 8000bc6:	d006      	beq.n	8000bd6 <__aeabi_dadd+0x46a>
 8000bc8:	2140      	movs	r1, #64	@ 0x40
 8000bca:	4653      	mov	r3, sl
 8000bcc:	1a8a      	subs	r2, r1, r2
 8000bce:	4093      	lsls	r3, r2
 8000bd0:	4662      	mov	r2, ip
 8000bd2:	431a      	orrs	r2, r3
 8000bd4:	4694      	mov	ip, r2
 8000bd6:	4665      	mov	r5, ip
 8000bd8:	1e6b      	subs	r3, r5, #1
 8000bda:	419d      	sbcs	r5, r3
 8000bdc:	464b      	mov	r3, r9
 8000bde:	431d      	orrs	r5, r3
 8000be0:	e612      	b.n	8000808 <__aeabi_dadd+0x9c>
 8000be2:	0021      	movs	r1, r4
 8000be4:	4301      	orrs	r1, r0
 8000be6:	d100      	bne.n	8000bea <__aeabi_dadd+0x47e>
 8000be8:	e0c4      	b.n	8000d74 <__aeabi_dadd+0x608>
 8000bea:	1e51      	subs	r1, r2, #1
 8000bec:	2a01      	cmp	r2, #1
 8000bee:	d100      	bne.n	8000bf2 <__aeabi_dadd+0x486>
 8000bf0:	e0fb      	b.n	8000dea <__aeabi_dadd+0x67e>
 8000bf2:	4d8d      	ldr	r5, [pc, #564]	@ (8000e28 <__aeabi_dadd+0x6bc>)
 8000bf4:	42aa      	cmp	r2, r5
 8000bf6:	d100      	bne.n	8000bfa <__aeabi_dadd+0x48e>
 8000bf8:	e0b5      	b.n	8000d66 <__aeabi_dadd+0x5fa>
 8000bfa:	2501      	movs	r5, #1
 8000bfc:	2938      	cmp	r1, #56	@ 0x38
 8000bfe:	dd00      	ble.n	8000c02 <__aeabi_dadd+0x496>
 8000c00:	e741      	b.n	8000a86 <__aeabi_dadd+0x31a>
 8000c02:	000a      	movs	r2, r1
 8000c04:	e72f      	b.n	8000a66 <__aeabi_dadd+0x2fa>
 8000c06:	4c89      	ldr	r4, [pc, #548]	@ (8000e2c <__aeabi_dadd+0x6c0>)
 8000c08:	1aff      	subs	r7, r7, r3
 8000c0a:	4014      	ands	r4, r2
 8000c0c:	0762      	lsls	r2, r4, #29
 8000c0e:	08e4      	lsrs	r4, r4, #3
 8000c10:	e76a      	b.n	8000ae8 <__aeabi_dadd+0x37c>
 8000c12:	4a85      	ldr	r2, [pc, #532]	@ (8000e28 <__aeabi_dadd+0x6bc>)
 8000c14:	4291      	cmp	r1, r2
 8000c16:	d100      	bne.n	8000c1a <__aeabi_dadd+0x4ae>
 8000c18:	e0e3      	b.n	8000de2 <__aeabi_dadd+0x676>
 8000c1a:	4663      	mov	r3, ip
 8000c1c:	18c2      	adds	r2, r0, r3
 8000c1e:	4282      	cmp	r2, r0
 8000c20:	4180      	sbcs	r0, r0
 8000c22:	0023      	movs	r3, r4
 8000c24:	4240      	negs	r0, r0
 8000c26:	4453      	add	r3, sl
 8000c28:	181b      	adds	r3, r3, r0
 8000c2a:	07dd      	lsls	r5, r3, #31
 8000c2c:	085c      	lsrs	r4, r3, #1
 8000c2e:	2307      	movs	r3, #7
 8000c30:	0852      	lsrs	r2, r2, #1
 8000c32:	4315      	orrs	r5, r2
 8000c34:	000f      	movs	r7, r1
 8000c36:	402b      	ands	r3, r5
 8000c38:	e700      	b.n	8000a3c <__aeabi_dadd+0x2d0>
 8000c3a:	4663      	mov	r3, ip
 8000c3c:	1a1d      	subs	r5, r3, r0
 8000c3e:	45ac      	cmp	ip, r5
 8000c40:	4192      	sbcs	r2, r2
 8000c42:	4653      	mov	r3, sl
 8000c44:	4252      	negs	r2, r2
 8000c46:	1b1c      	subs	r4, r3, r4
 8000c48:	000e      	movs	r6, r1
 8000c4a:	4688      	mov	r8, r1
 8000c4c:	1aa4      	subs	r4, r4, r2
 8000c4e:	e5e5      	b.n	800081c <__aeabi_dadd+0xb0>
 8000c50:	2d00      	cmp	r5, #0
 8000c52:	d000      	beq.n	8000c56 <__aeabi_dadd+0x4ea>
 8000c54:	e091      	b.n	8000d7a <__aeabi_dadd+0x60e>
 8000c56:	2a00      	cmp	r2, #0
 8000c58:	d138      	bne.n	8000ccc <__aeabi_dadd+0x560>
 8000c5a:	2480      	movs	r4, #128	@ 0x80
 8000c5c:	2600      	movs	r6, #0
 8000c5e:	0324      	lsls	r4, r4, #12
 8000c60:	e756      	b.n	8000b10 <__aeabi_dadd+0x3a4>
 8000c62:	4663      	mov	r3, ip
 8000c64:	18c5      	adds	r5, r0, r3
 8000c66:	4285      	cmp	r5, r0
 8000c68:	4180      	sbcs	r0, r0
 8000c6a:	4454      	add	r4, sl
 8000c6c:	4240      	negs	r0, r0
 8000c6e:	1824      	adds	r4, r4, r0
 8000c70:	2701      	movs	r7, #1
 8000c72:	0223      	lsls	r3, r4, #8
 8000c74:	d400      	bmi.n	8000c78 <__aeabi_dadd+0x50c>
 8000c76:	e6df      	b.n	8000a38 <__aeabi_dadd+0x2cc>
 8000c78:	2702      	movs	r7, #2
 8000c7a:	e687      	b.n	800098c <__aeabi_dadd+0x220>
 8000c7c:	4663      	mov	r3, ip
 8000c7e:	1ac5      	subs	r5, r0, r3
 8000c80:	42a8      	cmp	r0, r5
 8000c82:	4180      	sbcs	r0, r0
 8000c84:	4653      	mov	r3, sl
 8000c86:	4240      	negs	r0, r0
 8000c88:	1ae4      	subs	r4, r4, r3
 8000c8a:	2701      	movs	r7, #1
 8000c8c:	1a24      	subs	r4, r4, r0
 8000c8e:	e5c0      	b.n	8000812 <__aeabi_dadd+0xa6>
 8000c90:	0762      	lsls	r2, r4, #29
 8000c92:	08c0      	lsrs	r0, r0, #3
 8000c94:	4302      	orrs	r2, r0
 8000c96:	08e4      	lsrs	r4, r4, #3
 8000c98:	e736      	b.n	8000b08 <__aeabi_dadd+0x39c>
 8000c9a:	0011      	movs	r1, r2
 8000c9c:	4653      	mov	r3, sl
 8000c9e:	3920      	subs	r1, #32
 8000ca0:	40cb      	lsrs	r3, r1
 8000ca2:	4699      	mov	r9, r3
 8000ca4:	2a20      	cmp	r2, #32
 8000ca6:	d006      	beq.n	8000cb6 <__aeabi_dadd+0x54a>
 8000ca8:	2140      	movs	r1, #64	@ 0x40
 8000caa:	4653      	mov	r3, sl
 8000cac:	1a8a      	subs	r2, r1, r2
 8000cae:	4093      	lsls	r3, r2
 8000cb0:	4662      	mov	r2, ip
 8000cb2:	431a      	orrs	r2, r3
 8000cb4:	4694      	mov	ip, r2
 8000cb6:	4665      	mov	r5, ip
 8000cb8:	1e6b      	subs	r3, r5, #1
 8000cba:	419d      	sbcs	r5, r3
 8000cbc:	464b      	mov	r3, r9
 8000cbe:	431d      	orrs	r5, r3
 8000cc0:	e659      	b.n	8000976 <__aeabi_dadd+0x20a>
 8000cc2:	0762      	lsls	r2, r4, #29
 8000cc4:	08c0      	lsrs	r0, r0, #3
 8000cc6:	4302      	orrs	r2, r0
 8000cc8:	08e4      	lsrs	r4, r4, #3
 8000cca:	e70d      	b.n	8000ae8 <__aeabi_dadd+0x37c>
 8000ccc:	4653      	mov	r3, sl
 8000cce:	075a      	lsls	r2, r3, #29
 8000cd0:	4663      	mov	r3, ip
 8000cd2:	08d8      	lsrs	r0, r3, #3
 8000cd4:	4653      	mov	r3, sl
 8000cd6:	000e      	movs	r6, r1
 8000cd8:	4302      	orrs	r2, r0
 8000cda:	08dc      	lsrs	r4, r3, #3
 8000cdc:	e714      	b.n	8000b08 <__aeabi_dadd+0x39c>
 8000cde:	0015      	movs	r5, r2
 8000ce0:	0026      	movs	r6, r4
 8000ce2:	3d20      	subs	r5, #32
 8000ce4:	40ee      	lsrs	r6, r5
 8000ce6:	2a20      	cmp	r2, #32
 8000ce8:	d003      	beq.n	8000cf2 <__aeabi_dadd+0x586>
 8000cea:	2540      	movs	r5, #64	@ 0x40
 8000cec:	1aaa      	subs	r2, r5, r2
 8000cee:	4094      	lsls	r4, r2
 8000cf0:	4320      	orrs	r0, r4
 8000cf2:	1e42      	subs	r2, r0, #1
 8000cf4:	4190      	sbcs	r0, r2
 8000cf6:	0005      	movs	r5, r0
 8000cf8:	4335      	orrs	r5, r6
 8000cfa:	e606      	b.n	800090a <__aeabi_dadd+0x19e>
 8000cfc:	2a00      	cmp	r2, #0
 8000cfe:	d07c      	beq.n	8000dfa <__aeabi_dadd+0x68e>
 8000d00:	4662      	mov	r2, ip
 8000d02:	4653      	mov	r3, sl
 8000d04:	08c0      	lsrs	r0, r0, #3
 8000d06:	431a      	orrs	r2, r3
 8000d08:	d100      	bne.n	8000d0c <__aeabi_dadd+0x5a0>
 8000d0a:	e6fa      	b.n	8000b02 <__aeabi_dadd+0x396>
 8000d0c:	0762      	lsls	r2, r4, #29
 8000d0e:	4310      	orrs	r0, r2
 8000d10:	2280      	movs	r2, #128	@ 0x80
 8000d12:	08e4      	lsrs	r4, r4, #3
 8000d14:	0312      	lsls	r2, r2, #12
 8000d16:	4214      	tst	r4, r2
 8000d18:	d008      	beq.n	8000d2c <__aeabi_dadd+0x5c0>
 8000d1a:	08d9      	lsrs	r1, r3, #3
 8000d1c:	4211      	tst	r1, r2
 8000d1e:	d105      	bne.n	8000d2c <__aeabi_dadd+0x5c0>
 8000d20:	4663      	mov	r3, ip
 8000d22:	08d8      	lsrs	r0, r3, #3
 8000d24:	4653      	mov	r3, sl
 8000d26:	000c      	movs	r4, r1
 8000d28:	075b      	lsls	r3, r3, #29
 8000d2a:	4318      	orrs	r0, r3
 8000d2c:	0f42      	lsrs	r2, r0, #29
 8000d2e:	00c0      	lsls	r0, r0, #3
 8000d30:	08c0      	lsrs	r0, r0, #3
 8000d32:	0752      	lsls	r2, r2, #29
 8000d34:	4302      	orrs	r2, r0
 8000d36:	e6e7      	b.n	8000b08 <__aeabi_dadd+0x39c>
 8000d38:	2a00      	cmp	r2, #0
 8000d3a:	d100      	bne.n	8000d3e <__aeabi_dadd+0x5d2>
 8000d3c:	e72d      	b.n	8000b9a <__aeabi_dadd+0x42e>
 8000d3e:	4663      	mov	r3, ip
 8000d40:	08d8      	lsrs	r0, r3, #3
 8000d42:	4653      	mov	r3, sl
 8000d44:	075a      	lsls	r2, r3, #29
 8000d46:	000e      	movs	r6, r1
 8000d48:	4302      	orrs	r2, r0
 8000d4a:	08dc      	lsrs	r4, r3, #3
 8000d4c:	e6cc      	b.n	8000ae8 <__aeabi_dadd+0x37c>
 8000d4e:	4663      	mov	r3, ip
 8000d50:	1a1d      	subs	r5, r3, r0
 8000d52:	45ac      	cmp	ip, r5
 8000d54:	4192      	sbcs	r2, r2
 8000d56:	4653      	mov	r3, sl
 8000d58:	4252      	negs	r2, r2
 8000d5a:	1b1c      	subs	r4, r3, r4
 8000d5c:	000e      	movs	r6, r1
 8000d5e:	4688      	mov	r8, r1
 8000d60:	1aa4      	subs	r4, r4, r2
 8000d62:	3701      	adds	r7, #1
 8000d64:	e555      	b.n	8000812 <__aeabi_dadd+0xa6>
 8000d66:	4663      	mov	r3, ip
 8000d68:	08d9      	lsrs	r1, r3, #3
 8000d6a:	4653      	mov	r3, sl
 8000d6c:	075a      	lsls	r2, r3, #29
 8000d6e:	430a      	orrs	r2, r1
 8000d70:	08dc      	lsrs	r4, r3, #3
 8000d72:	e6c9      	b.n	8000b08 <__aeabi_dadd+0x39c>
 8000d74:	4660      	mov	r0, ip
 8000d76:	4654      	mov	r4, sl
 8000d78:	e6d4      	b.n	8000b24 <__aeabi_dadd+0x3b8>
 8000d7a:	08c0      	lsrs	r0, r0, #3
 8000d7c:	2a00      	cmp	r2, #0
 8000d7e:	d100      	bne.n	8000d82 <__aeabi_dadd+0x616>
 8000d80:	e6bf      	b.n	8000b02 <__aeabi_dadd+0x396>
 8000d82:	0762      	lsls	r2, r4, #29
 8000d84:	4310      	orrs	r0, r2
 8000d86:	2280      	movs	r2, #128	@ 0x80
 8000d88:	08e4      	lsrs	r4, r4, #3
 8000d8a:	0312      	lsls	r2, r2, #12
 8000d8c:	4214      	tst	r4, r2
 8000d8e:	d0cd      	beq.n	8000d2c <__aeabi_dadd+0x5c0>
 8000d90:	08dd      	lsrs	r5, r3, #3
 8000d92:	4215      	tst	r5, r2
 8000d94:	d1ca      	bne.n	8000d2c <__aeabi_dadd+0x5c0>
 8000d96:	4663      	mov	r3, ip
 8000d98:	08d8      	lsrs	r0, r3, #3
 8000d9a:	4653      	mov	r3, sl
 8000d9c:	075b      	lsls	r3, r3, #29
 8000d9e:	000e      	movs	r6, r1
 8000da0:	002c      	movs	r4, r5
 8000da2:	4318      	orrs	r0, r3
 8000da4:	e7c2      	b.n	8000d2c <__aeabi_dadd+0x5c0>
 8000da6:	4663      	mov	r3, ip
 8000da8:	08d9      	lsrs	r1, r3, #3
 8000daa:	4653      	mov	r3, sl
 8000dac:	075a      	lsls	r2, r3, #29
 8000dae:	430a      	orrs	r2, r1
 8000db0:	08dc      	lsrs	r4, r3, #3
 8000db2:	e699      	b.n	8000ae8 <__aeabi_dadd+0x37c>
 8000db4:	4663      	mov	r3, ip
 8000db6:	08d8      	lsrs	r0, r3, #3
 8000db8:	4653      	mov	r3, sl
 8000dba:	075a      	lsls	r2, r3, #29
 8000dbc:	000e      	movs	r6, r1
 8000dbe:	4302      	orrs	r2, r0
 8000dc0:	08dc      	lsrs	r4, r3, #3
 8000dc2:	e6a1      	b.n	8000b08 <__aeabi_dadd+0x39c>
 8000dc4:	0011      	movs	r1, r2
 8000dc6:	0027      	movs	r7, r4
 8000dc8:	3920      	subs	r1, #32
 8000dca:	40cf      	lsrs	r7, r1
 8000dcc:	2a20      	cmp	r2, #32
 8000dce:	d003      	beq.n	8000dd8 <__aeabi_dadd+0x66c>
 8000dd0:	2140      	movs	r1, #64	@ 0x40
 8000dd2:	1a8a      	subs	r2, r1, r2
 8000dd4:	4094      	lsls	r4, r2
 8000dd6:	4320      	orrs	r0, r4
 8000dd8:	1e42      	subs	r2, r0, #1
 8000dda:	4190      	sbcs	r0, r2
 8000ddc:	0005      	movs	r5, r0
 8000dde:	433d      	orrs	r5, r7
 8000de0:	e651      	b.n	8000a86 <__aeabi_dadd+0x31a>
 8000de2:	000c      	movs	r4, r1
 8000de4:	2500      	movs	r5, #0
 8000de6:	2200      	movs	r2, #0
 8000de8:	e558      	b.n	800089c <__aeabi_dadd+0x130>
 8000dea:	4460      	add	r0, ip
 8000dec:	4560      	cmp	r0, ip
 8000dee:	4192      	sbcs	r2, r2
 8000df0:	4454      	add	r4, sl
 8000df2:	4252      	negs	r2, r2
 8000df4:	0005      	movs	r5, r0
 8000df6:	18a4      	adds	r4, r4, r2
 8000df8:	e73a      	b.n	8000c70 <__aeabi_dadd+0x504>
 8000dfa:	4653      	mov	r3, sl
 8000dfc:	075a      	lsls	r2, r3, #29
 8000dfe:	4663      	mov	r3, ip
 8000e00:	08d9      	lsrs	r1, r3, #3
 8000e02:	4653      	mov	r3, sl
 8000e04:	430a      	orrs	r2, r1
 8000e06:	08dc      	lsrs	r4, r3, #3
 8000e08:	e67e      	b.n	8000b08 <__aeabi_dadd+0x39c>
 8000e0a:	001a      	movs	r2, r3
 8000e0c:	001c      	movs	r4, r3
 8000e0e:	432a      	orrs	r2, r5
 8000e10:	d000      	beq.n	8000e14 <__aeabi_dadd+0x6a8>
 8000e12:	e6ab      	b.n	8000b6c <__aeabi_dadd+0x400>
 8000e14:	e6c1      	b.n	8000b9a <__aeabi_dadd+0x42e>
 8000e16:	2120      	movs	r1, #32
 8000e18:	2500      	movs	r5, #0
 8000e1a:	1a09      	subs	r1, r1, r0
 8000e1c:	e519      	b.n	8000852 <__aeabi_dadd+0xe6>
 8000e1e:	2200      	movs	r2, #0
 8000e20:	2500      	movs	r5, #0
 8000e22:	4c01      	ldr	r4, [pc, #4]	@ (8000e28 <__aeabi_dadd+0x6bc>)
 8000e24:	e53a      	b.n	800089c <__aeabi_dadd+0x130>
 8000e26:	46c0      	nop			@ (mov r8, r8)
 8000e28:	000007ff 	.word	0x000007ff
 8000e2c:	ff7fffff 	.word	0xff7fffff
 8000e30:	000007fe 	.word	0x000007fe

08000e34 <__aeabi_ddiv>:
 8000e34:	b5f0      	push	{r4, r5, r6, r7, lr}
 8000e36:	46de      	mov	lr, fp
 8000e38:	4645      	mov	r5, r8
 8000e3a:	4657      	mov	r7, sl
 8000e3c:	464e      	mov	r6, r9
 8000e3e:	b5e0      	push	{r5, r6, r7, lr}
 8000e40:	b087      	sub	sp, #28
 8000e42:	9200      	str	r2, [sp, #0]
 8000e44:	9301      	str	r3, [sp, #4]
 8000e46:	030b      	lsls	r3, r1, #12
 8000e48:	0b1b      	lsrs	r3, r3, #12
 8000e4a:	469b      	mov	fp, r3
 8000e4c:	0fca      	lsrs	r2, r1, #31
 8000e4e:	004b      	lsls	r3, r1, #1
 8000e50:	0004      	movs	r4, r0
 8000e52:	4680      	mov	r8, r0
 8000e54:	0d5b      	lsrs	r3, r3, #21
 8000e56:	9202      	str	r2, [sp, #8]
 8000e58:	d100      	bne.n	8000e5c <__aeabi_ddiv+0x28>
 8000e5a:	e16a      	b.n	8001132 <__aeabi_ddiv+0x2fe>
 8000e5c:	4ad4      	ldr	r2, [pc, #848]	@ (80011b0 <__aeabi_ddiv+0x37c>)
 8000e5e:	4293      	cmp	r3, r2
 8000e60:	d100      	bne.n	8000e64 <__aeabi_ddiv+0x30>
 8000e62:	e18c      	b.n	800117e <__aeabi_ddiv+0x34a>
 8000e64:	4659      	mov	r1, fp
 8000e66:	0f42      	lsrs	r2, r0, #29
 8000e68:	00c9      	lsls	r1, r1, #3
 8000e6a:	430a      	orrs	r2, r1
 8000e6c:	2180      	movs	r1, #128	@ 0x80
 8000e6e:	0409      	lsls	r1, r1, #16
 8000e70:	4311      	orrs	r1, r2
 8000e72:	00c2      	lsls	r2, r0, #3
 8000e74:	4690      	mov	r8, r2
 8000e76:	4acf      	ldr	r2, [pc, #828]	@ (80011b4 <__aeabi_ddiv+0x380>)
 8000e78:	4689      	mov	r9, r1
 8000e7a:	4692      	mov	sl, r2
 8000e7c:	449a      	add	sl, r3
 8000e7e:	2300      	movs	r3, #0
 8000e80:	2400      	movs	r4, #0
 8000e82:	9303      	str	r3, [sp, #12]
 8000e84:	9e00      	ldr	r6, [sp, #0]
 8000e86:	9f01      	ldr	r7, [sp, #4]
 8000e88:	033b      	lsls	r3, r7, #12
 8000e8a:	0b1b      	lsrs	r3, r3, #12
 8000e8c:	469b      	mov	fp, r3
 8000e8e:	007b      	lsls	r3, r7, #1
 8000e90:	0030      	movs	r0, r6
 8000e92:	0d5b      	lsrs	r3, r3, #21
 8000e94:	0ffd      	lsrs	r5, r7, #31
 8000e96:	2b00      	cmp	r3, #0
 8000e98:	d100      	bne.n	8000e9c <__aeabi_ddiv+0x68>
 8000e9a:	e128      	b.n	80010ee <__aeabi_ddiv+0x2ba>
 8000e9c:	4ac4      	ldr	r2, [pc, #784]	@ (80011b0 <__aeabi_ddiv+0x37c>)
 8000e9e:	4293      	cmp	r3, r2
 8000ea0:	d100      	bne.n	8000ea4 <__aeabi_ddiv+0x70>
 8000ea2:	e177      	b.n	8001194 <__aeabi_ddiv+0x360>
 8000ea4:	4659      	mov	r1, fp
 8000ea6:	0f72      	lsrs	r2, r6, #29
 8000ea8:	00c9      	lsls	r1, r1, #3
 8000eaa:	430a      	orrs	r2, r1
 8000eac:	2180      	movs	r1, #128	@ 0x80
 8000eae:	0409      	lsls	r1, r1, #16
 8000eb0:	4311      	orrs	r1, r2
 8000eb2:	468b      	mov	fp, r1
 8000eb4:	49bf      	ldr	r1, [pc, #764]	@ (80011b4 <__aeabi_ddiv+0x380>)
 8000eb6:	00f2      	lsls	r2, r6, #3
 8000eb8:	468c      	mov	ip, r1
 8000eba:	4651      	mov	r1, sl
 8000ebc:	4463      	add	r3, ip
 8000ebe:	1acb      	subs	r3, r1, r3
 8000ec0:	469a      	mov	sl, r3
 8000ec2:	2300      	movs	r3, #0
 8000ec4:	9e02      	ldr	r6, [sp, #8]
 8000ec6:	406e      	eors	r6, r5
 8000ec8:	2c0f      	cmp	r4, #15
 8000eca:	d827      	bhi.n	8000f1c <__aeabi_ddiv+0xe8>
 8000ecc:	49ba      	ldr	r1, [pc, #744]	@ (80011b8 <__aeabi_ddiv+0x384>)
 8000ece:	00a4      	lsls	r4, r4, #2
 8000ed0:	5909      	ldr	r1, [r1, r4]
 8000ed2:	468f      	mov	pc, r1
 8000ed4:	46cb      	mov	fp, r9
 8000ed6:	4642      	mov	r2, r8
 8000ed8:	9e02      	ldr	r6, [sp, #8]
 8000eda:	9b03      	ldr	r3, [sp, #12]
 8000edc:	2b02      	cmp	r3, #2
 8000ede:	d016      	beq.n	8000f0e <__aeabi_ddiv+0xda>
 8000ee0:	2b03      	cmp	r3, #3
 8000ee2:	d100      	bne.n	8000ee6 <__aeabi_ddiv+0xb2>
 8000ee4:	e2a6      	b.n	8001434 <__aeabi_ddiv+0x600>
 8000ee6:	2b01      	cmp	r3, #1
 8000ee8:	d000      	beq.n	8000eec <__aeabi_ddiv+0xb8>
 8000eea:	e0df      	b.n	80010ac <__aeabi_ddiv+0x278>
 8000eec:	2200      	movs	r2, #0
 8000eee:	2300      	movs	r3, #0
 8000ef0:	2400      	movs	r4, #0
 8000ef2:	4690      	mov	r8, r2
 8000ef4:	051b      	lsls	r3, r3, #20
 8000ef6:	4323      	orrs	r3, r4
 8000ef8:	07f6      	lsls	r6, r6, #31
 8000efa:	4333      	orrs	r3, r6
 8000efc:	4640      	mov	r0, r8
 8000efe:	0019      	movs	r1, r3
 8000f00:	b007      	add	sp, #28
 8000f02:	bcf0      	pop	{r4, r5, r6, r7}
 8000f04:	46bb      	mov	fp, r7
 8000f06:	46b2      	mov	sl, r6
 8000f08:	46a9      	mov	r9, r5
 8000f0a:	46a0      	mov	r8, r4
 8000f0c:	bdf0      	pop	{r4, r5, r6, r7, pc}
 8000f0e:	2200      	movs	r2, #0
 8000f10:	2400      	movs	r4, #0
 8000f12:	4690      	mov	r8, r2
 8000f14:	4ba6      	ldr	r3, [pc, #664]	@ (80011b0 <__aeabi_ddiv+0x37c>)
 8000f16:	e7ed      	b.n	8000ef4 <__aeabi_ddiv+0xc0>
 8000f18:	002e      	movs	r6, r5
 8000f1a:	e7df      	b.n	8000edc <__aeabi_ddiv+0xa8>
 8000f1c:	45cb      	cmp	fp, r9
 8000f1e:	d200      	bcs.n	8000f22 <__aeabi_ddiv+0xee>
 8000f20:	e1d4      	b.n	80012cc <__aeabi_ddiv+0x498>
 8000f22:	d100      	bne.n	8000f26 <__aeabi_ddiv+0xf2>
 8000f24:	e1cf      	b.n	80012c6 <__aeabi_ddiv+0x492>
 8000f26:	2301      	movs	r3, #1
 8000f28:	425b      	negs	r3, r3
 8000f2a:	469c      	mov	ip, r3
 8000f2c:	4644      	mov	r4, r8
 8000f2e:	4648      	mov	r0, r9
 8000f30:	2700      	movs	r7, #0
 8000f32:	44e2      	add	sl, ip
 8000f34:	465b      	mov	r3, fp
 8000f36:	0e15      	lsrs	r5, r2, #24
 8000f38:	021b      	lsls	r3, r3, #8
 8000f3a:	431d      	orrs	r5, r3
 8000f3c:	0c19      	lsrs	r1, r3, #16
 8000f3e:	042b      	lsls	r3, r5, #16
 8000f40:	0212      	lsls	r2, r2, #8
 8000f42:	9500      	str	r5, [sp, #0]
 8000f44:	0c1d      	lsrs	r5, r3, #16
 8000f46:	4691      	mov	r9, r2
 8000f48:	9102      	str	r1, [sp, #8]
 8000f4a:	9503      	str	r5, [sp, #12]
 8000f4c:	f7ff f97e 	bl	800024c <__aeabi_uidivmod>
 8000f50:	0002      	movs	r2, r0
 8000f52:	436a      	muls	r2, r5
 8000f54:	040b      	lsls	r3, r1, #16
 8000f56:	0c21      	lsrs	r1, r4, #16
 8000f58:	4680      	mov	r8, r0
 8000f5a:	4319      	orrs	r1, r3
 8000f5c:	428a      	cmp	r2, r1
 8000f5e:	d909      	bls.n	8000f74 <__aeabi_ddiv+0x140>
 8000f60:	9d00      	ldr	r5, [sp, #0]
 8000f62:	2301      	movs	r3, #1
 8000f64:	46ac      	mov	ip, r5
 8000f66:	425b      	negs	r3, r3
 8000f68:	4461      	add	r1, ip
 8000f6a:	469c      	mov	ip, r3
 8000f6c:	44e0      	add	r8, ip
 8000f6e:	428d      	cmp	r5, r1
 8000f70:	d800      	bhi.n	8000f74 <__aeabi_ddiv+0x140>
 8000f72:	e1fb      	b.n	800136c <__aeabi_ddiv+0x538>
 8000f74:	1a88      	subs	r0, r1, r2
 8000f76:	9902      	ldr	r1, [sp, #8]
 8000f78:	f7ff f968 	bl	800024c <__aeabi_uidivmod>
 8000f7c:	9a03      	ldr	r2, [sp, #12]
 8000f7e:	0424      	lsls	r4, r4, #16
 8000f80:	4342      	muls	r2, r0
 8000f82:	0409      	lsls	r1, r1, #16
 8000f84:	0c24      	lsrs	r4, r4, #16
 8000f86:	0003      	movs	r3, r0
 8000f88:	430c      	orrs	r4, r1
 8000f8a:	42a2      	cmp	r2, r4
 8000f8c:	d906      	bls.n	8000f9c <__aeabi_ddiv+0x168>
 8000f8e:	9900      	ldr	r1, [sp, #0]
 8000f90:	3b01      	subs	r3, #1
 8000f92:	468c      	mov	ip, r1
 8000f94:	4464      	add	r4, ip
 8000f96:	42a1      	cmp	r1, r4
 8000f98:	d800      	bhi.n	8000f9c <__aeabi_ddiv+0x168>
 8000f9a:	e1e1      	b.n	8001360 <__aeabi_ddiv+0x52c>
 8000f9c:	1aa0      	subs	r0, r4, r2
 8000f9e:	4642      	mov	r2, r8
 8000fa0:	0412      	lsls	r2, r2, #16
 8000fa2:	431a      	orrs	r2, r3
 8000fa4:	4693      	mov	fp, r2
 8000fa6:	464b      	mov	r3, r9
 8000fa8:	4659      	mov	r1, fp
 8000faa:	0c1b      	lsrs	r3, r3, #16
 8000fac:	001d      	movs	r5, r3
 8000fae:	9304      	str	r3, [sp, #16]
 8000fb0:	040b      	lsls	r3, r1, #16
 8000fb2:	4649      	mov	r1, r9
 8000fb4:	0409      	lsls	r1, r1, #16
 8000fb6:	0c09      	lsrs	r1, r1, #16
 8000fb8:	000c      	movs	r4, r1
 8000fba:	0c1b      	lsrs	r3, r3, #16
 8000fbc:	435c      	muls	r4, r3
 8000fbe:	0c12      	lsrs	r2, r2, #16
 8000fc0:	436b      	muls	r3, r5
 8000fc2:	4688      	mov	r8, r1
 8000fc4:	4351      	muls	r1, r2
 8000fc6:	436a      	muls	r2, r5
 8000fc8:	0c25      	lsrs	r5, r4, #16
 8000fca:	46ac      	mov	ip, r5
 8000fcc:	185b      	adds	r3, r3, r1
 8000fce:	4463      	add	r3, ip
 8000fd0:	4299      	cmp	r1, r3
 8000fd2:	d903      	bls.n	8000fdc <__aeabi_ddiv+0x1a8>
 8000fd4:	2180      	movs	r1, #128	@ 0x80
 8000fd6:	0249      	lsls	r1, r1, #9
 8000fd8:	468c      	mov	ip, r1
 8000fda:	4462      	add	r2, ip
 8000fdc:	0c19      	lsrs	r1, r3, #16
 8000fde:	0424      	lsls	r4, r4, #16
 8000fe0:	041b      	lsls	r3, r3, #16
 8000fe2:	0c24      	lsrs	r4, r4, #16
 8000fe4:	188a      	adds	r2, r1, r2
 8000fe6:	191c      	adds	r4, r3, r4
 8000fe8:	4290      	cmp	r0, r2
 8000fea:	d302      	bcc.n	8000ff2 <__aeabi_ddiv+0x1be>
 8000fec:	d116      	bne.n	800101c <__aeabi_ddiv+0x1e8>
 8000fee:	42a7      	cmp	r7, r4
 8000ff0:	d214      	bcs.n	800101c <__aeabi_ddiv+0x1e8>
 8000ff2:	465b      	mov	r3, fp
 8000ff4:	9d00      	ldr	r5, [sp, #0]
 8000ff6:	3b01      	subs	r3, #1
 8000ff8:	444f      	add	r7, r9
 8000ffa:	9305      	str	r3, [sp, #20]
 8000ffc:	454f      	cmp	r7, r9
 8000ffe:	419b      	sbcs	r3, r3
 8001000:	46ac      	mov	ip, r5
 8001002:	425b      	negs	r3, r3
 8001004:	4463      	add	r3, ip
 8001006:	18c0      	adds	r0, r0, r3
 8001008:	4285      	cmp	r5, r0
 800100a:	d300      	bcc.n	800100e <__aeabi_ddiv+0x1da>
 800100c:	e1a1      	b.n	8001352 <__aeabi_ddiv+0x51e>
 800100e:	4282      	cmp	r2, r0
 8001010:	d900      	bls.n	8001014 <__aeabi_ddiv+0x1e0>
 8001012:	e1f6      	b.n	8001402 <__aeabi_ddiv+0x5ce>
 8001014:	d100      	bne.n	8001018 <__aeabi_ddiv+0x1e4>
 8001016:	e1f1      	b.n	80013fc <__aeabi_ddiv+0x5c8>
 8001018:	9b05      	ldr	r3, [sp, #20]
 800101a:	469b      	mov	fp, r3
 800101c:	1b3c      	subs	r4, r7, r4
 800101e:	42a7      	cmp	r7, r4
 8001020:	41bf      	sbcs	r7, r7
 8001022:	9d00      	ldr	r5, [sp, #0]
 8001024:	1a80      	subs	r0, r0, r2
 8001026:	427f      	negs	r7, r7
 8001028:	1bc0      	subs	r0, r0, r7
 800102a:	4285      	cmp	r5, r0
 800102c:	d100      	bne.n	8001030 <__aeabi_ddiv+0x1fc>
 800102e:	e1d0      	b.n	80013d2 <__aeabi_ddiv+0x59e>
 8001030:	9902      	ldr	r1, [sp, #8]
 8001032:	f7ff f90b 	bl	800024c <__aeabi_uidivmod>
 8001036:	9a03      	ldr	r2, [sp, #12]
 8001038:	040b      	lsls	r3, r1, #16
 800103a:	4342      	muls	r2, r0
 800103c:	0c21      	lsrs	r1, r4, #16
 800103e:	0007      	movs	r7, r0
 8001040:	4319      	orrs	r1, r3
 8001042:	428a      	cmp	r2, r1
 8001044:	d900      	bls.n	8001048 <__aeabi_ddiv+0x214>
 8001046:	e178      	b.n	800133a <__aeabi_ddiv+0x506>
 8001048:	1a88      	subs	r0, r1, r2
 800104a:	9902      	ldr	r1, [sp, #8]
 800104c:	f7ff f8fe 	bl	800024c <__aeabi_uidivmod>
 8001050:	9a03      	ldr	r2, [sp, #12]
 8001052:	0424      	lsls	r4, r4, #16
 8001054:	4342      	muls	r2, r0
 8001056:	0409      	lsls	r1, r1, #16
 8001058:	0c24      	lsrs	r4, r4, #16
 800105a:	0003      	movs	r3, r0
 800105c:	430c      	orrs	r4, r1
 800105e:	42a2      	cmp	r2, r4
 8001060:	d900      	bls.n	8001064 <__aeabi_ddiv+0x230>
 8001062:	e15d      	b.n	8001320 <__aeabi_ddiv+0x4ec>
 8001064:	4641      	mov	r1, r8
 8001066:	1aa4      	subs	r4, r4, r2
 8001068:	043a      	lsls	r2, r7, #16
 800106a:	431a      	orrs	r2, r3
 800106c:	9d04      	ldr	r5, [sp, #16]
 800106e:	0413      	lsls	r3, r2, #16
 8001070:	0c1b      	lsrs	r3, r3, #16
 8001072:	4359      	muls	r1, r3
 8001074:	4647      	mov	r7, r8
 8001076:	436b      	muls	r3, r5
 8001078:	469c      	mov	ip, r3
 800107a:	0c10      	lsrs	r0, r2, #16
 800107c:	4347      	muls	r7, r0
 800107e:	0c0b      	lsrs	r3, r1, #16
 8001080:	44bc      	add	ip, r7
 8001082:	4463      	add	r3, ip
 8001084:	4368      	muls	r0, r5
 8001086:	429f      	cmp	r7, r3
 8001088:	d903      	bls.n	8001092 <__aeabi_ddiv+0x25e>
 800108a:	2580      	movs	r5, #128	@ 0x80
 800108c:	026d      	lsls	r5, r5, #9
 800108e:	46ac      	mov	ip, r5
 8001090:	4460      	add	r0, ip
 8001092:	0c1f      	lsrs	r7, r3, #16
 8001094:	0409      	lsls	r1, r1, #16
 8001096:	041b      	lsls	r3, r3, #16
 8001098:	0c09      	lsrs	r1, r1, #16
 800109a:	183f      	adds	r7, r7, r0
 800109c:	185b      	adds	r3, r3, r1
 800109e:	42bc      	cmp	r4, r7
 80010a0:	d200      	bcs.n	80010a4 <__aeabi_ddiv+0x270>
 80010a2:	e102      	b.n	80012aa <__aeabi_ddiv+0x476>
 80010a4:	d100      	bne.n	80010a8 <__aeabi_ddiv+0x274>
 80010a6:	e0fd      	b.n	80012a4 <__aeabi_ddiv+0x470>
 80010a8:	2301      	movs	r3, #1
 80010aa:	431a      	orrs	r2, r3
 80010ac:	4b43      	ldr	r3, [pc, #268]	@ (80011bc <__aeabi_ddiv+0x388>)
 80010ae:	4453      	add	r3, sl
 80010b0:	2b00      	cmp	r3, #0
 80010b2:	dc00      	bgt.n	80010b6 <__aeabi_ddiv+0x282>
 80010b4:	e0ae      	b.n	8001214 <__aeabi_ddiv+0x3e0>
 80010b6:	0751      	lsls	r1, r2, #29
 80010b8:	d000      	beq.n	80010bc <__aeabi_ddiv+0x288>
 80010ba:	e198      	b.n	80013ee <__aeabi_ddiv+0x5ba>
 80010bc:	4659      	mov	r1, fp
 80010be:	01c9      	lsls	r1, r1, #7
 80010c0:	d506      	bpl.n	80010d0 <__aeabi_ddiv+0x29c>
 80010c2:	4659      	mov	r1, fp
 80010c4:	4b3e      	ldr	r3, [pc, #248]	@ (80011c0 <__aeabi_ddiv+0x38c>)
 80010c6:	4019      	ands	r1, r3
 80010c8:	2380      	movs	r3, #128	@ 0x80
 80010ca:	468b      	mov	fp, r1
 80010cc:	00db      	lsls	r3, r3, #3
 80010ce:	4453      	add	r3, sl
 80010d0:	493c      	ldr	r1, [pc, #240]	@ (80011c4 <__aeabi_ddiv+0x390>)
 80010d2:	428b      	cmp	r3, r1
 80010d4:	dd00      	ble.n	80010d8 <__aeabi_ddiv+0x2a4>
 80010d6:	e71a      	b.n	8000f0e <__aeabi_ddiv+0xda>
 80010d8:	4659      	mov	r1, fp
 80010da:	08d2      	lsrs	r2, r2, #3
 80010dc:	0749      	lsls	r1, r1, #29
 80010de:	4311      	orrs	r1, r2
 80010e0:	465a      	mov	r2, fp
 80010e2:	055b      	lsls	r3, r3, #21
 80010e4:	0254      	lsls	r4, r2, #9
 80010e6:	4688      	mov	r8, r1
 80010e8:	0b24      	lsrs	r4, r4, #12
 80010ea:	0d5b      	lsrs	r3, r3, #21
 80010ec:	e702      	b.n	8000ef4 <__aeabi_ddiv+0xc0>
 80010ee:	465a      	mov	r2, fp
 80010f0:	9b00      	ldr	r3, [sp, #0]
 80010f2:	431a      	orrs	r2, r3
 80010f4:	d100      	bne.n	80010f8 <__aeabi_ddiv+0x2c4>
 80010f6:	e07e      	b.n	80011f6 <__aeabi_ddiv+0x3c2>
 80010f8:	465b      	mov	r3, fp
 80010fa:	2b00      	cmp	r3, #0
 80010fc:	d100      	bne.n	8001100 <__aeabi_ddiv+0x2cc>
 80010fe:	e100      	b.n	8001302 <__aeabi_ddiv+0x4ce>
 8001100:	4658      	mov	r0, fp
 8001102:	f001 fabb 	bl	800267c <__clzsi2>
 8001106:	0002      	movs	r2, r0
 8001108:	0003      	movs	r3, r0
 800110a:	3a0b      	subs	r2, #11
 800110c:	271d      	movs	r7, #29
 800110e:	9e00      	ldr	r6, [sp, #0]
 8001110:	1aba      	subs	r2, r7, r2
 8001112:	0019      	movs	r1, r3
 8001114:	4658      	mov	r0, fp
 8001116:	40d6      	lsrs	r6, r2
 8001118:	3908      	subs	r1, #8
 800111a:	4088      	lsls	r0, r1
 800111c:	0032      	movs	r2, r6
 800111e:	4302      	orrs	r2, r0
 8001120:	4693      	mov	fp, r2
 8001122:	9a00      	ldr	r2, [sp, #0]
 8001124:	408a      	lsls	r2, r1
 8001126:	4928      	ldr	r1, [pc, #160]	@ (80011c8 <__aeabi_ddiv+0x394>)
 8001128:	4453      	add	r3, sl
 800112a:	468a      	mov	sl, r1
 800112c:	449a      	add	sl, r3
 800112e:	2300      	movs	r3, #0
 8001130:	e6c8      	b.n	8000ec4 <__aeabi_ddiv+0x90>
 8001132:	465b      	mov	r3, fp
 8001134:	4303      	orrs	r3, r0
 8001136:	4699      	mov	r9, r3
 8001138:	d056      	beq.n	80011e8 <__aeabi_ddiv+0x3b4>
 800113a:	465b      	mov	r3, fp
 800113c:	2b00      	cmp	r3, #0
 800113e:	d100      	bne.n	8001142 <__aeabi_ddiv+0x30e>
 8001140:	e0cd      	b.n	80012de <__aeabi_ddiv+0x4aa>
 8001142:	4658      	mov	r0, fp
 8001144:	f001 fa9a 	bl	800267c <__clzsi2>
 8001148:	230b      	movs	r3, #11
 800114a:	425b      	negs	r3, r3
 800114c:	469c      	mov	ip, r3
 800114e:	0002      	movs	r2, r0
 8001150:	4484      	add	ip, r0
 8001152:	4666      	mov	r6, ip
 8001154:	231d      	movs	r3, #29
 8001156:	1b9b      	subs	r3, r3, r6
 8001158:	0026      	movs	r6, r4
 800115a:	0011      	movs	r1, r2
 800115c:	4658      	mov	r0, fp
 800115e:	40de      	lsrs	r6, r3
 8001160:	3908      	subs	r1, #8
 8001162:	4088      	lsls	r0, r1
 8001164:	0033      	movs	r3, r6
 8001166:	4303      	orrs	r3, r0
 8001168:	4699      	mov	r9, r3
 800116a:	0023      	movs	r3, r4
 800116c:	408b      	lsls	r3, r1
 800116e:	4698      	mov	r8, r3
 8001170:	4b16      	ldr	r3, [pc, #88]	@ (80011cc <__aeabi_ddiv+0x398>)
 8001172:	2400      	movs	r4, #0
 8001174:	1a9b      	subs	r3, r3, r2
 8001176:	469a      	mov	sl, r3
 8001178:	2300      	movs	r3, #0
 800117a:	9303      	str	r3, [sp, #12]
 800117c:	e682      	b.n	8000e84 <__aeabi_ddiv+0x50>
 800117e:	465a      	mov	r2, fp
 8001180:	4302      	orrs	r2, r0
 8001182:	4691      	mov	r9, r2
 8001184:	d12a      	bne.n	80011dc <__aeabi_ddiv+0x3a8>
 8001186:	2200      	movs	r2, #0
 8001188:	469a      	mov	sl, r3
 800118a:	2302      	movs	r3, #2
 800118c:	4690      	mov	r8, r2
 800118e:	2408      	movs	r4, #8
 8001190:	9303      	str	r3, [sp, #12]
 8001192:	e677      	b.n	8000e84 <__aeabi_ddiv+0x50>
 8001194:	465a      	mov	r2, fp
 8001196:	9b00      	ldr	r3, [sp, #0]
 8001198:	431a      	orrs	r2, r3
 800119a:	4b0d      	ldr	r3, [pc, #52]	@ (80011d0 <__aeabi_ddiv+0x39c>)
 800119c:	469c      	mov	ip, r3
 800119e:	44e2      	add	sl, ip
 80011a0:	2a00      	cmp	r2, #0
 80011a2:	d117      	bne.n	80011d4 <__aeabi_ddiv+0x3a0>
 80011a4:	2302      	movs	r3, #2
 80011a6:	431c      	orrs	r4, r3
 80011a8:	2300      	movs	r3, #0
 80011aa:	469b      	mov	fp, r3
 80011ac:	3302      	adds	r3, #2
 80011ae:	e689      	b.n	8000ec4 <__aeabi_ddiv+0x90>
 80011b0:	000007ff 	.word	0x000007ff
 80011b4:	fffffc01 	.word	0xfffffc01
 80011b8:	080072dc 	.word	0x080072dc
 80011bc:	000003ff 	.word	0x000003ff
 80011c0:	feffffff 	.word	0xfeffffff
 80011c4:	000007fe 	.word	0x000007fe
 80011c8:	000003f3 	.word	0x000003f3
 80011cc:	fffffc0d 	.word	0xfffffc0d
 80011d0:	fffff801 	.word	0xfffff801
 80011d4:	2303      	movs	r3, #3
 80011d6:	0032      	movs	r2, r6
 80011d8:	431c      	orrs	r4, r3
 80011da:	e673      	b.n	8000ec4 <__aeabi_ddiv+0x90>
 80011dc:	469a      	mov	sl, r3
 80011de:	2303      	movs	r3, #3
 80011e0:	46d9      	mov	r9, fp
 80011e2:	240c      	movs	r4, #12
 80011e4:	9303      	str	r3, [sp, #12]
 80011e6:	e64d      	b.n	8000e84 <__aeabi_ddiv+0x50>
 80011e8:	2300      	movs	r3, #0
 80011ea:	4698      	mov	r8, r3
 80011ec:	469a      	mov	sl, r3
 80011ee:	3301      	adds	r3, #1
 80011f0:	2404      	movs	r4, #4
 80011f2:	9303      	str	r3, [sp, #12]
 80011f4:	e646      	b.n	8000e84 <__aeabi_ddiv+0x50>
 80011f6:	2301      	movs	r3, #1
 80011f8:	431c      	orrs	r4, r3
 80011fa:	2300      	movs	r3, #0
 80011fc:	469b      	mov	fp, r3
 80011fe:	3301      	adds	r3, #1
 8001200:	e660      	b.n	8000ec4 <__aeabi_ddiv+0x90>
 8001202:	2300      	movs	r3, #0
 8001204:	2480      	movs	r4, #128	@ 0x80
 8001206:	4698      	mov	r8, r3
 8001208:	2600      	movs	r6, #0
 800120a:	4b92      	ldr	r3, [pc, #584]	@ (8001454 <__aeabi_ddiv+0x620>)
 800120c:	0324      	lsls	r4, r4, #12
 800120e:	e671      	b.n	8000ef4 <__aeabi_ddiv+0xc0>
 8001210:	2201      	movs	r2, #1
 8001212:	4252      	negs	r2, r2
 8001214:	2101      	movs	r1, #1
 8001216:	1ac9      	subs	r1, r1, r3
 8001218:	2938      	cmp	r1, #56	@ 0x38
 800121a:	dd00      	ble.n	800121e <__aeabi_ddiv+0x3ea>
 800121c:	e666      	b.n	8000eec <__aeabi_ddiv+0xb8>
 800121e:	291f      	cmp	r1, #31
 8001220:	dc00      	bgt.n	8001224 <__aeabi_ddiv+0x3f0>
 8001222:	e0ab      	b.n	800137c <__aeabi_ddiv+0x548>
 8001224:	201f      	movs	r0, #31
 8001226:	4240      	negs	r0, r0
 8001228:	1ac3      	subs	r3, r0, r3
 800122a:	4658      	mov	r0, fp
 800122c:	40d8      	lsrs	r0, r3
 800122e:	0003      	movs	r3, r0
 8001230:	2920      	cmp	r1, #32
 8001232:	d004      	beq.n	800123e <__aeabi_ddiv+0x40a>
 8001234:	4658      	mov	r0, fp
 8001236:	4988      	ldr	r1, [pc, #544]	@ (8001458 <__aeabi_ddiv+0x624>)
 8001238:	4451      	add	r1, sl
 800123a:	4088      	lsls	r0, r1
 800123c:	4302      	orrs	r2, r0
 800123e:	1e51      	subs	r1, r2, #1
 8001240:	418a      	sbcs	r2, r1
 8001242:	431a      	orrs	r2, r3
 8001244:	2307      	movs	r3, #7
 8001246:	0019      	movs	r1, r3
 8001248:	2400      	movs	r4, #0
 800124a:	4011      	ands	r1, r2
 800124c:	4213      	tst	r3, r2
 800124e:	d00c      	beq.n	800126a <__aeabi_ddiv+0x436>
 8001250:	230f      	movs	r3, #15
 8001252:	4013      	ands	r3, r2
 8001254:	2b04      	cmp	r3, #4
 8001256:	d100      	bne.n	800125a <__aeabi_ddiv+0x426>
 8001258:	e0f9      	b.n	800144e <__aeabi_ddiv+0x61a>
 800125a:	1d11      	adds	r1, r2, #4
 800125c:	4291      	cmp	r1, r2
 800125e:	419b      	sbcs	r3, r3
 8001260:	000a      	movs	r2, r1
 8001262:	425b      	negs	r3, r3
 8001264:	0759      	lsls	r1, r3, #29
 8001266:	025b      	lsls	r3, r3, #9
 8001268:	0b1c      	lsrs	r4, r3, #12
 800126a:	08d2      	lsrs	r2, r2, #3
 800126c:	430a      	orrs	r2, r1
 800126e:	4690      	mov	r8, r2
 8001270:	2300      	movs	r3, #0
 8001272:	e63f      	b.n	8000ef4 <__aeabi_ddiv+0xc0>
 8001274:	2480      	movs	r4, #128	@ 0x80
 8001276:	464b      	mov	r3, r9
 8001278:	0324      	lsls	r4, r4, #12
 800127a:	4223      	tst	r3, r4
 800127c:	d009      	beq.n	8001292 <__aeabi_ddiv+0x45e>
 800127e:	465b      	mov	r3, fp
 8001280:	4223      	tst	r3, r4
 8001282:	d106      	bne.n	8001292 <__aeabi_ddiv+0x45e>
 8001284:	431c      	orrs	r4, r3
 8001286:	0324      	lsls	r4, r4, #12
 8001288:	002e      	movs	r6, r5
 800128a:	4690      	mov	r8, r2
 800128c:	4b71      	ldr	r3, [pc, #452]	@ (8001454 <__aeabi_ddiv+0x620>)
 800128e:	0b24      	lsrs	r4, r4, #12
 8001290:	e630      	b.n	8000ef4 <__aeabi_ddiv+0xc0>
 8001292:	2480      	movs	r4, #128	@ 0x80
 8001294:	464b      	mov	r3, r9
 8001296:	0324      	lsls	r4, r4, #12
 8001298:	431c      	orrs	r4, r3
 800129a:	0324      	lsls	r4, r4, #12
 800129c:	9e02      	ldr	r6, [sp, #8]
 800129e:	4b6d      	ldr	r3, [pc, #436]	@ (8001454 <__aeabi_ddiv+0x620>)
 80012a0:	0b24      	lsrs	r4, r4, #12
 80012a2:	e627      	b.n	8000ef4 <__aeabi_ddiv+0xc0>
 80012a4:	2b00      	cmp	r3, #0
 80012a6:	d100      	bne.n	80012aa <__aeabi_ddiv+0x476>
 80012a8:	e700      	b.n	80010ac <__aeabi_ddiv+0x278>
 80012aa:	9800      	ldr	r0, [sp, #0]
 80012ac:	1e51      	subs	r1, r2, #1
 80012ae:	4684      	mov	ip, r0
 80012b0:	4464      	add	r4, ip
 80012b2:	4284      	cmp	r4, r0
 80012b4:	d200      	bcs.n	80012b8 <__aeabi_ddiv+0x484>
 80012b6:	e084      	b.n	80013c2 <__aeabi_ddiv+0x58e>
 80012b8:	42bc      	cmp	r4, r7
 80012ba:	d200      	bcs.n	80012be <__aeabi_ddiv+0x48a>
 80012bc:	e0ae      	b.n	800141c <__aeabi_ddiv+0x5e8>
 80012be:	d100      	bne.n	80012c2 <__aeabi_ddiv+0x48e>
 80012c0:	e0c1      	b.n	8001446 <__aeabi_ddiv+0x612>
 80012c2:	000a      	movs	r2, r1
 80012c4:	e6f0      	b.n	80010a8 <__aeabi_ddiv+0x274>
 80012c6:	4542      	cmp	r2, r8
 80012c8:	d900      	bls.n	80012cc <__aeabi_ddiv+0x498>
 80012ca:	e62c      	b.n	8000f26 <__aeabi_ddiv+0xf2>
 80012cc:	464b      	mov	r3, r9
 80012ce:	07dc      	lsls	r4, r3, #31
 80012d0:	0858      	lsrs	r0, r3, #1
 80012d2:	4643      	mov	r3, r8
 80012d4:	085b      	lsrs	r3, r3, #1
 80012d6:	431c      	orrs	r4, r3
 80012d8:	4643      	mov	r3, r8
 80012da:	07df      	lsls	r7, r3, #31
 80012dc:	e62a      	b.n	8000f34 <__aeabi_ddiv+0x100>
 80012de:	f001 f9cd 	bl	800267c <__clzsi2>
 80012e2:	2315      	movs	r3, #21
 80012e4:	469c      	mov	ip, r3
 80012e6:	4484      	add	ip, r0
 80012e8:	0002      	movs	r2, r0
 80012ea:	4663      	mov	r3, ip
 80012ec:	3220      	adds	r2, #32
 80012ee:	2b1c      	cmp	r3, #28
 80012f0:	dc00      	bgt.n	80012f4 <__aeabi_ddiv+0x4c0>
 80012f2:	e72e      	b.n	8001152 <__aeabi_ddiv+0x31e>
 80012f4:	0023      	movs	r3, r4
 80012f6:	3808      	subs	r0, #8
 80012f8:	4083      	lsls	r3, r0
 80012fa:	4699      	mov	r9, r3
 80012fc:	2300      	movs	r3, #0
 80012fe:	4698      	mov	r8, r3
 8001300:	e736      	b.n	8001170 <__aeabi_ddiv+0x33c>
 8001302:	f001 f9bb 	bl	800267c <__clzsi2>
 8001306:	0002      	movs	r2, r0
 8001308:	0003      	movs	r3, r0
 800130a:	3215      	adds	r2, #21
 800130c:	3320      	adds	r3, #32
 800130e:	2a1c      	cmp	r2, #28
 8001310:	dc00      	bgt.n	8001314 <__aeabi_ddiv+0x4e0>
 8001312:	e6fb      	b.n	800110c <__aeabi_ddiv+0x2d8>
 8001314:	9900      	ldr	r1, [sp, #0]
 8001316:	3808      	subs	r0, #8
 8001318:	4081      	lsls	r1, r0
 800131a:	2200      	movs	r2, #0
 800131c:	468b      	mov	fp, r1
 800131e:	e702      	b.n	8001126 <__aeabi_ddiv+0x2f2>
 8001320:	9900      	ldr	r1, [sp, #0]
 8001322:	3b01      	subs	r3, #1
 8001324:	468c      	mov	ip, r1
 8001326:	4464      	add	r4, ip
 8001328:	42a1      	cmp	r1, r4
 800132a:	d900      	bls.n	800132e <__aeabi_ddiv+0x4fa>
 800132c:	e69a      	b.n	8001064 <__aeabi_ddiv+0x230>
 800132e:	42a2      	cmp	r2, r4
 8001330:	d800      	bhi.n	8001334 <__aeabi_ddiv+0x500>
 8001332:	e697      	b.n	8001064 <__aeabi_ddiv+0x230>
 8001334:	1e83      	subs	r3, r0, #2
 8001336:	4464      	add	r4, ip
 8001338:	e694      	b.n	8001064 <__aeabi_ddiv+0x230>
 800133a:	46ac      	mov	ip, r5
 800133c:	4461      	add	r1, ip
 800133e:	3f01      	subs	r7, #1
 8001340:	428d      	cmp	r5, r1
 8001342:	d900      	bls.n	8001346 <__aeabi_ddiv+0x512>
 8001344:	e680      	b.n	8001048 <__aeabi_ddiv+0x214>
 8001346:	428a      	cmp	r2, r1
 8001348:	d800      	bhi.n	800134c <__aeabi_ddiv+0x518>
 800134a:	e67d      	b.n	8001048 <__aeabi_ddiv+0x214>
 800134c:	1e87      	subs	r7, r0, #2
 800134e:	4461      	add	r1, ip
 8001350:	e67a      	b.n	8001048 <__aeabi_ddiv+0x214>
 8001352:	4285      	cmp	r5, r0
 8001354:	d000      	beq.n	8001358 <__aeabi_ddiv+0x524>
 8001356:	e65f      	b.n	8001018 <__aeabi_ddiv+0x1e4>
 8001358:	45b9      	cmp	r9, r7
 800135a:	d900      	bls.n	800135e <__aeabi_ddiv+0x52a>
 800135c:	e65c      	b.n	8001018 <__aeabi_ddiv+0x1e4>
 800135e:	e656      	b.n	800100e <__aeabi_ddiv+0x1da>
 8001360:	42a2      	cmp	r2, r4
 8001362:	d800      	bhi.n	8001366 <__aeabi_ddiv+0x532>
 8001364:	e61a      	b.n	8000f9c <__aeabi_ddiv+0x168>
 8001366:	1e83      	subs	r3, r0, #2
 8001368:	4464      	add	r4, ip
 800136a:	e617      	b.n	8000f9c <__aeabi_ddiv+0x168>
 800136c:	428a      	cmp	r2, r1
 800136e:	d800      	bhi.n	8001372 <__aeabi_ddiv+0x53e>
 8001370:	e600      	b.n	8000f74 <__aeabi_ddiv+0x140>
 8001372:	46ac      	mov	ip, r5
 8001374:	1e83      	subs	r3, r0, #2
 8001376:	4698      	mov	r8, r3
 8001378:	4461      	add	r1, ip
 800137a:	e5fb      	b.n	8000f74 <__aeabi_ddiv+0x140>
 800137c:	4837      	ldr	r0, [pc, #220]	@ (800145c <__aeabi_ddiv+0x628>)
 800137e:	0014      	movs	r4, r2
 8001380:	4450      	add	r0, sl
 8001382:	4082      	lsls	r2, r0
 8001384:	465b      	mov	r3, fp
 8001386:	0017      	movs	r7, r2
 8001388:	4083      	lsls	r3, r0
 800138a:	40cc      	lsrs	r4, r1
 800138c:	1e7a      	subs	r2, r7, #1
 800138e:	4197      	sbcs	r7, r2
 8001390:	4323      	orrs	r3, r4
 8001392:	433b      	orrs	r3, r7
 8001394:	001a      	movs	r2, r3
 8001396:	465b      	mov	r3, fp
 8001398:	40cb      	lsrs	r3, r1
 800139a:	0751      	lsls	r1, r2, #29
 800139c:	d009      	beq.n	80013b2 <__aeabi_ddiv+0x57e>
 800139e:	210f      	movs	r1, #15
 80013a0:	4011      	ands	r1, r2
 80013a2:	2904      	cmp	r1, #4
 80013a4:	d005      	beq.n	80013b2 <__aeabi_ddiv+0x57e>
 80013a6:	1d11      	adds	r1, r2, #4
 80013a8:	4291      	cmp	r1, r2
 80013aa:	4192      	sbcs	r2, r2
 80013ac:	4252      	negs	r2, r2
 80013ae:	189b      	adds	r3, r3, r2
 80013b0:	000a      	movs	r2, r1
 80013b2:	0219      	lsls	r1, r3, #8
 80013b4:	d400      	bmi.n	80013b8 <__aeabi_ddiv+0x584>
 80013b6:	e755      	b.n	8001264 <__aeabi_ddiv+0x430>
 80013b8:	2200      	movs	r2, #0
 80013ba:	2301      	movs	r3, #1
 80013bc:	2400      	movs	r4, #0
 80013be:	4690      	mov	r8, r2
 80013c0:	e598      	b.n	8000ef4 <__aeabi_ddiv+0xc0>
 80013c2:	000a      	movs	r2, r1
 80013c4:	42bc      	cmp	r4, r7
 80013c6:	d000      	beq.n	80013ca <__aeabi_ddiv+0x596>
 80013c8:	e66e      	b.n	80010a8 <__aeabi_ddiv+0x274>
 80013ca:	454b      	cmp	r3, r9
 80013cc:	d000      	beq.n	80013d0 <__aeabi_ddiv+0x59c>
 80013ce:	e66b      	b.n	80010a8 <__aeabi_ddiv+0x274>
 80013d0:	e66c      	b.n	80010ac <__aeabi_ddiv+0x278>
 80013d2:	4b23      	ldr	r3, [pc, #140]	@ (8001460 <__aeabi_ddiv+0x62c>)
 80013d4:	4a23      	ldr	r2, [pc, #140]	@ (8001464 <__aeabi_ddiv+0x630>)
 80013d6:	4453      	add	r3, sl
 80013d8:	4592      	cmp	sl, r2
 80013da:	da00      	bge.n	80013de <__aeabi_ddiv+0x5aa>
 80013dc:	e718      	b.n	8001210 <__aeabi_ddiv+0x3dc>
 80013de:	2101      	movs	r1, #1
 80013e0:	4249      	negs	r1, r1
 80013e2:	1d0a      	adds	r2, r1, #4
 80013e4:	428a      	cmp	r2, r1
 80013e6:	4189      	sbcs	r1, r1
 80013e8:	4249      	negs	r1, r1
 80013ea:	448b      	add	fp, r1
 80013ec:	e666      	b.n	80010bc <__aeabi_ddiv+0x288>
 80013ee:	210f      	movs	r1, #15
 80013f0:	4011      	ands	r1, r2
 80013f2:	2904      	cmp	r1, #4
 80013f4:	d100      	bne.n	80013f8 <__aeabi_ddiv+0x5c4>
 80013f6:	e661      	b.n	80010bc <__aeabi_ddiv+0x288>
 80013f8:	0011      	movs	r1, r2
 80013fa:	e7f2      	b.n	80013e2 <__aeabi_ddiv+0x5ae>
 80013fc:	42bc      	cmp	r4, r7
 80013fe:	d800      	bhi.n	8001402 <__aeabi_ddiv+0x5ce>
 8001400:	e60a      	b.n	8001018 <__aeabi_ddiv+0x1e4>
 8001402:	2302      	movs	r3, #2
 8001404:	425b      	negs	r3, r3
 8001406:	469c      	mov	ip, r3
 8001408:	9900      	ldr	r1, [sp, #0]
 800140a:	444f      	add	r7, r9
 800140c:	454f      	cmp	r7, r9
 800140e:	419b      	sbcs	r3, r3
 8001410:	44e3      	add	fp, ip
 8001412:	468c      	mov	ip, r1
 8001414:	425b      	negs	r3, r3
 8001416:	4463      	add	r3, ip
 8001418:	18c0      	adds	r0, r0, r3
 800141a:	e5ff      	b.n	800101c <__aeabi_ddiv+0x1e8>
 800141c:	4649      	mov	r1, r9
 800141e:	9d00      	ldr	r5, [sp, #0]
 8001420:	0048      	lsls	r0, r1, #1
 8001422:	4548      	cmp	r0, r9
 8001424:	4189      	sbcs	r1, r1
 8001426:	46ac      	mov	ip, r5
 8001428:	4249      	negs	r1, r1
 800142a:	4461      	add	r1, ip
 800142c:	4681      	mov	r9, r0
 800142e:	3a02      	subs	r2, #2
 8001430:	1864      	adds	r4, r4, r1
 8001432:	e7c7      	b.n	80013c4 <__aeabi_ddiv+0x590>
 8001434:	2480      	movs	r4, #128	@ 0x80
 8001436:	465b      	mov	r3, fp
 8001438:	0324      	lsls	r4, r4, #12
 800143a:	431c      	orrs	r4, r3
 800143c:	0324      	lsls	r4, r4, #12
 800143e:	4690      	mov	r8, r2
 8001440:	4b04      	ldr	r3, [pc, #16]	@ (8001454 <__aeabi_ddiv+0x620>)
 8001442:	0b24      	lsrs	r4, r4, #12
 8001444:	e556      	b.n	8000ef4 <__aeabi_ddiv+0xc0>
 8001446:	4599      	cmp	r9, r3
 8001448:	d3e8      	bcc.n	800141c <__aeabi_ddiv+0x5e8>
 800144a:	000a      	movs	r2, r1
 800144c:	e7bd      	b.n	80013ca <__aeabi_ddiv+0x596>
 800144e:	2300      	movs	r3, #0
 8001450:	e708      	b.n	8001264 <__aeabi_ddiv+0x430>
 8001452:	46c0      	nop			@ (mov r8, r8)
 8001454:	000007ff 	.word	0x000007ff
 8001458:	0000043e 	.word	0x0000043e
 800145c:	0000041e 	.word	0x0000041e
 8001460:	000003ff 	.word	0x000003ff
 8001464:	fffffc02 	.word	0xfffffc02

08001468 <__eqdf2>:
 8001468:	b5f0      	push	{r4, r5, r6, r7, lr}
 800146a:	4657      	mov	r7, sl
 800146c:	46de      	mov	lr, fp
 800146e:	464e      	mov	r6, r9
 8001470:	4645      	mov	r5, r8
 8001472:	b5e0      	push	{r5, r6, r7, lr}
 8001474:	000d      	movs	r5, r1
 8001476:	0004      	movs	r4, r0
 8001478:	0fe8      	lsrs	r0, r5, #31
 800147a:	4683      	mov	fp, r0
 800147c:	0309      	lsls	r1, r1, #12
 800147e:	0fd8      	lsrs	r0, r3, #31
 8001480:	0b09      	lsrs	r1, r1, #12
 8001482:	4682      	mov	sl, r0
 8001484:	4819      	ldr	r0, [pc, #100]	@ (80014ec <__eqdf2+0x84>)
 8001486:	468c      	mov	ip, r1
 8001488:	031f      	lsls	r7, r3, #12
 800148a:	0069      	lsls	r1, r5, #1
 800148c:	005e      	lsls	r6, r3, #1
 800148e:	0d49      	lsrs	r1, r1, #21
 8001490:	0b3f      	lsrs	r7, r7, #12
 8001492:	0d76      	lsrs	r6, r6, #21
 8001494:	4281      	cmp	r1, r0
 8001496:	d018      	beq.n	80014ca <__eqdf2+0x62>
 8001498:	4286      	cmp	r6, r0
 800149a:	d00f      	beq.n	80014bc <__eqdf2+0x54>
 800149c:	2001      	movs	r0, #1
 800149e:	42b1      	cmp	r1, r6
 80014a0:	d10d      	bne.n	80014be <__eqdf2+0x56>
 80014a2:	45bc      	cmp	ip, r7
 80014a4:	d10b      	bne.n	80014be <__eqdf2+0x56>
 80014a6:	4294      	cmp	r4, r2
 80014a8:	d109      	bne.n	80014be <__eqdf2+0x56>
 80014aa:	45d3      	cmp	fp, sl
 80014ac:	d01c      	beq.n	80014e8 <__eqdf2+0x80>
 80014ae:	2900      	cmp	r1, #0
 80014b0:	d105      	bne.n	80014be <__eqdf2+0x56>
 80014b2:	4660      	mov	r0, ip
 80014b4:	4320      	orrs	r0, r4
 80014b6:	1e43      	subs	r3, r0, #1
 80014b8:	4198      	sbcs	r0, r3
 80014ba:	e000      	b.n	80014be <__eqdf2+0x56>
 80014bc:	2001      	movs	r0, #1
 80014be:	bcf0      	pop	{r4, r5, r6, r7}
 80014c0:	46bb      	mov	fp, r7
 80014c2:	46b2      	mov	sl, r6
 80014c4:	46a9      	mov	r9, r5
 80014c6:	46a0      	mov	r8, r4
 80014c8:	bdf0      	pop	{r4, r5, r6, r7, pc}
 80014ca:	2001      	movs	r0, #1
 80014cc:	428e      	cmp	r6, r1
 80014ce:	d1f6      	bne.n	80014be <__eqdf2+0x56>
 80014d0:	4661      	mov	r1, ip
 80014d2:	4339      	orrs	r1, r7
 80014d4:	000f      	movs	r7, r1
 80014d6:	4317      	orrs	r7, r2
 80014d8:	4327      	orrs	r7, r4
 80014da:	d1f0      	bne.n	80014be <__eqdf2+0x56>
 80014dc:	465b      	mov	r3, fp
 80014de:	4652      	mov	r2, sl
 80014e0:	1a98      	subs	r0, r3, r2
 80014e2:	1e43      	subs	r3, r0, #1
 80014e4:	4198      	sbcs	r0, r3
 80014e6:	e7ea      	b.n	80014be <__eqdf2+0x56>
 80014e8:	2000      	movs	r0, #0
 80014ea:	e7e8      	b.n	80014be <__eqdf2+0x56>
 80014ec:	000007ff 	.word	0x000007ff

080014f0 <__gedf2>:
 80014f0:	b5f0      	push	{r4, r5, r6, r7, lr}
 80014f2:	4657      	mov	r7, sl
 80014f4:	464e      	mov	r6, r9
 80014f6:	4645      	mov	r5, r8
 80014f8:	46de      	mov	lr, fp
 80014fa:	b5e0      	push	{r5, r6, r7, lr}
 80014fc:	000d      	movs	r5, r1
 80014fe:	030f      	lsls	r7, r1, #12
 8001500:	0b39      	lsrs	r1, r7, #12
 8001502:	b083      	sub	sp, #12
 8001504:	0004      	movs	r4, r0
 8001506:	4680      	mov	r8, r0
 8001508:	9101      	str	r1, [sp, #4]
 800150a:	0058      	lsls	r0, r3, #1
 800150c:	0fe9      	lsrs	r1, r5, #31
 800150e:	4f31      	ldr	r7, [pc, #196]	@ (80015d4 <__gedf2+0xe4>)
 8001510:	0d40      	lsrs	r0, r0, #21
 8001512:	468c      	mov	ip, r1
 8001514:	006e      	lsls	r6, r5, #1
 8001516:	0319      	lsls	r1, r3, #12
 8001518:	4682      	mov	sl, r0
 800151a:	4691      	mov	r9, r2
 800151c:	0d76      	lsrs	r6, r6, #21
 800151e:	0b09      	lsrs	r1, r1, #12
 8001520:	0fd8      	lsrs	r0, r3, #31
 8001522:	42be      	cmp	r6, r7
 8001524:	d01f      	beq.n	8001566 <__gedf2+0x76>
 8001526:	45ba      	cmp	sl, r7
 8001528:	d00f      	beq.n	800154a <__gedf2+0x5a>
 800152a:	2e00      	cmp	r6, #0
 800152c:	d12f      	bne.n	800158e <__gedf2+0x9e>
 800152e:	4655      	mov	r5, sl
 8001530:	9e01      	ldr	r6, [sp, #4]
 8001532:	4334      	orrs	r4, r6
 8001534:	2d00      	cmp	r5, #0
 8001536:	d127      	bne.n	8001588 <__gedf2+0x98>
 8001538:	430a      	orrs	r2, r1
 800153a:	d03a      	beq.n	80015b2 <__gedf2+0xc2>
 800153c:	2c00      	cmp	r4, #0
 800153e:	d145      	bne.n	80015cc <__gedf2+0xdc>
 8001540:	2800      	cmp	r0, #0
 8001542:	d11a      	bne.n	800157a <__gedf2+0x8a>
 8001544:	2001      	movs	r0, #1
 8001546:	4240      	negs	r0, r0
 8001548:	e017      	b.n	800157a <__gedf2+0x8a>
 800154a:	4311      	orrs	r1, r2
 800154c:	d13b      	bne.n	80015c6 <__gedf2+0xd6>
 800154e:	2e00      	cmp	r6, #0
 8001550:	d102      	bne.n	8001558 <__gedf2+0x68>
 8001552:	9f01      	ldr	r7, [sp, #4]
 8001554:	4327      	orrs	r7, r4
 8001556:	d0f3      	beq.n	8001540 <__gedf2+0x50>
 8001558:	4584      	cmp	ip, r0
 800155a:	d109      	bne.n	8001570 <__gedf2+0x80>
 800155c:	4663      	mov	r3, ip
 800155e:	2b00      	cmp	r3, #0
 8001560:	d0f0      	beq.n	8001544 <__gedf2+0x54>
 8001562:	4660      	mov	r0, ip
 8001564:	e009      	b.n	800157a <__gedf2+0x8a>
 8001566:	9f01      	ldr	r7, [sp, #4]
 8001568:	4327      	orrs	r7, r4
 800156a:	d12c      	bne.n	80015c6 <__gedf2+0xd6>
 800156c:	45b2      	cmp	sl, r6
 800156e:	d024      	beq.n	80015ba <__gedf2+0xca>
 8001570:	4663      	mov	r3, ip
 8001572:	2002      	movs	r0, #2
 8001574:	3b01      	subs	r3, #1
 8001576:	4018      	ands	r0, r3
 8001578:	3801      	subs	r0, #1
 800157a:	b003      	add	sp, #12
 800157c:	bcf0      	pop	{r4, r5, r6, r7}
 800157e:	46bb      	mov	fp, r7
 8001580:	46b2      	mov	sl, r6
 8001582:	46a9      	mov	r9, r5
 8001584:	46a0      	mov	r8, r4
 8001586:	bdf0      	pop	{r4, r5, r6, r7, pc}
 8001588:	2c00      	cmp	r4, #0
 800158a:	d0d9      	beq.n	8001540 <__gedf2+0x50>
 800158c:	e7e4      	b.n	8001558 <__gedf2+0x68>
 800158e:	4654      	mov	r4, sl
 8001590:	2c00      	cmp	r4, #0
 8001592:	d0ed      	beq.n	8001570 <__gedf2+0x80>
 8001594:	4584      	cmp	ip, r0
 8001596:	d1eb      	bne.n	8001570 <__gedf2+0x80>
 8001598:	4556      	cmp	r6, sl
 800159a:	dce9      	bgt.n	8001570 <__gedf2+0x80>
 800159c:	dbde      	blt.n	800155c <__gedf2+0x6c>
 800159e:	9b01      	ldr	r3, [sp, #4]
 80015a0:	428b      	cmp	r3, r1
 80015a2:	d8e5      	bhi.n	8001570 <__gedf2+0x80>
 80015a4:	d1da      	bne.n	800155c <__gedf2+0x6c>
 80015a6:	45c8      	cmp	r8, r9
 80015a8:	d8e2      	bhi.n	8001570 <__gedf2+0x80>
 80015aa:	2000      	movs	r0, #0
 80015ac:	45c8      	cmp	r8, r9
 80015ae:	d2e4      	bcs.n	800157a <__gedf2+0x8a>
 80015b0:	e7d4      	b.n	800155c <__gedf2+0x6c>
 80015b2:	2000      	movs	r0, #0
 80015b4:	2c00      	cmp	r4, #0
 80015b6:	d0e0      	beq.n	800157a <__gedf2+0x8a>
 80015b8:	e7da      	b.n	8001570 <__gedf2+0x80>
 80015ba:	4311      	orrs	r1, r2
 80015bc:	d103      	bne.n	80015c6 <__gedf2+0xd6>
 80015be:	4584      	cmp	ip, r0
 80015c0:	d1d6      	bne.n	8001570 <__gedf2+0x80>
 80015c2:	2000      	movs	r0, #0
 80015c4:	e7d9      	b.n	800157a <__gedf2+0x8a>
 80015c6:	2002      	movs	r0, #2
 80015c8:	4240      	negs	r0, r0
 80015ca:	e7d6      	b.n	800157a <__gedf2+0x8a>
 80015cc:	4584      	cmp	ip, r0
 80015ce:	d0e6      	beq.n	800159e <__gedf2+0xae>
 80015d0:	e7ce      	b.n	8001570 <__gedf2+0x80>
 80015d2:	46c0      	nop			@ (mov r8, r8)
 80015d4:	000007ff 	.word	0x000007ff

080015d8 <__ledf2>:
 80015d8:	b5f0      	push	{r4, r5, r6, r7, lr}
 80015da:	4657      	mov	r7, sl
 80015dc:	464e      	mov	r6, r9
 80015de:	4645      	mov	r5, r8
 80015e0:	46de      	mov	lr, fp
 80015e2:	b5e0      	push	{r5, r6, r7, lr}
 80015e4:	000d      	movs	r5, r1
 80015e6:	030f      	lsls	r7, r1, #12
 80015e8:	0004      	movs	r4, r0
 80015ea:	4680      	mov	r8, r0
 80015ec:	0fe8      	lsrs	r0, r5, #31
 80015ee:	0b39      	lsrs	r1, r7, #12
 80015f0:	4684      	mov	ip, r0
 80015f2:	b083      	sub	sp, #12
 80015f4:	0058      	lsls	r0, r3, #1
 80015f6:	4f30      	ldr	r7, [pc, #192]	@ (80016b8 <__ledf2+0xe0>)
 80015f8:	0d40      	lsrs	r0, r0, #21
 80015fa:	9101      	str	r1, [sp, #4]
 80015fc:	031e      	lsls	r6, r3, #12
 80015fe:	0069      	lsls	r1, r5, #1
 8001600:	4682      	mov	sl, r0
 8001602:	4691      	mov	r9, r2
 8001604:	0d49      	lsrs	r1, r1, #21
 8001606:	0b36      	lsrs	r6, r6, #12
 8001608:	0fd8      	lsrs	r0, r3, #31
 800160a:	42b9      	cmp	r1, r7
 800160c:	d020      	beq.n	8001650 <__ledf2+0x78>
 800160e:	45ba      	cmp	sl, r7
 8001610:	d00f      	beq.n	8001632 <__ledf2+0x5a>
 8001612:	2900      	cmp	r1, #0
 8001614:	d12b      	bne.n	800166e <__ledf2+0x96>
 8001616:	9901      	ldr	r1, [sp, #4]
 8001618:	430c      	orrs	r4, r1
 800161a:	4651      	mov	r1, sl
 800161c:	2900      	cmp	r1, #0
 800161e:	d137      	bne.n	8001690 <__ledf2+0xb8>
 8001620:	4332      	orrs	r2, r6
 8001622:	d038      	beq.n	8001696 <__ledf2+0xbe>
 8001624:	2c00      	cmp	r4, #0
 8001626:	d144      	bne.n	80016b2 <__ledf2+0xda>
 8001628:	2800      	cmp	r0, #0
 800162a:	d119      	bne.n	8001660 <__ledf2+0x88>
 800162c:	2001      	movs	r0, #1
 800162e:	4240      	negs	r0, r0
 8001630:	e016      	b.n	8001660 <__ledf2+0x88>
 8001632:	4316      	orrs	r6, r2
 8001634:	d113      	bne.n	800165e <__ledf2+0x86>
 8001636:	2900      	cmp	r1, #0
 8001638:	d102      	bne.n	8001640 <__ledf2+0x68>
 800163a:	9f01      	ldr	r7, [sp, #4]
 800163c:	4327      	orrs	r7, r4
 800163e:	d0f3      	beq.n	8001628 <__ledf2+0x50>
 8001640:	4584      	cmp	ip, r0
 8001642:	d020      	beq.n	8001686 <__ledf2+0xae>
 8001644:	4663      	mov	r3, ip
 8001646:	2002      	movs	r0, #2
 8001648:	3b01      	subs	r3, #1
 800164a:	4018      	ands	r0, r3
 800164c:	3801      	subs	r0, #1
 800164e:	e007      	b.n	8001660 <__ledf2+0x88>
 8001650:	9f01      	ldr	r7, [sp, #4]
 8001652:	4327      	orrs	r7, r4
 8001654:	d103      	bne.n	800165e <__ledf2+0x86>
 8001656:	458a      	cmp	sl, r1
 8001658:	d1f4      	bne.n	8001644 <__ledf2+0x6c>
 800165a:	4316      	orrs	r6, r2
 800165c:	d01f      	beq.n	800169e <__ledf2+0xc6>
 800165e:	2002      	movs	r0, #2
 8001660:	b003      	add	sp, #12
 8001662:	bcf0      	pop	{r4, r5, r6, r7}
 8001664:	46bb      	mov	fp, r7
 8001666:	46b2      	mov	sl, r6
 8001668:	46a9      	mov	r9, r5
 800166a:	46a0      	mov	r8, r4
 800166c:	bdf0      	pop	{r4, r5, r6, r7, pc}
 800166e:	4654      	mov	r4, sl
 8001670:	2c00      	cmp	r4, #0
 8001672:	d0e7      	beq.n	8001644 <__ledf2+0x6c>
 8001674:	4584      	cmp	ip, r0
 8001676:	d1e5      	bne.n	8001644 <__ledf2+0x6c>
 8001678:	4551      	cmp	r1, sl
 800167a:	dce3      	bgt.n	8001644 <__ledf2+0x6c>
 800167c:	db03      	blt.n	8001686 <__ledf2+0xae>
 800167e:	9b01      	ldr	r3, [sp, #4]
 8001680:	42b3      	cmp	r3, r6
 8001682:	d8df      	bhi.n	8001644 <__ledf2+0x6c>
 8001684:	d00f      	beq.n	80016a6 <__ledf2+0xce>
 8001686:	4663      	mov	r3, ip
 8001688:	2b00      	cmp	r3, #0
 800168a:	d0cf      	beq.n	800162c <__ledf2+0x54>
 800168c:	4660      	mov	r0, ip
 800168e:	e7e7      	b.n	8001660 <__ledf2+0x88>
 8001690:	2c00      	cmp	r4, #0
 8001692:	d0c9      	beq.n	8001628 <__ledf2+0x50>
 8001694:	e7d4      	b.n	8001640 <__ledf2+0x68>
 8001696:	2000      	movs	r0, #0
 8001698:	2c00      	cmp	r4, #0
 800169a:	d0e1      	beq.n	8001660 <__ledf2+0x88>
 800169c:	e7d2      	b.n	8001644 <__ledf2+0x6c>
 800169e:	4584      	cmp	ip, r0
 80016a0:	d1d0      	bne.n	8001644 <__ledf2+0x6c>
 80016a2:	2000      	movs	r0, #0
 80016a4:	e7dc      	b.n	8001660 <__ledf2+0x88>
 80016a6:	45c8      	cmp	r8, r9
 80016a8:	d8cc      	bhi.n	8001644 <__ledf2+0x6c>
 80016aa:	2000      	movs	r0, #0
 80016ac:	45c8      	cmp	r8, r9
 80016ae:	d2d7      	bcs.n	8001660 <__ledf2+0x88>
 80016b0:	e7e9      	b.n	8001686 <__ledf2+0xae>
 80016b2:	4584      	cmp	ip, r0
 80016b4:	d0e3      	beq.n	800167e <__ledf2+0xa6>
 80016b6:	e7c5      	b.n	8001644 <__ledf2+0x6c>
 80016b8:	000007ff 	.word	0x000007ff

080016bc <__aeabi_dmul>:
 80016bc:	b5f0      	push	{r4, r5, r6, r7, lr}
 80016be:	4657      	mov	r7, sl
 80016c0:	46de      	mov	lr, fp
 80016c2:	464e      	mov	r6, r9
 80016c4:	4645      	mov	r5, r8
 80016c6:	b5e0      	push	{r5, r6, r7, lr}
 80016c8:	001f      	movs	r7, r3
 80016ca:	030b      	lsls	r3, r1, #12
 80016cc:	0b1b      	lsrs	r3, r3, #12
 80016ce:	0016      	movs	r6, r2
 80016d0:	469a      	mov	sl, r3
 80016d2:	0fca      	lsrs	r2, r1, #31
 80016d4:	004b      	lsls	r3, r1, #1
 80016d6:	0004      	movs	r4, r0
 80016d8:	4693      	mov	fp, r2
 80016da:	b087      	sub	sp, #28
 80016dc:	0d5b      	lsrs	r3, r3, #21
 80016de:	d100      	bne.n	80016e2 <__aeabi_dmul+0x26>
 80016e0:	e0d5      	b.n	800188e <__aeabi_dmul+0x1d2>
 80016e2:	4abb      	ldr	r2, [pc, #748]	@ (80019d0 <__aeabi_dmul+0x314>)
 80016e4:	4293      	cmp	r3, r2
 80016e6:	d100      	bne.n	80016ea <__aeabi_dmul+0x2e>
 80016e8:	e0f8      	b.n	80018dc <__aeabi_dmul+0x220>
 80016ea:	4651      	mov	r1, sl
 80016ec:	0f42      	lsrs	r2, r0, #29
 80016ee:	00c9      	lsls	r1, r1, #3
 80016f0:	430a      	orrs	r2, r1
 80016f2:	2180      	movs	r1, #128	@ 0x80
 80016f4:	0409      	lsls	r1, r1, #16
 80016f6:	4311      	orrs	r1, r2
 80016f8:	00c2      	lsls	r2, r0, #3
 80016fa:	4691      	mov	r9, r2
 80016fc:	4ab5      	ldr	r2, [pc, #724]	@ (80019d4 <__aeabi_dmul+0x318>)
 80016fe:	468a      	mov	sl, r1
 8001700:	189d      	adds	r5, r3, r2
 8001702:	2300      	movs	r3, #0
 8001704:	4698      	mov	r8, r3
 8001706:	9302      	str	r3, [sp, #8]
 8001708:	033c      	lsls	r4, r7, #12
 800170a:	007b      	lsls	r3, r7, #1
 800170c:	0ffa      	lsrs	r2, r7, #31
 800170e:	0030      	movs	r0, r6
 8001710:	0b24      	lsrs	r4, r4, #12
 8001712:	0d5b      	lsrs	r3, r3, #21
 8001714:	9200      	str	r2, [sp, #0]
 8001716:	d100      	bne.n	800171a <__aeabi_dmul+0x5e>
 8001718:	e096      	b.n	8001848 <__aeabi_dmul+0x18c>
 800171a:	4aad      	ldr	r2, [pc, #692]	@ (80019d0 <__aeabi_dmul+0x314>)
 800171c:	4293      	cmp	r3, r2
 800171e:	d031      	beq.n	8001784 <__aeabi_dmul+0xc8>
 8001720:	0f72      	lsrs	r2, r6, #29
 8001722:	00e4      	lsls	r4, r4, #3
 8001724:	4322      	orrs	r2, r4
 8001726:	2480      	movs	r4, #128	@ 0x80
 8001728:	0424      	lsls	r4, r4, #16
 800172a:	4314      	orrs	r4, r2
 800172c:	4aa9      	ldr	r2, [pc, #676]	@ (80019d4 <__aeabi_dmul+0x318>)
 800172e:	00f0      	lsls	r0, r6, #3
 8001730:	4694      	mov	ip, r2
 8001732:	4463      	add	r3, ip
 8001734:	195b      	adds	r3, r3, r5
 8001736:	1c5a      	adds	r2, r3, #1
 8001738:	9201      	str	r2, [sp, #4]
 800173a:	4642      	mov	r2, r8
 800173c:	2600      	movs	r6, #0
 800173e:	2a0a      	cmp	r2, #10
 8001740:	dc42      	bgt.n	80017c8 <__aeabi_dmul+0x10c>
 8001742:	465a      	mov	r2, fp
 8001744:	9900      	ldr	r1, [sp, #0]
 8001746:	404a      	eors	r2, r1
 8001748:	4693      	mov	fp, r2
 800174a:	4642      	mov	r2, r8
 800174c:	2a02      	cmp	r2, #2
 800174e:	dc32      	bgt.n	80017b6 <__aeabi_dmul+0xfa>
 8001750:	3a01      	subs	r2, #1
 8001752:	2a01      	cmp	r2, #1
 8001754:	d900      	bls.n	8001758 <__aeabi_dmul+0x9c>
 8001756:	e149      	b.n	80019ec <__aeabi_dmul+0x330>
 8001758:	2e02      	cmp	r6, #2
 800175a:	d100      	bne.n	800175e <__aeabi_dmul+0xa2>
 800175c:	e0ca      	b.n	80018f4 <__aeabi_dmul+0x238>
 800175e:	2e01      	cmp	r6, #1
 8001760:	d13d      	bne.n	80017de <__aeabi_dmul+0x122>
 8001762:	2300      	movs	r3, #0
 8001764:	2400      	movs	r4, #0
 8001766:	2200      	movs	r2, #0
 8001768:	0010      	movs	r0, r2
 800176a:	465a      	mov	r2, fp
 800176c:	051b      	lsls	r3, r3, #20
 800176e:	4323      	orrs	r3, r4
 8001770:	07d2      	lsls	r2, r2, #31
 8001772:	4313      	orrs	r3, r2
 8001774:	0019      	movs	r1, r3
 8001776:	b007      	add	sp, #28
 8001778:	bcf0      	pop	{r4, r5, r6, r7}
 800177a:	46bb      	mov	fp, r7
 800177c:	46b2      	mov	sl, r6
 800177e:	46a9      	mov	r9, r5
 8001780:	46a0      	mov	r8, r4
 8001782:	bdf0      	pop	{r4, r5, r6, r7, pc}
 8001784:	4b92      	ldr	r3, [pc, #584]	@ (80019d0 <__aeabi_dmul+0x314>)
 8001786:	4326      	orrs	r6, r4
 8001788:	18eb      	adds	r3, r5, r3
 800178a:	2e00      	cmp	r6, #0
 800178c:	d100      	bne.n	8001790 <__aeabi_dmul+0xd4>
 800178e:	e0bb      	b.n	8001908 <__aeabi_dmul+0x24c>
 8001790:	2203      	movs	r2, #3
 8001792:	4641      	mov	r1, r8
 8001794:	4311      	orrs	r1, r2
 8001796:	465a      	mov	r2, fp
 8001798:	4688      	mov	r8, r1
 800179a:	9900      	ldr	r1, [sp, #0]
 800179c:	404a      	eors	r2, r1
 800179e:	2180      	movs	r1, #128	@ 0x80
 80017a0:	0109      	lsls	r1, r1, #4
 80017a2:	468c      	mov	ip, r1
 80017a4:	0029      	movs	r1, r5
 80017a6:	4461      	add	r1, ip
 80017a8:	9101      	str	r1, [sp, #4]
 80017aa:	4641      	mov	r1, r8
 80017ac:	290a      	cmp	r1, #10
 80017ae:	dd00      	ble.n	80017b2 <__aeabi_dmul+0xf6>
 80017b0:	e233      	b.n	8001c1a <__aeabi_dmul+0x55e>
 80017b2:	4693      	mov	fp, r2
 80017b4:	2603      	movs	r6, #3
 80017b6:	4642      	mov	r2, r8
 80017b8:	2701      	movs	r7, #1
 80017ba:	4097      	lsls	r7, r2
 80017bc:	21a6      	movs	r1, #166	@ 0xa6
 80017be:	003a      	movs	r2, r7
 80017c0:	00c9      	lsls	r1, r1, #3
 80017c2:	400a      	ands	r2, r1
 80017c4:	420f      	tst	r7, r1
 80017c6:	d031      	beq.n	800182c <__aeabi_dmul+0x170>
 80017c8:	9e02      	ldr	r6, [sp, #8]
 80017ca:	2e02      	cmp	r6, #2
 80017cc:	d100      	bne.n	80017d0 <__aeabi_dmul+0x114>
 80017ce:	e235      	b.n	8001c3c <__aeabi_dmul+0x580>
 80017d0:	2e03      	cmp	r6, #3
 80017d2:	d100      	bne.n	80017d6 <__aeabi_dmul+0x11a>
 80017d4:	e1d2      	b.n	8001b7c <__aeabi_dmul+0x4c0>
 80017d6:	4654      	mov	r4, sl
 80017d8:	4648      	mov	r0, r9
 80017da:	2e01      	cmp	r6, #1
 80017dc:	d0c1      	beq.n	8001762 <__aeabi_dmul+0xa6>
 80017de:	9a01      	ldr	r2, [sp, #4]
 80017e0:	4b7d      	ldr	r3, [pc, #500]	@ (80019d8 <__aeabi_dmul+0x31c>)
 80017e2:	4694      	mov	ip, r2
 80017e4:	4463      	add	r3, ip
 80017e6:	2b00      	cmp	r3, #0
 80017e8:	dc00      	bgt.n	80017ec <__aeabi_dmul+0x130>
 80017ea:	e0c0      	b.n	800196e <__aeabi_dmul+0x2b2>
 80017ec:	0742      	lsls	r2, r0, #29
 80017ee:	d009      	beq.n	8001804 <__aeabi_dmul+0x148>
 80017f0:	220f      	movs	r2, #15
 80017f2:	4002      	ands	r2, r0
 80017f4:	2a04      	cmp	r2, #4
 80017f6:	d005      	beq.n	8001804 <__aeabi_dmul+0x148>
 80017f8:	1d02      	adds	r2, r0, #4
 80017fa:	4282      	cmp	r2, r0
 80017fc:	4180      	sbcs	r0, r0
 80017fe:	4240      	negs	r0, r0
 8001800:	1824      	adds	r4, r4, r0
 8001802:	0010      	movs	r0, r2
 8001804:	01e2      	lsls	r2, r4, #7
 8001806:	d506      	bpl.n	8001816 <__aeabi_dmul+0x15a>
 8001808:	4b74      	ldr	r3, [pc, #464]	@ (80019dc <__aeabi_dmul+0x320>)
 800180a:	9a01      	ldr	r2, [sp, #4]
 800180c:	401c      	ands	r4, r3
 800180e:	2380      	movs	r3, #128	@ 0x80
 8001810:	4694      	mov	ip, r2
 8001812:	00db      	lsls	r3, r3, #3
 8001814:	4463      	add	r3, ip
 8001816:	4a72      	ldr	r2, [pc, #456]	@ (80019e0 <__aeabi_dmul+0x324>)
 8001818:	4293      	cmp	r3, r2
 800181a:	dc6b      	bgt.n	80018f4 <__aeabi_dmul+0x238>
 800181c:	0762      	lsls	r2, r4, #29
 800181e:	08c0      	lsrs	r0, r0, #3
 8001820:	0264      	lsls	r4, r4, #9
 8001822:	055b      	lsls	r3, r3, #21
 8001824:	4302      	orrs	r2, r0
 8001826:	0b24      	lsrs	r4, r4, #12
 8001828:	0d5b      	lsrs	r3, r3, #21
 800182a:	e79d      	b.n	8001768 <__aeabi_dmul+0xac>
 800182c:	2190      	movs	r1, #144	@ 0x90
 800182e:	0089      	lsls	r1, r1, #2
 8001830:	420f      	tst	r7, r1
 8001832:	d163      	bne.n	80018fc <__aeabi_dmul+0x240>
 8001834:	2288      	movs	r2, #136	@ 0x88
 8001836:	423a      	tst	r2, r7
 8001838:	d100      	bne.n	800183c <__aeabi_dmul+0x180>
 800183a:	e0d7      	b.n	80019ec <__aeabi_dmul+0x330>
 800183c:	9b00      	ldr	r3, [sp, #0]
 800183e:	46a2      	mov	sl, r4
 8001840:	469b      	mov	fp, r3
 8001842:	4681      	mov	r9, r0
 8001844:	9602      	str	r6, [sp, #8]
 8001846:	e7bf      	b.n	80017c8 <__aeabi_dmul+0x10c>
 8001848:	0023      	movs	r3, r4
 800184a:	4333      	orrs	r3, r6
 800184c:	d100      	bne.n	8001850 <__aeabi_dmul+0x194>
 800184e:	e07f      	b.n	8001950 <__aeabi_dmul+0x294>
 8001850:	2c00      	cmp	r4, #0
 8001852:	d100      	bne.n	8001856 <__aeabi_dmul+0x19a>
 8001854:	e1ad      	b.n	8001bb2 <__aeabi_dmul+0x4f6>
 8001856:	0020      	movs	r0, r4
 8001858:	f000 ff10 	bl	800267c <__clzsi2>
 800185c:	0002      	movs	r2, r0
 800185e:	0003      	movs	r3, r0
 8001860:	3a0b      	subs	r2, #11
 8001862:	201d      	movs	r0, #29
 8001864:	0019      	movs	r1, r3
 8001866:	1a82      	subs	r2, r0, r2
 8001868:	0030      	movs	r0, r6
 800186a:	3908      	subs	r1, #8
 800186c:	40d0      	lsrs	r0, r2
 800186e:	408c      	lsls	r4, r1
 8001870:	4304      	orrs	r4, r0
 8001872:	0030      	movs	r0, r6
 8001874:	4088      	lsls	r0, r1
 8001876:	4a5b      	ldr	r2, [pc, #364]	@ (80019e4 <__aeabi_dmul+0x328>)
 8001878:	1aeb      	subs	r3, r5, r3
 800187a:	4694      	mov	ip, r2
 800187c:	4463      	add	r3, ip
 800187e:	1c5a      	adds	r2, r3, #1
 8001880:	9201      	str	r2, [sp, #4]
 8001882:	4642      	mov	r2, r8
 8001884:	2600      	movs	r6, #0
 8001886:	2a0a      	cmp	r2, #10
 8001888:	dc00      	bgt.n	800188c <__aeabi_dmul+0x1d0>
 800188a:	e75a      	b.n	8001742 <__aeabi_dmul+0x86>
 800188c:	e79c      	b.n	80017c8 <__aeabi_dmul+0x10c>
 800188e:	4653      	mov	r3, sl
 8001890:	4303      	orrs	r3, r0
 8001892:	4699      	mov	r9, r3
 8001894:	d054      	beq.n	8001940 <__aeabi_dmul+0x284>
 8001896:	4653      	mov	r3, sl
 8001898:	2b00      	cmp	r3, #0
 800189a:	d100      	bne.n	800189e <__aeabi_dmul+0x1e2>
 800189c:	e177      	b.n	8001b8e <__aeabi_dmul+0x4d2>
 800189e:	4650      	mov	r0, sl
 80018a0:	f000 feec 	bl	800267c <__clzsi2>
 80018a4:	230b      	movs	r3, #11
 80018a6:	425b      	negs	r3, r3
 80018a8:	469c      	mov	ip, r3
 80018aa:	0002      	movs	r2, r0
 80018ac:	4484      	add	ip, r0
 80018ae:	0011      	movs	r1, r2
 80018b0:	4650      	mov	r0, sl
 80018b2:	3908      	subs	r1, #8
 80018b4:	4088      	lsls	r0, r1
 80018b6:	231d      	movs	r3, #29
 80018b8:	4680      	mov	r8, r0
 80018ba:	4660      	mov	r0, ip
 80018bc:	1a1b      	subs	r3, r3, r0
 80018be:	0020      	movs	r0, r4
 80018c0:	40d8      	lsrs	r0, r3
 80018c2:	0003      	movs	r3, r0
 80018c4:	4640      	mov	r0, r8
 80018c6:	4303      	orrs	r3, r0
 80018c8:	469a      	mov	sl, r3
 80018ca:	0023      	movs	r3, r4
 80018cc:	408b      	lsls	r3, r1
 80018ce:	4699      	mov	r9, r3
 80018d0:	2300      	movs	r3, #0
 80018d2:	4d44      	ldr	r5, [pc, #272]	@ (80019e4 <__aeabi_dmul+0x328>)
 80018d4:	4698      	mov	r8, r3
 80018d6:	1aad      	subs	r5, r5, r2
 80018d8:	9302      	str	r3, [sp, #8]
 80018da:	e715      	b.n	8001708 <__aeabi_dmul+0x4c>
 80018dc:	4652      	mov	r2, sl
 80018de:	4302      	orrs	r2, r0
 80018e0:	4691      	mov	r9, r2
 80018e2:	d126      	bne.n	8001932 <__aeabi_dmul+0x276>
 80018e4:	2200      	movs	r2, #0
 80018e6:	001d      	movs	r5, r3
 80018e8:	2302      	movs	r3, #2
 80018ea:	4692      	mov	sl, r2
 80018ec:	3208      	adds	r2, #8
 80018ee:	4690      	mov	r8, r2
 80018f0:	9302      	str	r3, [sp, #8]
 80018f2:	e709      	b.n	8001708 <__aeabi_dmul+0x4c>
 80018f4:	2400      	movs	r4, #0
 80018f6:	2200      	movs	r2, #0
 80018f8:	4b35      	ldr	r3, [pc, #212]	@ (80019d0 <__aeabi_dmul+0x314>)
 80018fa:	e735      	b.n	8001768 <__aeabi_dmul+0xac>
 80018fc:	2300      	movs	r3, #0
 80018fe:	2480      	movs	r4, #128	@ 0x80
 8001900:	469b      	mov	fp, r3
 8001902:	0324      	lsls	r4, r4, #12
 8001904:	4b32      	ldr	r3, [pc, #200]	@ (80019d0 <__aeabi_dmul+0x314>)
 8001906:	e72f      	b.n	8001768 <__aeabi_dmul+0xac>
 8001908:	2202      	movs	r2, #2
 800190a:	4641      	mov	r1, r8
 800190c:	4311      	orrs	r1, r2
 800190e:	2280      	movs	r2, #128	@ 0x80
 8001910:	0112      	lsls	r2, r2, #4
 8001912:	4694      	mov	ip, r2
 8001914:	002a      	movs	r2, r5
 8001916:	4462      	add	r2, ip
 8001918:	4688      	mov	r8, r1
 800191a:	9201      	str	r2, [sp, #4]
 800191c:	290a      	cmp	r1, #10
 800191e:	dd00      	ble.n	8001922 <__aeabi_dmul+0x266>
 8001920:	e752      	b.n	80017c8 <__aeabi_dmul+0x10c>
 8001922:	465a      	mov	r2, fp
 8001924:	2000      	movs	r0, #0
 8001926:	9900      	ldr	r1, [sp, #0]
 8001928:	0004      	movs	r4, r0
 800192a:	404a      	eors	r2, r1
 800192c:	4693      	mov	fp, r2
 800192e:	2602      	movs	r6, #2
 8001930:	e70b      	b.n	800174a <__aeabi_dmul+0x8e>
 8001932:	220c      	movs	r2, #12
 8001934:	001d      	movs	r5, r3
 8001936:	2303      	movs	r3, #3
 8001938:	4681      	mov	r9, r0
 800193a:	4690      	mov	r8, r2
 800193c:	9302      	str	r3, [sp, #8]
 800193e:	e6e3      	b.n	8001708 <__aeabi_dmul+0x4c>
 8001940:	2300      	movs	r3, #0
 8001942:	469a      	mov	sl, r3
 8001944:	3304      	adds	r3, #4
 8001946:	4698      	mov	r8, r3
 8001948:	3b03      	subs	r3, #3
 800194a:	2500      	movs	r5, #0
 800194c:	9302      	str	r3, [sp, #8]
 800194e:	e6db      	b.n	8001708 <__aeabi_dmul+0x4c>
 8001950:	4642      	mov	r2, r8
 8001952:	3301      	adds	r3, #1
 8001954:	431a      	orrs	r2, r3
 8001956:	002b      	movs	r3, r5
 8001958:	4690      	mov	r8, r2
 800195a:	1c5a      	adds	r2, r3, #1
 800195c:	9201      	str	r2, [sp, #4]
 800195e:	4642      	mov	r2, r8
 8001960:	2400      	movs	r4, #0
 8001962:	2000      	movs	r0, #0
 8001964:	2601      	movs	r6, #1
 8001966:	2a0a      	cmp	r2, #10
 8001968:	dc00      	bgt.n	800196c <__aeabi_dmul+0x2b0>
 800196a:	e6ea      	b.n	8001742 <__aeabi_dmul+0x86>
 800196c:	e72c      	b.n	80017c8 <__aeabi_dmul+0x10c>
 800196e:	2201      	movs	r2, #1
 8001970:	1ad2      	subs	r2, r2, r3
 8001972:	2a38      	cmp	r2, #56	@ 0x38
 8001974:	dd00      	ble.n	8001978 <__aeabi_dmul+0x2bc>
 8001976:	e6f4      	b.n	8001762 <__aeabi_dmul+0xa6>
 8001978:	2a1f      	cmp	r2, #31
 800197a:	dc00      	bgt.n	800197e <__aeabi_dmul+0x2c2>
 800197c:	e12a      	b.n	8001bd4 <__aeabi_dmul+0x518>
 800197e:	211f      	movs	r1, #31
 8001980:	4249      	negs	r1, r1
 8001982:	1acb      	subs	r3, r1, r3
 8001984:	0021      	movs	r1, r4
 8001986:	40d9      	lsrs	r1, r3
 8001988:	000b      	movs	r3, r1
 800198a:	2a20      	cmp	r2, #32
 800198c:	d005      	beq.n	800199a <__aeabi_dmul+0x2de>
 800198e:	4a16      	ldr	r2, [pc, #88]	@ (80019e8 <__aeabi_dmul+0x32c>)
 8001990:	9d01      	ldr	r5, [sp, #4]
 8001992:	4694      	mov	ip, r2
 8001994:	4465      	add	r5, ip
 8001996:	40ac      	lsls	r4, r5
 8001998:	4320      	orrs	r0, r4
 800199a:	1e42      	subs	r2, r0, #1
 800199c:	4190      	sbcs	r0, r2
 800199e:	4318      	orrs	r0, r3
 80019a0:	2307      	movs	r3, #7
 80019a2:	0019      	movs	r1, r3
 80019a4:	2400      	movs	r4, #0
 80019a6:	4001      	ands	r1, r0
 80019a8:	4203      	tst	r3, r0
 80019aa:	d00c      	beq.n	80019c6 <__aeabi_dmul+0x30a>
 80019ac:	230f      	movs	r3, #15
 80019ae:	4003      	ands	r3, r0
 80019b0:	2b04      	cmp	r3, #4
 80019b2:	d100      	bne.n	80019b6 <__aeabi_dmul+0x2fa>
 80019b4:	e140      	b.n	8001c38 <__aeabi_dmul+0x57c>
 80019b6:	1d03      	adds	r3, r0, #4
 80019b8:	4283      	cmp	r3, r0
 80019ba:	41a4      	sbcs	r4, r4
 80019bc:	0018      	movs	r0, r3
 80019be:	4264      	negs	r4, r4
 80019c0:	0761      	lsls	r1, r4, #29
 80019c2:	0264      	lsls	r4, r4, #9
 80019c4:	0b24      	lsrs	r4, r4, #12
 80019c6:	08c2      	lsrs	r2, r0, #3
 80019c8:	2300      	movs	r3, #0
 80019ca:	430a      	orrs	r2, r1
 80019cc:	e6cc      	b.n	8001768 <__aeabi_dmul+0xac>
 80019ce:	46c0      	nop			@ (mov r8, r8)
 80019d0:	000007ff 	.word	0x000007ff
 80019d4:	fffffc01 	.word	0xfffffc01
 80019d8:	000003ff 	.word	0x000003ff
 80019dc:	feffffff 	.word	0xfeffffff
 80019e0:	000007fe 	.word	0x000007fe
 80019e4:	fffffc0d 	.word	0xfffffc0d
 80019e8:	0000043e 	.word	0x0000043e
 80019ec:	4649      	mov	r1, r9
 80019ee:	464a      	mov	r2, r9
 80019f0:	0409      	lsls	r1, r1, #16
 80019f2:	0c09      	lsrs	r1, r1, #16
 80019f4:	000d      	movs	r5, r1
 80019f6:	0c16      	lsrs	r6, r2, #16
 80019f8:	0c02      	lsrs	r2, r0, #16
 80019fa:	0400      	lsls	r0, r0, #16
 80019fc:	0c00      	lsrs	r0, r0, #16
 80019fe:	4345      	muls	r5, r0
 8001a00:	46ac      	mov	ip, r5
 8001a02:	0005      	movs	r5, r0
 8001a04:	4375      	muls	r5, r6
 8001a06:	46a8      	mov	r8, r5
 8001a08:	0015      	movs	r5, r2
 8001a0a:	000f      	movs	r7, r1
 8001a0c:	4375      	muls	r5, r6
 8001a0e:	9200      	str	r2, [sp, #0]
 8001a10:	9502      	str	r5, [sp, #8]
 8001a12:	002a      	movs	r2, r5
 8001a14:	9d00      	ldr	r5, [sp, #0]
 8001a16:	436f      	muls	r7, r5
 8001a18:	4665      	mov	r5, ip
 8001a1a:	0c2d      	lsrs	r5, r5, #16
 8001a1c:	46a9      	mov	r9, r5
 8001a1e:	4447      	add	r7, r8
 8001a20:	444f      	add	r7, r9
 8001a22:	45b8      	cmp	r8, r7
 8001a24:	d905      	bls.n	8001a32 <__aeabi_dmul+0x376>
 8001a26:	0015      	movs	r5, r2
 8001a28:	2280      	movs	r2, #128	@ 0x80
 8001a2a:	0252      	lsls	r2, r2, #9
 8001a2c:	4690      	mov	r8, r2
 8001a2e:	4445      	add	r5, r8
 8001a30:	9502      	str	r5, [sp, #8]
 8001a32:	0c3d      	lsrs	r5, r7, #16
 8001a34:	9503      	str	r5, [sp, #12]
 8001a36:	4665      	mov	r5, ip
 8001a38:	042d      	lsls	r5, r5, #16
 8001a3a:	043f      	lsls	r7, r7, #16
 8001a3c:	0c2d      	lsrs	r5, r5, #16
 8001a3e:	46ac      	mov	ip, r5
 8001a40:	003d      	movs	r5, r7
 8001a42:	4465      	add	r5, ip
 8001a44:	9504      	str	r5, [sp, #16]
 8001a46:	0c25      	lsrs	r5, r4, #16
 8001a48:	0424      	lsls	r4, r4, #16
 8001a4a:	0c24      	lsrs	r4, r4, #16
 8001a4c:	46ac      	mov	ip, r5
 8001a4e:	0025      	movs	r5, r4
 8001a50:	4375      	muls	r5, r6
 8001a52:	46a8      	mov	r8, r5
 8001a54:	4665      	mov	r5, ip
 8001a56:	000f      	movs	r7, r1
 8001a58:	4369      	muls	r1, r5
 8001a5a:	4441      	add	r1, r8
 8001a5c:	4689      	mov	r9, r1
 8001a5e:	4367      	muls	r7, r4
 8001a60:	0c39      	lsrs	r1, r7, #16
 8001a62:	4449      	add	r1, r9
 8001a64:	436e      	muls	r6, r5
 8001a66:	4588      	cmp	r8, r1
 8001a68:	d903      	bls.n	8001a72 <__aeabi_dmul+0x3b6>
 8001a6a:	2280      	movs	r2, #128	@ 0x80
 8001a6c:	0252      	lsls	r2, r2, #9
 8001a6e:	4690      	mov	r8, r2
 8001a70:	4446      	add	r6, r8
 8001a72:	0c0d      	lsrs	r5, r1, #16
 8001a74:	46a8      	mov	r8, r5
 8001a76:	0035      	movs	r5, r6
 8001a78:	4445      	add	r5, r8
 8001a7a:	9505      	str	r5, [sp, #20]
 8001a7c:	9d03      	ldr	r5, [sp, #12]
 8001a7e:	043f      	lsls	r7, r7, #16
 8001a80:	46a8      	mov	r8, r5
 8001a82:	0c3f      	lsrs	r7, r7, #16
 8001a84:	0409      	lsls	r1, r1, #16
 8001a86:	19c9      	adds	r1, r1, r7
 8001a88:	4488      	add	r8, r1
 8001a8a:	4645      	mov	r5, r8
 8001a8c:	9503      	str	r5, [sp, #12]
 8001a8e:	4655      	mov	r5, sl
 8001a90:	042e      	lsls	r6, r5, #16
 8001a92:	0c36      	lsrs	r6, r6, #16
 8001a94:	0c2f      	lsrs	r7, r5, #16
 8001a96:	0035      	movs	r5, r6
 8001a98:	4345      	muls	r5, r0
 8001a9a:	4378      	muls	r0, r7
 8001a9c:	4681      	mov	r9, r0
 8001a9e:	0038      	movs	r0, r7
 8001aa0:	46a8      	mov	r8, r5
 8001aa2:	0c2d      	lsrs	r5, r5, #16
 8001aa4:	46aa      	mov	sl, r5
 8001aa6:	9a00      	ldr	r2, [sp, #0]
 8001aa8:	4350      	muls	r0, r2
 8001aaa:	4372      	muls	r2, r6
 8001aac:	444a      	add	r2, r9
 8001aae:	4452      	add	r2, sl
 8001ab0:	4591      	cmp	r9, r2
 8001ab2:	d903      	bls.n	8001abc <__aeabi_dmul+0x400>
 8001ab4:	2580      	movs	r5, #128	@ 0x80
 8001ab6:	026d      	lsls	r5, r5, #9
 8001ab8:	46a9      	mov	r9, r5
 8001aba:	4448      	add	r0, r9
 8001abc:	0c15      	lsrs	r5, r2, #16
 8001abe:	46a9      	mov	r9, r5
 8001ac0:	4645      	mov	r5, r8
 8001ac2:	042d      	lsls	r5, r5, #16
 8001ac4:	0c2d      	lsrs	r5, r5, #16
 8001ac6:	46a8      	mov	r8, r5
 8001ac8:	4665      	mov	r5, ip
 8001aca:	437d      	muls	r5, r7
 8001acc:	0412      	lsls	r2, r2, #16
 8001ace:	4448      	add	r0, r9
 8001ad0:	4490      	add	r8, r2
 8001ad2:	46a9      	mov	r9, r5
 8001ad4:	0032      	movs	r2, r6
 8001ad6:	4665      	mov	r5, ip
 8001ad8:	4362      	muls	r2, r4
 8001ada:	436e      	muls	r6, r5
 8001adc:	437c      	muls	r4, r7
 8001ade:	0c17      	lsrs	r7, r2, #16
 8001ae0:	1936      	adds	r6, r6, r4
 8001ae2:	19bf      	adds	r7, r7, r6
 8001ae4:	42bc      	cmp	r4, r7
 8001ae6:	d903      	bls.n	8001af0 <__aeabi_dmul+0x434>
 8001ae8:	2480      	movs	r4, #128	@ 0x80
 8001aea:	0264      	lsls	r4, r4, #9
 8001aec:	46a4      	mov	ip, r4
 8001aee:	44e1      	add	r9, ip
 8001af0:	9c02      	ldr	r4, [sp, #8]
 8001af2:	9e03      	ldr	r6, [sp, #12]
 8001af4:	46a4      	mov	ip, r4
 8001af6:	9d05      	ldr	r5, [sp, #20]
 8001af8:	4466      	add	r6, ip
 8001afa:	428e      	cmp	r6, r1
 8001afc:	4189      	sbcs	r1, r1
 8001afe:	46ac      	mov	ip, r5
 8001b00:	0412      	lsls	r2, r2, #16
 8001b02:	043c      	lsls	r4, r7, #16
 8001b04:	0c12      	lsrs	r2, r2, #16
 8001b06:	18a2      	adds	r2, r4, r2
 8001b08:	4462      	add	r2, ip
 8001b0a:	4249      	negs	r1, r1
 8001b0c:	1854      	adds	r4, r2, r1
 8001b0e:	4446      	add	r6, r8
 8001b10:	46a4      	mov	ip, r4
 8001b12:	4546      	cmp	r6, r8
 8001b14:	41a4      	sbcs	r4, r4
 8001b16:	4682      	mov	sl, r0
 8001b18:	4264      	negs	r4, r4
 8001b1a:	46a0      	mov	r8, r4
 8001b1c:	42aa      	cmp	r2, r5
 8001b1e:	4192      	sbcs	r2, r2
 8001b20:	458c      	cmp	ip, r1
 8001b22:	4189      	sbcs	r1, r1
 8001b24:	44e2      	add	sl, ip
 8001b26:	44d0      	add	r8, sl
 8001b28:	4249      	negs	r1, r1
 8001b2a:	4252      	negs	r2, r2
 8001b2c:	430a      	orrs	r2, r1
 8001b2e:	45a0      	cmp	r8, r4
 8001b30:	41a4      	sbcs	r4, r4
 8001b32:	4582      	cmp	sl, r0
 8001b34:	4189      	sbcs	r1, r1
 8001b36:	4264      	negs	r4, r4
 8001b38:	4249      	negs	r1, r1
 8001b3a:	430c      	orrs	r4, r1
 8001b3c:	4641      	mov	r1, r8
 8001b3e:	0c3f      	lsrs	r7, r7, #16
 8001b40:	19d2      	adds	r2, r2, r7
 8001b42:	1912      	adds	r2, r2, r4
 8001b44:	0dcc      	lsrs	r4, r1, #23
 8001b46:	9904      	ldr	r1, [sp, #16]
 8001b48:	0270      	lsls	r0, r6, #9
 8001b4a:	4308      	orrs	r0, r1
 8001b4c:	1e41      	subs	r1, r0, #1
 8001b4e:	4188      	sbcs	r0, r1
 8001b50:	4641      	mov	r1, r8
 8001b52:	444a      	add	r2, r9
 8001b54:	0df6      	lsrs	r6, r6, #23
 8001b56:	0252      	lsls	r2, r2, #9
 8001b58:	4330      	orrs	r0, r6
 8001b5a:	0249      	lsls	r1, r1, #9
 8001b5c:	4314      	orrs	r4, r2
 8001b5e:	4308      	orrs	r0, r1
 8001b60:	01d2      	lsls	r2, r2, #7
 8001b62:	d535      	bpl.n	8001bd0 <__aeabi_dmul+0x514>
 8001b64:	2201      	movs	r2, #1
 8001b66:	0843      	lsrs	r3, r0, #1
 8001b68:	4002      	ands	r2, r0
 8001b6a:	4313      	orrs	r3, r2
 8001b6c:	07e0      	lsls	r0, r4, #31
 8001b6e:	4318      	orrs	r0, r3
 8001b70:	0864      	lsrs	r4, r4, #1
 8001b72:	e634      	b.n	80017de <__aeabi_dmul+0x122>
 8001b74:	9b00      	ldr	r3, [sp, #0]
 8001b76:	46a2      	mov	sl, r4
 8001b78:	469b      	mov	fp, r3
 8001b7a:	4681      	mov	r9, r0
 8001b7c:	2480      	movs	r4, #128	@ 0x80
 8001b7e:	4653      	mov	r3, sl
 8001b80:	0324      	lsls	r4, r4, #12
 8001b82:	431c      	orrs	r4, r3
 8001b84:	0324      	lsls	r4, r4, #12
 8001b86:	464a      	mov	r2, r9
 8001b88:	4b2e      	ldr	r3, [pc, #184]	@ (8001c44 <__aeabi_dmul+0x588>)
 8001b8a:	0b24      	lsrs	r4, r4, #12
 8001b8c:	e5ec      	b.n	8001768 <__aeabi_dmul+0xac>
 8001b8e:	f000 fd75 	bl	800267c <__clzsi2>
 8001b92:	2315      	movs	r3, #21
 8001b94:	469c      	mov	ip, r3
 8001b96:	4484      	add	ip, r0
 8001b98:	0002      	movs	r2, r0
 8001b9a:	4663      	mov	r3, ip
 8001b9c:	3220      	adds	r2, #32
 8001b9e:	2b1c      	cmp	r3, #28
 8001ba0:	dc00      	bgt.n	8001ba4 <__aeabi_dmul+0x4e8>
 8001ba2:	e684      	b.n	80018ae <__aeabi_dmul+0x1f2>
 8001ba4:	2300      	movs	r3, #0
 8001ba6:	4699      	mov	r9, r3
 8001ba8:	0023      	movs	r3, r4
 8001baa:	3808      	subs	r0, #8
 8001bac:	4083      	lsls	r3, r0
 8001bae:	469a      	mov	sl, r3
 8001bb0:	e68e      	b.n	80018d0 <__aeabi_dmul+0x214>
 8001bb2:	f000 fd63 	bl	800267c <__clzsi2>
 8001bb6:	0002      	movs	r2, r0
 8001bb8:	0003      	movs	r3, r0
 8001bba:	3215      	adds	r2, #21
 8001bbc:	3320      	adds	r3, #32
 8001bbe:	2a1c      	cmp	r2, #28
 8001bc0:	dc00      	bgt.n	8001bc4 <__aeabi_dmul+0x508>
 8001bc2:	e64e      	b.n	8001862 <__aeabi_dmul+0x1a6>
 8001bc4:	0002      	movs	r2, r0
 8001bc6:	0034      	movs	r4, r6
 8001bc8:	3a08      	subs	r2, #8
 8001bca:	2000      	movs	r0, #0
 8001bcc:	4094      	lsls	r4, r2
 8001bce:	e652      	b.n	8001876 <__aeabi_dmul+0x1ba>
 8001bd0:	9301      	str	r3, [sp, #4]
 8001bd2:	e604      	b.n	80017de <__aeabi_dmul+0x122>
 8001bd4:	4b1c      	ldr	r3, [pc, #112]	@ (8001c48 <__aeabi_dmul+0x58c>)
 8001bd6:	0021      	movs	r1, r4
 8001bd8:	469c      	mov	ip, r3
 8001bda:	0003      	movs	r3, r0
 8001bdc:	9d01      	ldr	r5, [sp, #4]
 8001bde:	40d3      	lsrs	r3, r2
 8001be0:	4465      	add	r5, ip
 8001be2:	40a9      	lsls	r1, r5
 8001be4:	4319      	orrs	r1, r3
 8001be6:	0003      	movs	r3, r0
 8001be8:	40ab      	lsls	r3, r5
 8001bea:	1e58      	subs	r0, r3, #1
 8001bec:	4183      	sbcs	r3, r0
 8001bee:	4319      	orrs	r1, r3
 8001bf0:	0008      	movs	r0, r1
 8001bf2:	40d4      	lsrs	r4, r2
 8001bf4:	074b      	lsls	r3, r1, #29
 8001bf6:	d009      	beq.n	8001c0c <__aeabi_dmul+0x550>
 8001bf8:	230f      	movs	r3, #15
 8001bfa:	400b      	ands	r3, r1
 8001bfc:	2b04      	cmp	r3, #4
 8001bfe:	d005      	beq.n	8001c0c <__aeabi_dmul+0x550>
 8001c00:	1d0b      	adds	r3, r1, #4
 8001c02:	428b      	cmp	r3, r1
 8001c04:	4180      	sbcs	r0, r0
 8001c06:	4240      	negs	r0, r0
 8001c08:	1824      	adds	r4, r4, r0
 8001c0a:	0018      	movs	r0, r3
 8001c0c:	0223      	lsls	r3, r4, #8
 8001c0e:	d400      	bmi.n	8001c12 <__aeabi_dmul+0x556>
 8001c10:	e6d6      	b.n	80019c0 <__aeabi_dmul+0x304>
 8001c12:	2301      	movs	r3, #1
 8001c14:	2400      	movs	r4, #0
 8001c16:	2200      	movs	r2, #0
 8001c18:	e5a6      	b.n	8001768 <__aeabi_dmul+0xac>
 8001c1a:	290f      	cmp	r1, #15
 8001c1c:	d1aa      	bne.n	8001b74 <__aeabi_dmul+0x4b8>
 8001c1e:	2380      	movs	r3, #128	@ 0x80
 8001c20:	4652      	mov	r2, sl
 8001c22:	031b      	lsls	r3, r3, #12
 8001c24:	421a      	tst	r2, r3
 8001c26:	d0a9      	beq.n	8001b7c <__aeabi_dmul+0x4c0>
 8001c28:	421c      	tst	r4, r3
 8001c2a:	d1a7      	bne.n	8001b7c <__aeabi_dmul+0x4c0>
 8001c2c:	431c      	orrs	r4, r3
 8001c2e:	9b00      	ldr	r3, [sp, #0]
 8001c30:	0002      	movs	r2, r0
 8001c32:	469b      	mov	fp, r3
 8001c34:	4b03      	ldr	r3, [pc, #12]	@ (8001c44 <__aeabi_dmul+0x588>)
 8001c36:	e597      	b.n	8001768 <__aeabi_dmul+0xac>
 8001c38:	2400      	movs	r4, #0
 8001c3a:	e6c1      	b.n	80019c0 <__aeabi_dmul+0x304>
 8001c3c:	2400      	movs	r4, #0
 8001c3e:	4b01      	ldr	r3, [pc, #4]	@ (8001c44 <__aeabi_dmul+0x588>)
 8001c40:	0022      	movs	r2, r4
 8001c42:	e591      	b.n	8001768 <__aeabi_dmul+0xac>
 8001c44:	000007ff 	.word	0x000007ff
 8001c48:	0000041e 	.word	0x0000041e

08001c4c <__aeabi_dsub>:
 8001c4c:	b5f0      	push	{r4, r5, r6, r7, lr}
 8001c4e:	464e      	mov	r6, r9
 8001c50:	4645      	mov	r5, r8
 8001c52:	46de      	mov	lr, fp
 8001c54:	4657      	mov	r7, sl
 8001c56:	b5e0      	push	{r5, r6, r7, lr}
 8001c58:	b085      	sub	sp, #20
 8001c5a:	9000      	str	r0, [sp, #0]
 8001c5c:	9101      	str	r1, [sp, #4]
 8001c5e:	030c      	lsls	r4, r1, #12
 8001c60:	004f      	lsls	r7, r1, #1
 8001c62:	0fce      	lsrs	r6, r1, #31
 8001c64:	0a61      	lsrs	r1, r4, #9
 8001c66:	9c00      	ldr	r4, [sp, #0]
 8001c68:	46b0      	mov	r8, r6
 8001c6a:	0f64      	lsrs	r4, r4, #29
 8001c6c:	430c      	orrs	r4, r1
 8001c6e:	9900      	ldr	r1, [sp, #0]
 8001c70:	0d7f      	lsrs	r7, r7, #21
 8001c72:	00c8      	lsls	r0, r1, #3
 8001c74:	0011      	movs	r1, r2
 8001c76:	001a      	movs	r2, r3
 8001c78:	031b      	lsls	r3, r3, #12
 8001c7a:	469c      	mov	ip, r3
 8001c7c:	9100      	str	r1, [sp, #0]
 8001c7e:	9201      	str	r2, [sp, #4]
 8001c80:	0051      	lsls	r1, r2, #1
 8001c82:	0d4b      	lsrs	r3, r1, #21
 8001c84:	4699      	mov	r9, r3
 8001c86:	9b01      	ldr	r3, [sp, #4]
 8001c88:	9d00      	ldr	r5, [sp, #0]
 8001c8a:	0fd9      	lsrs	r1, r3, #31
 8001c8c:	4663      	mov	r3, ip
 8001c8e:	0f6a      	lsrs	r2, r5, #29
 8001c90:	0a5b      	lsrs	r3, r3, #9
 8001c92:	4313      	orrs	r3, r2
 8001c94:	00ea      	lsls	r2, r5, #3
 8001c96:	4694      	mov	ip, r2
 8001c98:	4693      	mov	fp, r2
 8001c9a:	4ac1      	ldr	r2, [pc, #772]	@ (8001fa0 <__aeabi_dsub+0x354>)
 8001c9c:	9003      	str	r0, [sp, #12]
 8001c9e:	9302      	str	r3, [sp, #8]
 8001ca0:	4591      	cmp	r9, r2
 8001ca2:	d100      	bne.n	8001ca6 <__aeabi_dsub+0x5a>
 8001ca4:	e0cd      	b.n	8001e42 <__aeabi_dsub+0x1f6>
 8001ca6:	2501      	movs	r5, #1
 8001ca8:	4069      	eors	r1, r5
 8001caa:	464d      	mov	r5, r9
 8001cac:	1b7d      	subs	r5, r7, r5
 8001cae:	46aa      	mov	sl, r5
 8001cb0:	428e      	cmp	r6, r1
 8001cb2:	d100      	bne.n	8001cb6 <__aeabi_dsub+0x6a>
 8001cb4:	e080      	b.n	8001db8 <__aeabi_dsub+0x16c>
 8001cb6:	2d00      	cmp	r5, #0
 8001cb8:	dc00      	bgt.n	8001cbc <__aeabi_dsub+0x70>
 8001cba:	e335      	b.n	8002328 <__aeabi_dsub+0x6dc>
 8001cbc:	4649      	mov	r1, r9
 8001cbe:	2900      	cmp	r1, #0
 8001cc0:	d100      	bne.n	8001cc4 <__aeabi_dsub+0x78>
 8001cc2:	e0df      	b.n	8001e84 <__aeabi_dsub+0x238>
 8001cc4:	4297      	cmp	r7, r2
 8001cc6:	d100      	bne.n	8001cca <__aeabi_dsub+0x7e>
 8001cc8:	e194      	b.n	8001ff4 <__aeabi_dsub+0x3a8>
 8001cca:	4652      	mov	r2, sl
 8001ccc:	2501      	movs	r5, #1
 8001cce:	2a38      	cmp	r2, #56	@ 0x38
 8001cd0:	dc19      	bgt.n	8001d06 <__aeabi_dsub+0xba>
 8001cd2:	2280      	movs	r2, #128	@ 0x80
 8001cd4:	9b02      	ldr	r3, [sp, #8]
 8001cd6:	0412      	lsls	r2, r2, #16
 8001cd8:	4313      	orrs	r3, r2
 8001cda:	9302      	str	r3, [sp, #8]
 8001cdc:	4652      	mov	r2, sl
 8001cde:	2a1f      	cmp	r2, #31
 8001ce0:	dd00      	ble.n	8001ce4 <__aeabi_dsub+0x98>
 8001ce2:	e1e3      	b.n	80020ac <__aeabi_dsub+0x460>
 8001ce4:	4653      	mov	r3, sl
 8001ce6:	2220      	movs	r2, #32
 8001ce8:	4661      	mov	r1, ip
 8001cea:	9d02      	ldr	r5, [sp, #8]
 8001cec:	1ad2      	subs	r2, r2, r3
 8001cee:	4095      	lsls	r5, r2
 8001cf0:	40d9      	lsrs	r1, r3
 8001cf2:	430d      	orrs	r5, r1
 8001cf4:	4661      	mov	r1, ip
 8001cf6:	4091      	lsls	r1, r2
 8001cf8:	000a      	movs	r2, r1
 8001cfa:	1e51      	subs	r1, r2, #1
 8001cfc:	418a      	sbcs	r2, r1
 8001cfe:	4315      	orrs	r5, r2
 8001d00:	9a02      	ldr	r2, [sp, #8]
 8001d02:	40da      	lsrs	r2, r3
 8001d04:	1aa4      	subs	r4, r4, r2
 8001d06:	1b45      	subs	r5, r0, r5
 8001d08:	42a8      	cmp	r0, r5
 8001d0a:	4180      	sbcs	r0, r0
 8001d0c:	4240      	negs	r0, r0
 8001d0e:	1a24      	subs	r4, r4, r0
 8001d10:	0223      	lsls	r3, r4, #8
 8001d12:	d400      	bmi.n	8001d16 <__aeabi_dsub+0xca>
 8001d14:	e13d      	b.n	8001f92 <__aeabi_dsub+0x346>
 8001d16:	0264      	lsls	r4, r4, #9
 8001d18:	0a64      	lsrs	r4, r4, #9
 8001d1a:	2c00      	cmp	r4, #0
 8001d1c:	d100      	bne.n	8001d20 <__aeabi_dsub+0xd4>
 8001d1e:	e147      	b.n	8001fb0 <__aeabi_dsub+0x364>
 8001d20:	0020      	movs	r0, r4
 8001d22:	f000 fcab 	bl	800267c <__clzsi2>
 8001d26:	0003      	movs	r3, r0
 8001d28:	3b08      	subs	r3, #8
 8001d2a:	2120      	movs	r1, #32
 8001d2c:	0028      	movs	r0, r5
 8001d2e:	1aca      	subs	r2, r1, r3
 8001d30:	40d0      	lsrs	r0, r2
 8001d32:	409c      	lsls	r4, r3
 8001d34:	0002      	movs	r2, r0
 8001d36:	409d      	lsls	r5, r3
 8001d38:	4322      	orrs	r2, r4
 8001d3a:	429f      	cmp	r7, r3
 8001d3c:	dd00      	ble.n	8001d40 <__aeabi_dsub+0xf4>
 8001d3e:	e177      	b.n	8002030 <__aeabi_dsub+0x3e4>
 8001d40:	1bd8      	subs	r0, r3, r7
 8001d42:	3001      	adds	r0, #1
 8001d44:	1a09      	subs	r1, r1, r0
 8001d46:	002c      	movs	r4, r5
 8001d48:	408d      	lsls	r5, r1
 8001d4a:	40c4      	lsrs	r4, r0
 8001d4c:	1e6b      	subs	r3, r5, #1
 8001d4e:	419d      	sbcs	r5, r3
 8001d50:	0013      	movs	r3, r2
 8001d52:	40c2      	lsrs	r2, r0
 8001d54:	408b      	lsls	r3, r1
 8001d56:	4325      	orrs	r5, r4
 8001d58:	2700      	movs	r7, #0
 8001d5a:	0014      	movs	r4, r2
 8001d5c:	431d      	orrs	r5, r3
 8001d5e:	076b      	lsls	r3, r5, #29
 8001d60:	d009      	beq.n	8001d76 <__aeabi_dsub+0x12a>
 8001d62:	230f      	movs	r3, #15
 8001d64:	402b      	ands	r3, r5
 8001d66:	2b04      	cmp	r3, #4
 8001d68:	d005      	beq.n	8001d76 <__aeabi_dsub+0x12a>
 8001d6a:	1d2b      	adds	r3, r5, #4
 8001d6c:	42ab      	cmp	r3, r5
 8001d6e:	41ad      	sbcs	r5, r5
 8001d70:	426d      	negs	r5, r5
 8001d72:	1964      	adds	r4, r4, r5
 8001d74:	001d      	movs	r5, r3
 8001d76:	0223      	lsls	r3, r4, #8
 8001d78:	d400      	bmi.n	8001d7c <__aeabi_dsub+0x130>
 8001d7a:	e140      	b.n	8001ffe <__aeabi_dsub+0x3b2>
 8001d7c:	4a88      	ldr	r2, [pc, #544]	@ (8001fa0 <__aeabi_dsub+0x354>)
 8001d7e:	3701      	adds	r7, #1
 8001d80:	4297      	cmp	r7, r2
 8001d82:	d100      	bne.n	8001d86 <__aeabi_dsub+0x13a>
 8001d84:	e101      	b.n	8001f8a <__aeabi_dsub+0x33e>
 8001d86:	2601      	movs	r6, #1
 8001d88:	4643      	mov	r3, r8
 8001d8a:	4986      	ldr	r1, [pc, #536]	@ (8001fa4 <__aeabi_dsub+0x358>)
 8001d8c:	08ed      	lsrs	r5, r5, #3
 8001d8e:	4021      	ands	r1, r4
 8001d90:	074a      	lsls	r2, r1, #29
 8001d92:	432a      	orrs	r2, r5
 8001d94:	057c      	lsls	r4, r7, #21
 8001d96:	024d      	lsls	r5, r1, #9
 8001d98:	0b2d      	lsrs	r5, r5, #12
 8001d9a:	0d64      	lsrs	r4, r4, #21
 8001d9c:	401e      	ands	r6, r3
 8001d9e:	0524      	lsls	r4, r4, #20
 8001da0:	432c      	orrs	r4, r5
 8001da2:	07f6      	lsls	r6, r6, #31
 8001da4:	4334      	orrs	r4, r6
 8001da6:	0010      	movs	r0, r2
 8001da8:	0021      	movs	r1, r4
 8001daa:	b005      	add	sp, #20
 8001dac:	bcf0      	pop	{r4, r5, r6, r7}
 8001dae:	46bb      	mov	fp, r7
 8001db0:	46b2      	mov	sl, r6
 8001db2:	46a9      	mov	r9, r5
 8001db4:	46a0      	mov	r8, r4
 8001db6:	bdf0      	pop	{r4, r5, r6, r7, pc}
 8001db8:	2d00      	cmp	r5, #0
 8001dba:	dc00      	bgt.n	8001dbe <__aeabi_dsub+0x172>
 8001dbc:	e2d0      	b.n	8002360 <__aeabi_dsub+0x714>
 8001dbe:	4649      	mov	r1, r9
 8001dc0:	2900      	cmp	r1, #0
 8001dc2:	d000      	beq.n	8001dc6 <__aeabi_dsub+0x17a>
 8001dc4:	e0d4      	b.n	8001f70 <__aeabi_dsub+0x324>
 8001dc6:	4661      	mov	r1, ip
 8001dc8:	9b02      	ldr	r3, [sp, #8]
 8001dca:	4319      	orrs	r1, r3
 8001dcc:	d100      	bne.n	8001dd0 <__aeabi_dsub+0x184>
 8001dce:	e12b      	b.n	8002028 <__aeabi_dsub+0x3dc>
 8001dd0:	1e69      	subs	r1, r5, #1
 8001dd2:	2d01      	cmp	r5, #1
 8001dd4:	d100      	bne.n	8001dd8 <__aeabi_dsub+0x18c>
 8001dd6:	e1d9      	b.n	800218c <__aeabi_dsub+0x540>
 8001dd8:	4295      	cmp	r5, r2
 8001dda:	d100      	bne.n	8001dde <__aeabi_dsub+0x192>
 8001ddc:	e10a      	b.n	8001ff4 <__aeabi_dsub+0x3a8>
 8001dde:	2501      	movs	r5, #1
 8001de0:	2938      	cmp	r1, #56	@ 0x38
 8001de2:	dc17      	bgt.n	8001e14 <__aeabi_dsub+0x1c8>
 8001de4:	468a      	mov	sl, r1
 8001de6:	4653      	mov	r3, sl
 8001de8:	2b1f      	cmp	r3, #31
 8001dea:	dd00      	ble.n	8001dee <__aeabi_dsub+0x1a2>
 8001dec:	e1e7      	b.n	80021be <__aeabi_dsub+0x572>
 8001dee:	2220      	movs	r2, #32
 8001df0:	1ad2      	subs	r2, r2, r3
 8001df2:	9b02      	ldr	r3, [sp, #8]
 8001df4:	4661      	mov	r1, ip
 8001df6:	4093      	lsls	r3, r2
 8001df8:	001d      	movs	r5, r3
 8001dfa:	4653      	mov	r3, sl
 8001dfc:	40d9      	lsrs	r1, r3
 8001dfe:	4663      	mov	r3, ip
 8001e00:	4093      	lsls	r3, r2
 8001e02:	001a      	movs	r2, r3
 8001e04:	430d      	orrs	r5, r1
 8001e06:	1e51      	subs	r1, r2, #1
 8001e08:	418a      	sbcs	r2, r1
 8001e0a:	4653      	mov	r3, sl
 8001e0c:	4315      	orrs	r5, r2
 8001e0e:	9a02      	ldr	r2, [sp, #8]
 8001e10:	40da      	lsrs	r2, r3
 8001e12:	18a4      	adds	r4, r4, r2
 8001e14:	182d      	adds	r5, r5, r0
 8001e16:	4285      	cmp	r5, r0
 8001e18:	4180      	sbcs	r0, r0
 8001e1a:	4240      	negs	r0, r0
 8001e1c:	1824      	adds	r4, r4, r0
 8001e1e:	0223      	lsls	r3, r4, #8
 8001e20:	d400      	bmi.n	8001e24 <__aeabi_dsub+0x1d8>
 8001e22:	e0b6      	b.n	8001f92 <__aeabi_dsub+0x346>
 8001e24:	4b5e      	ldr	r3, [pc, #376]	@ (8001fa0 <__aeabi_dsub+0x354>)
 8001e26:	3701      	adds	r7, #1
 8001e28:	429f      	cmp	r7, r3
 8001e2a:	d100      	bne.n	8001e2e <__aeabi_dsub+0x1e2>
 8001e2c:	e0ad      	b.n	8001f8a <__aeabi_dsub+0x33e>
 8001e2e:	2101      	movs	r1, #1
 8001e30:	4b5c      	ldr	r3, [pc, #368]	@ (8001fa4 <__aeabi_dsub+0x358>)
 8001e32:	086a      	lsrs	r2, r5, #1
 8001e34:	401c      	ands	r4, r3
 8001e36:	4029      	ands	r1, r5
 8001e38:	430a      	orrs	r2, r1
 8001e3a:	07e5      	lsls	r5, r4, #31
 8001e3c:	4315      	orrs	r5, r2
 8001e3e:	0864      	lsrs	r4, r4, #1
 8001e40:	e78d      	b.n	8001d5e <__aeabi_dsub+0x112>
 8001e42:	4a59      	ldr	r2, [pc, #356]	@ (8001fa8 <__aeabi_dsub+0x35c>)
 8001e44:	9b02      	ldr	r3, [sp, #8]
 8001e46:	4692      	mov	sl, r2
 8001e48:	4662      	mov	r2, ip
 8001e4a:	44ba      	add	sl, r7
 8001e4c:	431a      	orrs	r2, r3
 8001e4e:	d02c      	beq.n	8001eaa <__aeabi_dsub+0x25e>
 8001e50:	428e      	cmp	r6, r1
 8001e52:	d02e      	beq.n	8001eb2 <__aeabi_dsub+0x266>
 8001e54:	4652      	mov	r2, sl
 8001e56:	2a00      	cmp	r2, #0
 8001e58:	d060      	beq.n	8001f1c <__aeabi_dsub+0x2d0>
 8001e5a:	2f00      	cmp	r7, #0
 8001e5c:	d100      	bne.n	8001e60 <__aeabi_dsub+0x214>
 8001e5e:	e0db      	b.n	8002018 <__aeabi_dsub+0x3cc>
 8001e60:	4663      	mov	r3, ip
 8001e62:	000e      	movs	r6, r1
 8001e64:	9c02      	ldr	r4, [sp, #8]
 8001e66:	08d8      	lsrs	r0, r3, #3
 8001e68:	0762      	lsls	r2, r4, #29
 8001e6a:	4302      	orrs	r2, r0
 8001e6c:	08e4      	lsrs	r4, r4, #3
 8001e6e:	0013      	movs	r3, r2
 8001e70:	4323      	orrs	r3, r4
 8001e72:	d100      	bne.n	8001e76 <__aeabi_dsub+0x22a>
 8001e74:	e254      	b.n	8002320 <__aeabi_dsub+0x6d4>
 8001e76:	2580      	movs	r5, #128	@ 0x80
 8001e78:	032d      	lsls	r5, r5, #12
 8001e7a:	4325      	orrs	r5, r4
 8001e7c:	032d      	lsls	r5, r5, #12
 8001e7e:	4c48      	ldr	r4, [pc, #288]	@ (8001fa0 <__aeabi_dsub+0x354>)
 8001e80:	0b2d      	lsrs	r5, r5, #12
 8001e82:	e78c      	b.n	8001d9e <__aeabi_dsub+0x152>
 8001e84:	4661      	mov	r1, ip
 8001e86:	9b02      	ldr	r3, [sp, #8]
 8001e88:	4319      	orrs	r1, r3
 8001e8a:	d100      	bne.n	8001e8e <__aeabi_dsub+0x242>
 8001e8c:	e0cc      	b.n	8002028 <__aeabi_dsub+0x3dc>
 8001e8e:	0029      	movs	r1, r5
 8001e90:	3901      	subs	r1, #1
 8001e92:	2d01      	cmp	r5, #1
 8001e94:	d100      	bne.n	8001e98 <__aeabi_dsub+0x24c>
 8001e96:	e188      	b.n	80021aa <__aeabi_dsub+0x55e>
 8001e98:	4295      	cmp	r5, r2
 8001e9a:	d100      	bne.n	8001e9e <__aeabi_dsub+0x252>
 8001e9c:	e0aa      	b.n	8001ff4 <__aeabi_dsub+0x3a8>
 8001e9e:	2501      	movs	r5, #1
 8001ea0:	2938      	cmp	r1, #56	@ 0x38
 8001ea2:	dd00      	ble.n	8001ea6 <__aeabi_dsub+0x25a>
 8001ea4:	e72f      	b.n	8001d06 <__aeabi_dsub+0xba>
 8001ea6:	468a      	mov	sl, r1
 8001ea8:	e718      	b.n	8001cdc <__aeabi_dsub+0x90>
 8001eaa:	2201      	movs	r2, #1
 8001eac:	4051      	eors	r1, r2
 8001eae:	428e      	cmp	r6, r1
 8001eb0:	d1d0      	bne.n	8001e54 <__aeabi_dsub+0x208>
 8001eb2:	4653      	mov	r3, sl
 8001eb4:	2b00      	cmp	r3, #0
 8001eb6:	d100      	bne.n	8001eba <__aeabi_dsub+0x26e>
 8001eb8:	e0be      	b.n	8002038 <__aeabi_dsub+0x3ec>
 8001eba:	2f00      	cmp	r7, #0
 8001ebc:	d000      	beq.n	8001ec0 <__aeabi_dsub+0x274>
 8001ebe:	e138      	b.n	8002132 <__aeabi_dsub+0x4e6>
 8001ec0:	46ca      	mov	sl, r9
 8001ec2:	0022      	movs	r2, r4
 8001ec4:	4302      	orrs	r2, r0
 8001ec6:	d100      	bne.n	8001eca <__aeabi_dsub+0x27e>
 8001ec8:	e1e2      	b.n	8002290 <__aeabi_dsub+0x644>
 8001eca:	4653      	mov	r3, sl
 8001ecc:	1e59      	subs	r1, r3, #1
 8001ece:	2b01      	cmp	r3, #1
 8001ed0:	d100      	bne.n	8001ed4 <__aeabi_dsub+0x288>
 8001ed2:	e20d      	b.n	80022f0 <__aeabi_dsub+0x6a4>
 8001ed4:	4a32      	ldr	r2, [pc, #200]	@ (8001fa0 <__aeabi_dsub+0x354>)
 8001ed6:	4592      	cmp	sl, r2
 8001ed8:	d100      	bne.n	8001edc <__aeabi_dsub+0x290>
 8001eda:	e1d2      	b.n	8002282 <__aeabi_dsub+0x636>
 8001edc:	2701      	movs	r7, #1
 8001ede:	2938      	cmp	r1, #56	@ 0x38
 8001ee0:	dc13      	bgt.n	8001f0a <__aeabi_dsub+0x2be>
 8001ee2:	291f      	cmp	r1, #31
 8001ee4:	dd00      	ble.n	8001ee8 <__aeabi_dsub+0x29c>
 8001ee6:	e1ee      	b.n	80022c6 <__aeabi_dsub+0x67a>
 8001ee8:	2220      	movs	r2, #32
 8001eea:	9b02      	ldr	r3, [sp, #8]
 8001eec:	1a52      	subs	r2, r2, r1
 8001eee:	0025      	movs	r5, r4
 8001ef0:	0007      	movs	r7, r0
 8001ef2:	469a      	mov	sl, r3
 8001ef4:	40cc      	lsrs	r4, r1
 8001ef6:	4090      	lsls	r0, r2
 8001ef8:	4095      	lsls	r5, r2
 8001efa:	40cf      	lsrs	r7, r1
 8001efc:	44a2      	add	sl, r4
 8001efe:	1e42      	subs	r2, r0, #1
 8001f00:	4190      	sbcs	r0, r2
 8001f02:	4653      	mov	r3, sl
 8001f04:	432f      	orrs	r7, r5
 8001f06:	4307      	orrs	r7, r0
 8001f08:	9302      	str	r3, [sp, #8]
 8001f0a:	003d      	movs	r5, r7
 8001f0c:	4465      	add	r5, ip
 8001f0e:	4565      	cmp	r5, ip
 8001f10:	4192      	sbcs	r2, r2
 8001f12:	9b02      	ldr	r3, [sp, #8]
 8001f14:	4252      	negs	r2, r2
 8001f16:	464f      	mov	r7, r9
 8001f18:	18d4      	adds	r4, r2, r3
 8001f1a:	e780      	b.n	8001e1e <__aeabi_dsub+0x1d2>
 8001f1c:	4a23      	ldr	r2, [pc, #140]	@ (8001fac <__aeabi_dsub+0x360>)
 8001f1e:	1c7d      	adds	r5, r7, #1
 8001f20:	4215      	tst	r5, r2
 8001f22:	d000      	beq.n	8001f26 <__aeabi_dsub+0x2da>
 8001f24:	e0aa      	b.n	800207c <__aeabi_dsub+0x430>
 8001f26:	4662      	mov	r2, ip
 8001f28:	0025      	movs	r5, r4
 8001f2a:	9b02      	ldr	r3, [sp, #8]
 8001f2c:	4305      	orrs	r5, r0
 8001f2e:	431a      	orrs	r2, r3
 8001f30:	2f00      	cmp	r7, #0
 8001f32:	d000      	beq.n	8001f36 <__aeabi_dsub+0x2ea>
 8001f34:	e0f5      	b.n	8002122 <__aeabi_dsub+0x4d6>
 8001f36:	2d00      	cmp	r5, #0
 8001f38:	d100      	bne.n	8001f3c <__aeabi_dsub+0x2f0>
 8001f3a:	e16b      	b.n	8002214 <__aeabi_dsub+0x5c8>
 8001f3c:	2a00      	cmp	r2, #0
 8001f3e:	d100      	bne.n	8001f42 <__aeabi_dsub+0x2f6>
 8001f40:	e152      	b.n	80021e8 <__aeabi_dsub+0x59c>
 8001f42:	4663      	mov	r3, ip
 8001f44:	1ac5      	subs	r5, r0, r3
 8001f46:	9b02      	ldr	r3, [sp, #8]
 8001f48:	1ae2      	subs	r2, r4, r3
 8001f4a:	42a8      	cmp	r0, r5
 8001f4c:	419b      	sbcs	r3, r3
 8001f4e:	425b      	negs	r3, r3
 8001f50:	1ad3      	subs	r3, r2, r3
 8001f52:	021a      	lsls	r2, r3, #8
 8001f54:	d400      	bmi.n	8001f58 <__aeabi_dsub+0x30c>
 8001f56:	e1d5      	b.n	8002304 <__aeabi_dsub+0x6b8>
 8001f58:	4663      	mov	r3, ip
 8001f5a:	1a1d      	subs	r5, r3, r0
 8001f5c:	45ac      	cmp	ip, r5
 8001f5e:	4192      	sbcs	r2, r2
 8001f60:	2601      	movs	r6, #1
 8001f62:	9b02      	ldr	r3, [sp, #8]
 8001f64:	4252      	negs	r2, r2
 8001f66:	1b1c      	subs	r4, r3, r4
 8001f68:	4688      	mov	r8, r1
 8001f6a:	1aa4      	subs	r4, r4, r2
 8001f6c:	400e      	ands	r6, r1
 8001f6e:	e6f6      	b.n	8001d5e <__aeabi_dsub+0x112>
 8001f70:	4297      	cmp	r7, r2
 8001f72:	d03f      	beq.n	8001ff4 <__aeabi_dsub+0x3a8>
 8001f74:	4652      	mov	r2, sl
 8001f76:	2501      	movs	r5, #1
 8001f78:	2a38      	cmp	r2, #56	@ 0x38
 8001f7a:	dd00      	ble.n	8001f7e <__aeabi_dsub+0x332>
 8001f7c:	e74a      	b.n	8001e14 <__aeabi_dsub+0x1c8>
 8001f7e:	2280      	movs	r2, #128	@ 0x80
 8001f80:	9b02      	ldr	r3, [sp, #8]
 8001f82:	0412      	lsls	r2, r2, #16
 8001f84:	4313      	orrs	r3, r2
 8001f86:	9302      	str	r3, [sp, #8]
 8001f88:	e72d      	b.n	8001de6 <__aeabi_dsub+0x19a>
 8001f8a:	003c      	movs	r4, r7
 8001f8c:	2500      	movs	r5, #0
 8001f8e:	2200      	movs	r2, #0
 8001f90:	e705      	b.n	8001d9e <__aeabi_dsub+0x152>
 8001f92:	2307      	movs	r3, #7
 8001f94:	402b      	ands	r3, r5
 8001f96:	2b00      	cmp	r3, #0
 8001f98:	d000      	beq.n	8001f9c <__aeabi_dsub+0x350>
 8001f9a:	e6e2      	b.n	8001d62 <__aeabi_dsub+0x116>
 8001f9c:	e06b      	b.n	8002076 <__aeabi_dsub+0x42a>
 8001f9e:	46c0      	nop			@ (mov r8, r8)
 8001fa0:	000007ff 	.word	0x000007ff
 8001fa4:	ff7fffff 	.word	0xff7fffff
 8001fa8:	fffff801 	.word	0xfffff801
 8001fac:	000007fe 	.word	0x000007fe
 8001fb0:	0028      	movs	r0, r5
 8001fb2:	f000 fb63 	bl	800267c <__clzsi2>
 8001fb6:	0003      	movs	r3, r0
 8001fb8:	3318      	adds	r3, #24
 8001fba:	2b1f      	cmp	r3, #31
 8001fbc:	dc00      	bgt.n	8001fc0 <__aeabi_dsub+0x374>
 8001fbe:	e6b4      	b.n	8001d2a <__aeabi_dsub+0xde>
 8001fc0:	002a      	movs	r2, r5
 8001fc2:	3808      	subs	r0, #8
 8001fc4:	4082      	lsls	r2, r0
 8001fc6:	429f      	cmp	r7, r3
 8001fc8:	dd00      	ble.n	8001fcc <__aeabi_dsub+0x380>
 8001fca:	e0b9      	b.n	8002140 <__aeabi_dsub+0x4f4>
 8001fcc:	1bdb      	subs	r3, r3, r7
 8001fce:	1c58      	adds	r0, r3, #1
 8001fd0:	281f      	cmp	r0, #31
 8001fd2:	dc00      	bgt.n	8001fd6 <__aeabi_dsub+0x38a>
 8001fd4:	e1a0      	b.n	8002318 <__aeabi_dsub+0x6cc>
 8001fd6:	0015      	movs	r5, r2
 8001fd8:	3b1f      	subs	r3, #31
 8001fda:	40dd      	lsrs	r5, r3
 8001fdc:	2820      	cmp	r0, #32
 8001fde:	d005      	beq.n	8001fec <__aeabi_dsub+0x3a0>
 8001fe0:	2340      	movs	r3, #64	@ 0x40
 8001fe2:	1a1b      	subs	r3, r3, r0
 8001fe4:	409a      	lsls	r2, r3
 8001fe6:	1e53      	subs	r3, r2, #1
 8001fe8:	419a      	sbcs	r2, r3
 8001fea:	4315      	orrs	r5, r2
 8001fec:	2307      	movs	r3, #7
 8001fee:	2700      	movs	r7, #0
 8001ff0:	402b      	ands	r3, r5
 8001ff2:	e7d0      	b.n	8001f96 <__aeabi_dsub+0x34a>
 8001ff4:	08c0      	lsrs	r0, r0, #3
 8001ff6:	0762      	lsls	r2, r4, #29
 8001ff8:	4302      	orrs	r2, r0
 8001ffa:	08e4      	lsrs	r4, r4, #3
 8001ffc:	e737      	b.n	8001e6e <__aeabi_dsub+0x222>
 8001ffe:	08ea      	lsrs	r2, r5, #3
 8002000:	0763      	lsls	r3, r4, #29
 8002002:	431a      	orrs	r2, r3
 8002004:	4bd3      	ldr	r3, [pc, #844]	@ (8002354 <__aeabi_dsub+0x708>)
 8002006:	08e4      	lsrs	r4, r4, #3
 8002008:	429f      	cmp	r7, r3
 800200a:	d100      	bne.n	800200e <__aeabi_dsub+0x3c2>
 800200c:	e72f      	b.n	8001e6e <__aeabi_dsub+0x222>
 800200e:	0324      	lsls	r4, r4, #12
 8002010:	0b25      	lsrs	r5, r4, #12
 8002012:	057c      	lsls	r4, r7, #21
 8002014:	0d64      	lsrs	r4, r4, #21
 8002016:	e6c2      	b.n	8001d9e <__aeabi_dsub+0x152>
 8002018:	46ca      	mov	sl, r9
 800201a:	0022      	movs	r2, r4
 800201c:	4302      	orrs	r2, r0
 800201e:	d158      	bne.n	80020d2 <__aeabi_dsub+0x486>
 8002020:	4663      	mov	r3, ip
 8002022:	000e      	movs	r6, r1
 8002024:	9c02      	ldr	r4, [sp, #8]
 8002026:	9303      	str	r3, [sp, #12]
 8002028:	9b03      	ldr	r3, [sp, #12]
 800202a:	4657      	mov	r7, sl
 800202c:	08da      	lsrs	r2, r3, #3
 800202e:	e7e7      	b.n	8002000 <__aeabi_dsub+0x3b4>
 8002030:	4cc9      	ldr	r4, [pc, #804]	@ (8002358 <__aeabi_dsub+0x70c>)
 8002032:	1aff      	subs	r7, r7, r3
 8002034:	4014      	ands	r4, r2
 8002036:	e692      	b.n	8001d5e <__aeabi_dsub+0x112>
 8002038:	4dc8      	ldr	r5, [pc, #800]	@ (800235c <__aeabi_dsub+0x710>)
 800203a:	1c7a      	adds	r2, r7, #1
 800203c:	422a      	tst	r2, r5
 800203e:	d000      	beq.n	8002042 <__aeabi_dsub+0x3f6>
 8002040:	e084      	b.n	800214c <__aeabi_dsub+0x500>
 8002042:	0022      	movs	r2, r4
 8002044:	4302      	orrs	r2, r0
 8002046:	2f00      	cmp	r7, #0
 8002048:	d000      	beq.n	800204c <__aeabi_dsub+0x400>
 800204a:	e0ef      	b.n	800222c <__aeabi_dsub+0x5e0>
 800204c:	2a00      	cmp	r2, #0
 800204e:	d100      	bne.n	8002052 <__aeabi_dsub+0x406>
 8002050:	e0e5      	b.n	800221e <__aeabi_dsub+0x5d2>
 8002052:	4662      	mov	r2, ip
 8002054:	9902      	ldr	r1, [sp, #8]
 8002056:	430a      	orrs	r2, r1
 8002058:	d100      	bne.n	800205c <__aeabi_dsub+0x410>
 800205a:	e0c5      	b.n	80021e8 <__aeabi_dsub+0x59c>
 800205c:	4663      	mov	r3, ip
 800205e:	18c5      	adds	r5, r0, r3
 8002060:	468c      	mov	ip, r1
 8002062:	4285      	cmp	r5, r0
 8002064:	4180      	sbcs	r0, r0
 8002066:	4464      	add	r4, ip
 8002068:	4240      	negs	r0, r0
 800206a:	1824      	adds	r4, r4, r0
 800206c:	0223      	lsls	r3, r4, #8
 800206e:	d502      	bpl.n	8002076 <__aeabi_dsub+0x42a>
 8002070:	4bb9      	ldr	r3, [pc, #740]	@ (8002358 <__aeabi_dsub+0x70c>)
 8002072:	3701      	adds	r7, #1
 8002074:	401c      	ands	r4, r3
 8002076:	46ba      	mov	sl, r7
 8002078:	9503      	str	r5, [sp, #12]
 800207a:	e7d5      	b.n	8002028 <__aeabi_dsub+0x3dc>
 800207c:	4662      	mov	r2, ip
 800207e:	1a85      	subs	r5, r0, r2
 8002080:	42a8      	cmp	r0, r5
 8002082:	4192      	sbcs	r2, r2
 8002084:	4252      	negs	r2, r2
 8002086:	4691      	mov	r9, r2
 8002088:	9b02      	ldr	r3, [sp, #8]
 800208a:	1ae3      	subs	r3, r4, r3
 800208c:	001a      	movs	r2, r3
 800208e:	464b      	mov	r3, r9
 8002090:	1ad2      	subs	r2, r2, r3
 8002092:	0013      	movs	r3, r2
 8002094:	4691      	mov	r9, r2
 8002096:	021a      	lsls	r2, r3, #8
 8002098:	d46c      	bmi.n	8002174 <__aeabi_dsub+0x528>
 800209a:	464a      	mov	r2, r9
 800209c:	464c      	mov	r4, r9
 800209e:	432a      	orrs	r2, r5
 80020a0:	d000      	beq.n	80020a4 <__aeabi_dsub+0x458>
 80020a2:	e63a      	b.n	8001d1a <__aeabi_dsub+0xce>
 80020a4:	2600      	movs	r6, #0
 80020a6:	2400      	movs	r4, #0
 80020a8:	2500      	movs	r5, #0
 80020aa:	e678      	b.n	8001d9e <__aeabi_dsub+0x152>
 80020ac:	9902      	ldr	r1, [sp, #8]
 80020ae:	4653      	mov	r3, sl
 80020b0:	000d      	movs	r5, r1
 80020b2:	3a20      	subs	r2, #32
 80020b4:	40d5      	lsrs	r5, r2
 80020b6:	2b20      	cmp	r3, #32
 80020b8:	d006      	beq.n	80020c8 <__aeabi_dsub+0x47c>
 80020ba:	2240      	movs	r2, #64	@ 0x40
 80020bc:	1ad2      	subs	r2, r2, r3
 80020be:	000b      	movs	r3, r1
 80020c0:	4093      	lsls	r3, r2
 80020c2:	4662      	mov	r2, ip
 80020c4:	431a      	orrs	r2, r3
 80020c6:	4693      	mov	fp, r2
 80020c8:	465b      	mov	r3, fp
 80020ca:	1e5a      	subs	r2, r3, #1
 80020cc:	4193      	sbcs	r3, r2
 80020ce:	431d      	orrs	r5, r3
 80020d0:	e619      	b.n	8001d06 <__aeabi_dsub+0xba>
 80020d2:	4653      	mov	r3, sl
 80020d4:	1e5a      	subs	r2, r3, #1
 80020d6:	2b01      	cmp	r3, #1
 80020d8:	d100      	bne.n	80020dc <__aeabi_dsub+0x490>
 80020da:	e0c6      	b.n	800226a <__aeabi_dsub+0x61e>
 80020dc:	4e9d      	ldr	r6, [pc, #628]	@ (8002354 <__aeabi_dsub+0x708>)
 80020de:	45b2      	cmp	sl, r6
 80020e0:	d100      	bne.n	80020e4 <__aeabi_dsub+0x498>
 80020e2:	e6bd      	b.n	8001e60 <__aeabi_dsub+0x214>
 80020e4:	4688      	mov	r8, r1
 80020e6:	000e      	movs	r6, r1
 80020e8:	2501      	movs	r5, #1
 80020ea:	2a38      	cmp	r2, #56	@ 0x38
 80020ec:	dc10      	bgt.n	8002110 <__aeabi_dsub+0x4c4>
 80020ee:	2a1f      	cmp	r2, #31
 80020f0:	dc7f      	bgt.n	80021f2 <__aeabi_dsub+0x5a6>
 80020f2:	2120      	movs	r1, #32
 80020f4:	0025      	movs	r5, r4
 80020f6:	1a89      	subs	r1, r1, r2
 80020f8:	0007      	movs	r7, r0
 80020fa:	4088      	lsls	r0, r1
 80020fc:	408d      	lsls	r5, r1
 80020fe:	40d7      	lsrs	r7, r2
 8002100:	40d4      	lsrs	r4, r2
 8002102:	1e41      	subs	r1, r0, #1
 8002104:	4188      	sbcs	r0, r1
 8002106:	9b02      	ldr	r3, [sp, #8]
 8002108:	433d      	orrs	r5, r7
 800210a:	1b1b      	subs	r3, r3, r4
 800210c:	4305      	orrs	r5, r0
 800210e:	9302      	str	r3, [sp, #8]
 8002110:	4662      	mov	r2, ip
 8002112:	1b55      	subs	r5, r2, r5
 8002114:	45ac      	cmp	ip, r5
 8002116:	4192      	sbcs	r2, r2
 8002118:	9b02      	ldr	r3, [sp, #8]
 800211a:	4252      	negs	r2, r2
 800211c:	464f      	mov	r7, r9
 800211e:	1a9c      	subs	r4, r3, r2
 8002120:	e5f6      	b.n	8001d10 <__aeabi_dsub+0xc4>
 8002122:	2d00      	cmp	r5, #0
 8002124:	d000      	beq.n	8002128 <__aeabi_dsub+0x4dc>
 8002126:	e0b7      	b.n	8002298 <__aeabi_dsub+0x64c>
 8002128:	2a00      	cmp	r2, #0
 800212a:	d100      	bne.n	800212e <__aeabi_dsub+0x4e2>
 800212c:	e0f0      	b.n	8002310 <__aeabi_dsub+0x6c4>
 800212e:	2601      	movs	r6, #1
 8002130:	400e      	ands	r6, r1
 8002132:	4663      	mov	r3, ip
 8002134:	9802      	ldr	r0, [sp, #8]
 8002136:	08d9      	lsrs	r1, r3, #3
 8002138:	0742      	lsls	r2, r0, #29
 800213a:	430a      	orrs	r2, r1
 800213c:	08c4      	lsrs	r4, r0, #3
 800213e:	e696      	b.n	8001e6e <__aeabi_dsub+0x222>
 8002140:	4c85      	ldr	r4, [pc, #532]	@ (8002358 <__aeabi_dsub+0x70c>)
 8002142:	1aff      	subs	r7, r7, r3
 8002144:	4014      	ands	r4, r2
 8002146:	0762      	lsls	r2, r4, #29
 8002148:	08e4      	lsrs	r4, r4, #3
 800214a:	e760      	b.n	800200e <__aeabi_dsub+0x3c2>
 800214c:	4981      	ldr	r1, [pc, #516]	@ (8002354 <__aeabi_dsub+0x708>)
 800214e:	428a      	cmp	r2, r1
 8002150:	d100      	bne.n	8002154 <__aeabi_dsub+0x508>
 8002152:	e0c9      	b.n	80022e8 <__aeabi_dsub+0x69c>
 8002154:	4663      	mov	r3, ip
 8002156:	18c1      	adds	r1, r0, r3
 8002158:	4281      	cmp	r1, r0
 800215a:	4180      	sbcs	r0, r0
 800215c:	9b02      	ldr	r3, [sp, #8]
 800215e:	4240      	negs	r0, r0
 8002160:	18e3      	adds	r3, r4, r3
 8002162:	181b      	adds	r3, r3, r0
 8002164:	07dd      	lsls	r5, r3, #31
 8002166:	085c      	lsrs	r4, r3, #1
 8002168:	2307      	movs	r3, #7
 800216a:	0849      	lsrs	r1, r1, #1
 800216c:	430d      	orrs	r5, r1
 800216e:	0017      	movs	r7, r2
 8002170:	402b      	ands	r3, r5
 8002172:	e710      	b.n	8001f96 <__aeabi_dsub+0x34a>
 8002174:	4663      	mov	r3, ip
 8002176:	1a1d      	subs	r5, r3, r0
 8002178:	45ac      	cmp	ip, r5
 800217a:	4192      	sbcs	r2, r2
 800217c:	2601      	movs	r6, #1
 800217e:	9b02      	ldr	r3, [sp, #8]
 8002180:	4252      	negs	r2, r2
 8002182:	1b1c      	subs	r4, r3, r4
 8002184:	4688      	mov	r8, r1
 8002186:	1aa4      	subs	r4, r4, r2
 8002188:	400e      	ands	r6, r1
 800218a:	e5c6      	b.n	8001d1a <__aeabi_dsub+0xce>
 800218c:	4663      	mov	r3, ip
 800218e:	18c5      	adds	r5, r0, r3
 8002190:	9b02      	ldr	r3, [sp, #8]
 8002192:	4285      	cmp	r5, r0
 8002194:	4180      	sbcs	r0, r0
 8002196:	469c      	mov	ip, r3
 8002198:	4240      	negs	r0, r0
 800219a:	4464      	add	r4, ip
 800219c:	1824      	adds	r4, r4, r0
 800219e:	2701      	movs	r7, #1
 80021a0:	0223      	lsls	r3, r4, #8
 80021a2:	d400      	bmi.n	80021a6 <__aeabi_dsub+0x55a>
 80021a4:	e6f5      	b.n	8001f92 <__aeabi_dsub+0x346>
 80021a6:	2702      	movs	r7, #2
 80021a8:	e641      	b.n	8001e2e <__aeabi_dsub+0x1e2>
 80021aa:	4663      	mov	r3, ip
 80021ac:	1ac5      	subs	r5, r0, r3
 80021ae:	42a8      	cmp	r0, r5
 80021b0:	4180      	sbcs	r0, r0
 80021b2:	9b02      	ldr	r3, [sp, #8]
 80021b4:	4240      	negs	r0, r0
 80021b6:	1ae4      	subs	r4, r4, r3
 80021b8:	2701      	movs	r7, #1
 80021ba:	1a24      	subs	r4, r4, r0
 80021bc:	e5a8      	b.n	8001d10 <__aeabi_dsub+0xc4>
 80021be:	9d02      	ldr	r5, [sp, #8]
 80021c0:	4652      	mov	r2, sl
 80021c2:	002b      	movs	r3, r5
 80021c4:	3a20      	subs	r2, #32
 80021c6:	40d3      	lsrs	r3, r2
 80021c8:	0019      	movs	r1, r3
 80021ca:	4653      	mov	r3, sl
 80021cc:	2b20      	cmp	r3, #32
 80021ce:	d006      	beq.n	80021de <__aeabi_dsub+0x592>
 80021d0:	2240      	movs	r2, #64	@ 0x40
 80021d2:	1ad2      	subs	r2, r2, r3
 80021d4:	002b      	movs	r3, r5
 80021d6:	4093      	lsls	r3, r2
 80021d8:	4662      	mov	r2, ip
 80021da:	431a      	orrs	r2, r3
 80021dc:	4693      	mov	fp, r2
 80021de:	465d      	mov	r5, fp
 80021e0:	1e6b      	subs	r3, r5, #1
 80021e2:	419d      	sbcs	r5, r3
 80021e4:	430d      	orrs	r5, r1
 80021e6:	e615      	b.n	8001e14 <__aeabi_dsub+0x1c8>
 80021e8:	0762      	lsls	r2, r4, #29
 80021ea:	08c0      	lsrs	r0, r0, #3
 80021ec:	4302      	orrs	r2, r0
 80021ee:	08e4      	lsrs	r4, r4, #3
 80021f0:	e70d      	b.n	800200e <__aeabi_dsub+0x3c2>
 80021f2:	0011      	movs	r1, r2
 80021f4:	0027      	movs	r7, r4
 80021f6:	3920      	subs	r1, #32
 80021f8:	40cf      	lsrs	r7, r1
 80021fa:	2a20      	cmp	r2, #32
 80021fc:	d005      	beq.n	800220a <__aeabi_dsub+0x5be>
 80021fe:	2140      	movs	r1, #64	@ 0x40
 8002200:	1a8a      	subs	r2, r1, r2
 8002202:	4094      	lsls	r4, r2
 8002204:	0025      	movs	r5, r4
 8002206:	4305      	orrs	r5, r0
 8002208:	9503      	str	r5, [sp, #12]
 800220a:	9d03      	ldr	r5, [sp, #12]
 800220c:	1e6a      	subs	r2, r5, #1
 800220e:	4195      	sbcs	r5, r2
 8002210:	433d      	orrs	r5, r7
 8002212:	e77d      	b.n	8002110 <__aeabi_dsub+0x4c4>
 8002214:	2a00      	cmp	r2, #0
 8002216:	d100      	bne.n	800221a <__aeabi_dsub+0x5ce>
 8002218:	e744      	b.n	80020a4 <__aeabi_dsub+0x458>
 800221a:	2601      	movs	r6, #1
 800221c:	400e      	ands	r6, r1
 800221e:	4663      	mov	r3, ip
 8002220:	08d9      	lsrs	r1, r3, #3
 8002222:	9b02      	ldr	r3, [sp, #8]
 8002224:	075a      	lsls	r2, r3, #29
 8002226:	430a      	orrs	r2, r1
 8002228:	08dc      	lsrs	r4, r3, #3
 800222a:	e6f0      	b.n	800200e <__aeabi_dsub+0x3c2>
 800222c:	2a00      	cmp	r2, #0
 800222e:	d028      	beq.n	8002282 <__aeabi_dsub+0x636>
 8002230:	4662      	mov	r2, ip
 8002232:	9f02      	ldr	r7, [sp, #8]
 8002234:	08c0      	lsrs	r0, r0, #3
 8002236:	433a      	orrs	r2, r7
 8002238:	d100      	bne.n	800223c <__aeabi_dsub+0x5f0>
 800223a:	e6dc      	b.n	8001ff6 <__aeabi_dsub+0x3aa>
 800223c:	0762      	lsls	r2, r4, #29
 800223e:	4310      	orrs	r0, r2
 8002240:	2280      	movs	r2, #128	@ 0x80
 8002242:	08e4      	lsrs	r4, r4, #3
 8002244:	0312      	lsls	r2, r2, #12
 8002246:	4214      	tst	r4, r2
 8002248:	d009      	beq.n	800225e <__aeabi_dsub+0x612>
 800224a:	08fd      	lsrs	r5, r7, #3
 800224c:	4215      	tst	r5, r2
 800224e:	d106      	bne.n	800225e <__aeabi_dsub+0x612>
 8002250:	4663      	mov	r3, ip
 8002252:	2601      	movs	r6, #1
 8002254:	002c      	movs	r4, r5
 8002256:	08d8      	lsrs	r0, r3, #3
 8002258:	077b      	lsls	r3, r7, #29
 800225a:	4318      	orrs	r0, r3
 800225c:	400e      	ands	r6, r1
 800225e:	0f42      	lsrs	r2, r0, #29
 8002260:	00c0      	lsls	r0, r0, #3
 8002262:	08c0      	lsrs	r0, r0, #3
 8002264:	0752      	lsls	r2, r2, #29
 8002266:	4302      	orrs	r2, r0
 8002268:	e601      	b.n	8001e6e <__aeabi_dsub+0x222>
 800226a:	4663      	mov	r3, ip
 800226c:	1a1d      	subs	r5, r3, r0
 800226e:	45ac      	cmp	ip, r5
 8002270:	4192      	sbcs	r2, r2
 8002272:	9b02      	ldr	r3, [sp, #8]
 8002274:	4252      	negs	r2, r2
 8002276:	1b1c      	subs	r4, r3, r4
 8002278:	000e      	movs	r6, r1
 800227a:	4688      	mov	r8, r1
 800227c:	2701      	movs	r7, #1
 800227e:	1aa4      	subs	r4, r4, r2
 8002280:	e546      	b.n	8001d10 <__aeabi_dsub+0xc4>
 8002282:	4663      	mov	r3, ip
 8002284:	08d9      	lsrs	r1, r3, #3
 8002286:	9b02      	ldr	r3, [sp, #8]
 8002288:	075a      	lsls	r2, r3, #29
 800228a:	430a      	orrs	r2, r1
 800228c:	08dc      	lsrs	r4, r3, #3
 800228e:	e5ee      	b.n	8001e6e <__aeabi_dsub+0x222>
 8002290:	4663      	mov	r3, ip
 8002292:	9c02      	ldr	r4, [sp, #8]
 8002294:	9303      	str	r3, [sp, #12]
 8002296:	e6c7      	b.n	8002028 <__aeabi_dsub+0x3dc>
 8002298:	08c0      	lsrs	r0, r0, #3
 800229a:	2a00      	cmp	r2, #0
 800229c:	d100      	bne.n	80022a0 <__aeabi_dsub+0x654>
 800229e:	e6aa      	b.n	8001ff6 <__aeabi_dsub+0x3aa>
 80022a0:	0762      	lsls	r2, r4, #29
 80022a2:	4310      	orrs	r0, r2
 80022a4:	2280      	movs	r2, #128	@ 0x80
 80022a6:	08e4      	lsrs	r4, r4, #3
 80022a8:	0312      	lsls	r2, r2, #12
 80022aa:	4214      	tst	r4, r2
 80022ac:	d0d7      	beq.n	800225e <__aeabi_dsub+0x612>
 80022ae:	9f02      	ldr	r7, [sp, #8]
 80022b0:	08fd      	lsrs	r5, r7, #3
 80022b2:	4215      	tst	r5, r2
 80022b4:	d1d3      	bne.n	800225e <__aeabi_dsub+0x612>
 80022b6:	4663      	mov	r3, ip
 80022b8:	2601      	movs	r6, #1
 80022ba:	08d8      	lsrs	r0, r3, #3
 80022bc:	077b      	lsls	r3, r7, #29
 80022be:	002c      	movs	r4, r5
 80022c0:	4318      	orrs	r0, r3
 80022c2:	400e      	ands	r6, r1
 80022c4:	e7cb      	b.n	800225e <__aeabi_dsub+0x612>
 80022c6:	000a      	movs	r2, r1
 80022c8:	0027      	movs	r7, r4
 80022ca:	3a20      	subs	r2, #32
 80022cc:	40d7      	lsrs	r7, r2
 80022ce:	2920      	cmp	r1, #32
 80022d0:	d005      	beq.n	80022de <__aeabi_dsub+0x692>
 80022d2:	2240      	movs	r2, #64	@ 0x40
 80022d4:	1a52      	subs	r2, r2, r1
 80022d6:	4094      	lsls	r4, r2
 80022d8:	0025      	movs	r5, r4
 80022da:	4305      	orrs	r5, r0
 80022dc:	9503      	str	r5, [sp, #12]
 80022de:	9d03      	ldr	r5, [sp, #12]
 80022e0:	1e6a      	subs	r2, r5, #1
 80022e2:	4195      	sbcs	r5, r2
 80022e4:	432f      	orrs	r7, r5
 80022e6:	e610      	b.n	8001f0a <__aeabi_dsub+0x2be>
 80022e8:	0014      	movs	r4, r2
 80022ea:	2500      	movs	r5, #0
 80022ec:	2200      	movs	r2, #0
 80022ee:	e556      	b.n	8001d9e <__aeabi_dsub+0x152>
 80022f0:	9b02      	ldr	r3, [sp, #8]
 80022f2:	4460      	add	r0, ip
 80022f4:	4699      	mov	r9, r3
 80022f6:	4560      	cmp	r0, ip
 80022f8:	4192      	sbcs	r2, r2
 80022fa:	444c      	add	r4, r9
 80022fc:	4252      	negs	r2, r2
 80022fe:	0005      	movs	r5, r0
 8002300:	18a4      	adds	r4, r4, r2
 8002302:	e74c      	b.n	800219e <__aeabi_dsub+0x552>
 8002304:	001a      	movs	r2, r3
 8002306:	001c      	movs	r4, r3
 8002308:	432a      	orrs	r2, r5
 800230a:	d000      	beq.n	800230e <__aeabi_dsub+0x6c2>
 800230c:	e6b3      	b.n	8002076 <__aeabi_dsub+0x42a>
 800230e:	e6c9      	b.n	80020a4 <__aeabi_dsub+0x458>
 8002310:	2480      	movs	r4, #128	@ 0x80
 8002312:	2600      	movs	r6, #0
 8002314:	0324      	lsls	r4, r4, #12
 8002316:	e5ae      	b.n	8001e76 <__aeabi_dsub+0x22a>
 8002318:	2120      	movs	r1, #32
 800231a:	2500      	movs	r5, #0
 800231c:	1a09      	subs	r1, r1, r0
 800231e:	e517      	b.n	8001d50 <__aeabi_dsub+0x104>
 8002320:	2200      	movs	r2, #0
 8002322:	2500      	movs	r5, #0
 8002324:	4c0b      	ldr	r4, [pc, #44]	@ (8002354 <__aeabi_dsub+0x708>)
 8002326:	e53a      	b.n	8001d9e <__aeabi_dsub+0x152>
 8002328:	2d00      	cmp	r5, #0
 800232a:	d100      	bne.n	800232e <__aeabi_dsub+0x6e2>
 800232c:	e5f6      	b.n	8001f1c <__aeabi_dsub+0x2d0>
 800232e:	464b      	mov	r3, r9
 8002330:	1bda      	subs	r2, r3, r7
 8002332:	4692      	mov	sl, r2
 8002334:	2f00      	cmp	r7, #0
 8002336:	d100      	bne.n	800233a <__aeabi_dsub+0x6ee>
 8002338:	e66f      	b.n	800201a <__aeabi_dsub+0x3ce>
 800233a:	2a38      	cmp	r2, #56	@ 0x38
 800233c:	dc05      	bgt.n	800234a <__aeabi_dsub+0x6fe>
 800233e:	2680      	movs	r6, #128	@ 0x80
 8002340:	0436      	lsls	r6, r6, #16
 8002342:	4334      	orrs	r4, r6
 8002344:	4688      	mov	r8, r1
 8002346:	000e      	movs	r6, r1
 8002348:	e6d1      	b.n	80020ee <__aeabi_dsub+0x4a2>
 800234a:	4688      	mov	r8, r1
 800234c:	000e      	movs	r6, r1
 800234e:	2501      	movs	r5, #1
 8002350:	e6de      	b.n	8002110 <__aeabi_dsub+0x4c4>
 8002352:	46c0      	nop			@ (mov r8, r8)
 8002354:	000007ff 	.word	0x000007ff
 8002358:	ff7fffff 	.word	0xff7fffff
 800235c:	000007fe 	.word	0x000007fe
 8002360:	2d00      	cmp	r5, #0
 8002362:	d100      	bne.n	8002366 <__aeabi_dsub+0x71a>
 8002364:	e668      	b.n	8002038 <__aeabi_dsub+0x3ec>
 8002366:	464b      	mov	r3, r9
 8002368:	1bd9      	subs	r1, r3, r7
 800236a:	2f00      	cmp	r7, #0
 800236c:	d101      	bne.n	8002372 <__aeabi_dsub+0x726>
 800236e:	468a      	mov	sl, r1
 8002370:	e5a7      	b.n	8001ec2 <__aeabi_dsub+0x276>
 8002372:	2701      	movs	r7, #1
 8002374:	2938      	cmp	r1, #56	@ 0x38
 8002376:	dd00      	ble.n	800237a <__aeabi_dsub+0x72e>
 8002378:	e5c7      	b.n	8001f0a <__aeabi_dsub+0x2be>
 800237a:	2280      	movs	r2, #128	@ 0x80
 800237c:	0412      	lsls	r2, r2, #16
 800237e:	4314      	orrs	r4, r2
 8002380:	e5af      	b.n	8001ee2 <__aeabi_dsub+0x296>
 8002382:	46c0      	nop			@ (mov r8, r8)

08002384 <__aeabi_dcmpun>:
 8002384:	b5f0      	push	{r4, r5, r6, r7, lr}
 8002386:	46c6      	mov	lr, r8
 8002388:	031e      	lsls	r6, r3, #12
 800238a:	0b36      	lsrs	r6, r6, #12
 800238c:	46b0      	mov	r8, r6
 800238e:	4e0d      	ldr	r6, [pc, #52]	@ (80023c4 <__aeabi_dcmpun+0x40>)
 8002390:	030c      	lsls	r4, r1, #12
 8002392:	004d      	lsls	r5, r1, #1
 8002394:	005f      	lsls	r7, r3, #1
 8002396:	b500      	push	{lr}
 8002398:	0b24      	lsrs	r4, r4, #12
 800239a:	0d6d      	lsrs	r5, r5, #21
 800239c:	0d7f      	lsrs	r7, r7, #21
 800239e:	42b5      	cmp	r5, r6
 80023a0:	d00b      	beq.n	80023ba <__aeabi_dcmpun+0x36>
 80023a2:	4908      	ldr	r1, [pc, #32]	@ (80023c4 <__aeabi_dcmpun+0x40>)
 80023a4:	2000      	movs	r0, #0
 80023a6:	428f      	cmp	r7, r1
 80023a8:	d104      	bne.n	80023b4 <__aeabi_dcmpun+0x30>
 80023aa:	4646      	mov	r6, r8
 80023ac:	4316      	orrs	r6, r2
 80023ae:	0030      	movs	r0, r6
 80023b0:	1e43      	subs	r3, r0, #1
 80023b2:	4198      	sbcs	r0, r3
 80023b4:	bc80      	pop	{r7}
 80023b6:	46b8      	mov	r8, r7
 80023b8:	bdf0      	pop	{r4, r5, r6, r7, pc}
 80023ba:	4304      	orrs	r4, r0
 80023bc:	2001      	movs	r0, #1
 80023be:	2c00      	cmp	r4, #0
 80023c0:	d1f8      	bne.n	80023b4 <__aeabi_dcmpun+0x30>
 80023c2:	e7ee      	b.n	80023a2 <__aeabi_dcmpun+0x1e>
 80023c4:	000007ff 	.word	0x000007ff

080023c8 <__aeabi_d2iz>:
 80023c8:	000b      	movs	r3, r1
 80023ca:	0002      	movs	r2, r0
 80023cc:	b570      	push	{r4, r5, r6, lr}
 80023ce:	4d16      	ldr	r5, [pc, #88]	@ (8002428 <__aeabi_d2iz+0x60>)
 80023d0:	030c      	lsls	r4, r1, #12
 80023d2:	b082      	sub	sp, #8
 80023d4:	0049      	lsls	r1, r1, #1
 80023d6:	2000      	movs	r0, #0
 80023d8:	9200      	str	r2, [sp, #0]
 80023da:	9301      	str	r3, [sp, #4]
 80023dc:	0b24      	lsrs	r4, r4, #12
 80023de:	0d49      	lsrs	r1, r1, #21
 80023e0:	0fde      	lsrs	r6, r3, #31
 80023e2:	42a9      	cmp	r1, r5
 80023e4:	dd04      	ble.n	80023f0 <__aeabi_d2iz+0x28>
 80023e6:	4811      	ldr	r0, [pc, #68]	@ (800242c <__aeabi_d2iz+0x64>)
 80023e8:	4281      	cmp	r1, r0
 80023ea:	dd03      	ble.n	80023f4 <__aeabi_d2iz+0x2c>
 80023ec:	4b10      	ldr	r3, [pc, #64]	@ (8002430 <__aeabi_d2iz+0x68>)
 80023ee:	18f0      	adds	r0, r6, r3
 80023f0:	b002      	add	sp, #8
 80023f2:	bd70      	pop	{r4, r5, r6, pc}
 80023f4:	2080      	movs	r0, #128	@ 0x80
 80023f6:	0340      	lsls	r0, r0, #13
 80023f8:	4320      	orrs	r0, r4
 80023fa:	4c0e      	ldr	r4, [pc, #56]	@ (8002434 <__aeabi_d2iz+0x6c>)
 80023fc:	1a64      	subs	r4, r4, r1
 80023fe:	2c1f      	cmp	r4, #31
 8002400:	dd08      	ble.n	8002414 <__aeabi_d2iz+0x4c>
 8002402:	4b0d      	ldr	r3, [pc, #52]	@ (8002438 <__aeabi_d2iz+0x70>)
 8002404:	1a5b      	subs	r3, r3, r1
 8002406:	40d8      	lsrs	r0, r3
 8002408:	0003      	movs	r3, r0
 800240a:	4258      	negs	r0, r3
 800240c:	2e00      	cmp	r6, #0
 800240e:	d1ef      	bne.n	80023f0 <__aeabi_d2iz+0x28>
 8002410:	0018      	movs	r0, r3
 8002412:	e7ed      	b.n	80023f0 <__aeabi_d2iz+0x28>
 8002414:	4b09      	ldr	r3, [pc, #36]	@ (800243c <__aeabi_d2iz+0x74>)
 8002416:	9a00      	ldr	r2, [sp, #0]
 8002418:	469c      	mov	ip, r3
 800241a:	0003      	movs	r3, r0
 800241c:	4461      	add	r1, ip
 800241e:	408b      	lsls	r3, r1
 8002420:	40e2      	lsrs	r2, r4
 8002422:	4313      	orrs	r3, r2
 8002424:	e7f1      	b.n	800240a <__aeabi_d2iz+0x42>
 8002426:	46c0      	nop			@ (mov r8, r8)
 8002428:	000003fe 	.word	0x000003fe
 800242c:	0000041d 	.word	0x0000041d
 8002430:	7fffffff 	.word	0x7fffffff
 8002434:	00000433 	.word	0x00000433
 8002438:	00000413 	.word	0x00000413
 800243c:	fffffbed 	.word	0xfffffbed

08002440 <__aeabi_i2d>:
 8002440:	b570      	push	{r4, r5, r6, lr}
 8002442:	2800      	cmp	r0, #0
 8002444:	d016      	beq.n	8002474 <__aeabi_i2d+0x34>
 8002446:	17c3      	asrs	r3, r0, #31
 8002448:	18c5      	adds	r5, r0, r3
 800244a:	405d      	eors	r5, r3
 800244c:	0fc4      	lsrs	r4, r0, #31
 800244e:	0028      	movs	r0, r5
 8002450:	f000 f914 	bl	800267c <__clzsi2>
 8002454:	4b10      	ldr	r3, [pc, #64]	@ (8002498 <__aeabi_i2d+0x58>)
 8002456:	1a1b      	subs	r3, r3, r0
 8002458:	055b      	lsls	r3, r3, #21
 800245a:	0d5b      	lsrs	r3, r3, #21
 800245c:	280a      	cmp	r0, #10
 800245e:	dc14      	bgt.n	800248a <__aeabi_i2d+0x4a>
 8002460:	0002      	movs	r2, r0
 8002462:	002e      	movs	r6, r5
 8002464:	3215      	adds	r2, #21
 8002466:	4096      	lsls	r6, r2
 8002468:	220b      	movs	r2, #11
 800246a:	1a12      	subs	r2, r2, r0
 800246c:	40d5      	lsrs	r5, r2
 800246e:	032d      	lsls	r5, r5, #12
 8002470:	0b2d      	lsrs	r5, r5, #12
 8002472:	e003      	b.n	800247c <__aeabi_i2d+0x3c>
 8002474:	2400      	movs	r4, #0
 8002476:	2300      	movs	r3, #0
 8002478:	2500      	movs	r5, #0
 800247a:	2600      	movs	r6, #0
 800247c:	051b      	lsls	r3, r3, #20
 800247e:	432b      	orrs	r3, r5
 8002480:	07e4      	lsls	r4, r4, #31
 8002482:	4323      	orrs	r3, r4
 8002484:	0030      	movs	r0, r6
 8002486:	0019      	movs	r1, r3
 8002488:	bd70      	pop	{r4, r5, r6, pc}
 800248a:	380b      	subs	r0, #11
 800248c:	4085      	lsls	r5, r0
 800248e:	032d      	lsls	r5, r5, #12
 8002490:	2600      	movs	r6, #0
 8002492:	0b2d      	lsrs	r5, r5, #12
 8002494:	e7f2      	b.n	800247c <__aeabi_i2d+0x3c>
 8002496:	46c0      	nop			@ (mov r8, r8)
 8002498:	0000041e 	.word	0x0000041e

0800249c <__aeabi_ui2d>:
 800249c:	b510      	push	{r4, lr}
 800249e:	1e04      	subs	r4, r0, #0
 80024a0:	d010      	beq.n	80024c4 <__aeabi_ui2d+0x28>
 80024a2:	f000 f8eb 	bl	800267c <__clzsi2>
 80024a6:	4b0e      	ldr	r3, [pc, #56]	@ (80024e0 <__aeabi_ui2d+0x44>)
 80024a8:	1a1b      	subs	r3, r3, r0
 80024aa:	055b      	lsls	r3, r3, #21
 80024ac:	0d5b      	lsrs	r3, r3, #21
 80024ae:	280a      	cmp	r0, #10
 80024b0:	dc0f      	bgt.n	80024d2 <__aeabi_ui2d+0x36>
 80024b2:	220b      	movs	r2, #11
 80024b4:	0021      	movs	r1, r4
 80024b6:	1a12      	subs	r2, r2, r0
 80024b8:	40d1      	lsrs	r1, r2
 80024ba:	3015      	adds	r0, #21
 80024bc:	030a      	lsls	r2, r1, #12
 80024be:	4084      	lsls	r4, r0
 80024c0:	0b12      	lsrs	r2, r2, #12
 80024c2:	e001      	b.n	80024c8 <__aeabi_ui2d+0x2c>
 80024c4:	2300      	movs	r3, #0
 80024c6:	2200      	movs	r2, #0
 80024c8:	051b      	lsls	r3, r3, #20
 80024ca:	4313      	orrs	r3, r2
 80024cc:	0020      	movs	r0, r4
 80024ce:	0019      	movs	r1, r3
 80024d0:	bd10      	pop	{r4, pc}
 80024d2:	0022      	movs	r2, r4
 80024d4:	380b      	subs	r0, #11
 80024d6:	4082      	lsls	r2, r0
 80024d8:	0312      	lsls	r2, r2, #12
 80024da:	2400      	movs	r4, #0
 80024dc:	0b12      	lsrs	r2, r2, #12
 80024de:	e7f3      	b.n	80024c8 <__aeabi_ui2d+0x2c>
 80024e0:	0000041e 	.word	0x0000041e

080024e4 <__aeabi_f2d>:
 80024e4:	b570      	push	{r4, r5, r6, lr}
 80024e6:	0242      	lsls	r2, r0, #9
 80024e8:	0043      	lsls	r3, r0, #1
 80024ea:	0fc4      	lsrs	r4, r0, #31
 80024ec:	20fe      	movs	r0, #254	@ 0xfe
 80024ee:	0e1b      	lsrs	r3, r3, #24
 80024f0:	1c59      	adds	r1, r3, #1
 80024f2:	0a55      	lsrs	r5, r2, #9
 80024f4:	4208      	tst	r0, r1
 80024f6:	d00c      	beq.n	8002512 <__aeabi_f2d+0x2e>
 80024f8:	21e0      	movs	r1, #224	@ 0xe0
 80024fa:	0089      	lsls	r1, r1, #2
 80024fc:	468c      	mov	ip, r1
 80024fe:	076d      	lsls	r5, r5, #29
 8002500:	0b12      	lsrs	r2, r2, #12
 8002502:	4463      	add	r3, ip
 8002504:	051b      	lsls	r3, r3, #20
 8002506:	4313      	orrs	r3, r2
 8002508:	07e4      	lsls	r4, r4, #31
 800250a:	4323      	orrs	r3, r4
 800250c:	0028      	movs	r0, r5
 800250e:	0019      	movs	r1, r3
 8002510:	bd70      	pop	{r4, r5, r6, pc}
 8002512:	2b00      	cmp	r3, #0
 8002514:	d114      	bne.n	8002540 <__aeabi_f2d+0x5c>
 8002516:	2d00      	cmp	r5, #0
 8002518:	d01b      	beq.n	8002552 <__aeabi_f2d+0x6e>
 800251a:	0028      	movs	r0, r5
 800251c:	f000 f8ae 	bl	800267c <__clzsi2>
 8002520:	280a      	cmp	r0, #10
 8002522:	dc1c      	bgt.n	800255e <__aeabi_f2d+0x7a>
 8002524:	230b      	movs	r3, #11
 8002526:	002a      	movs	r2, r5
 8002528:	1a1b      	subs	r3, r3, r0
 800252a:	40da      	lsrs	r2, r3
 800252c:	0003      	movs	r3, r0
 800252e:	3315      	adds	r3, #21
 8002530:	409d      	lsls	r5, r3
 8002532:	4b0e      	ldr	r3, [pc, #56]	@ (800256c <__aeabi_f2d+0x88>)
 8002534:	0312      	lsls	r2, r2, #12
 8002536:	1a1b      	subs	r3, r3, r0
 8002538:	055b      	lsls	r3, r3, #21
 800253a:	0b12      	lsrs	r2, r2, #12
 800253c:	0d5b      	lsrs	r3, r3, #21
 800253e:	e7e1      	b.n	8002504 <__aeabi_f2d+0x20>
 8002540:	2d00      	cmp	r5, #0
 8002542:	d009      	beq.n	8002558 <__aeabi_f2d+0x74>
 8002544:	0b13      	lsrs	r3, r2, #12
 8002546:	2280      	movs	r2, #128	@ 0x80
 8002548:	0312      	lsls	r2, r2, #12
 800254a:	431a      	orrs	r2, r3
 800254c:	076d      	lsls	r5, r5, #29
 800254e:	4b08      	ldr	r3, [pc, #32]	@ (8002570 <__aeabi_f2d+0x8c>)
 8002550:	e7d8      	b.n	8002504 <__aeabi_f2d+0x20>
 8002552:	2300      	movs	r3, #0
 8002554:	2200      	movs	r2, #0
 8002556:	e7d5      	b.n	8002504 <__aeabi_f2d+0x20>
 8002558:	2200      	movs	r2, #0
 800255a:	4b05      	ldr	r3, [pc, #20]	@ (8002570 <__aeabi_f2d+0x8c>)
 800255c:	e7d2      	b.n	8002504 <__aeabi_f2d+0x20>
 800255e:	0003      	movs	r3, r0
 8002560:	002a      	movs	r2, r5
 8002562:	3b0b      	subs	r3, #11
 8002564:	409a      	lsls	r2, r3
 8002566:	2500      	movs	r5, #0
 8002568:	e7e3      	b.n	8002532 <__aeabi_f2d+0x4e>
 800256a:	46c0      	nop			@ (mov r8, r8)
 800256c:	00000389 	.word	0x00000389
 8002570:	000007ff 	.word	0x000007ff

08002574 <__aeabi_d2f>:
 8002574:	b5f0      	push	{r4, r5, r6, r7, lr}
 8002576:	004b      	lsls	r3, r1, #1
 8002578:	030f      	lsls	r7, r1, #12
 800257a:	0d5b      	lsrs	r3, r3, #21
 800257c:	4c3b      	ldr	r4, [pc, #236]	@ (800266c <__aeabi_d2f+0xf8>)
 800257e:	0f45      	lsrs	r5, r0, #29
 8002580:	b083      	sub	sp, #12
 8002582:	0a7f      	lsrs	r7, r7, #9
 8002584:	1c5e      	adds	r6, r3, #1
 8002586:	432f      	orrs	r7, r5
 8002588:	9000      	str	r0, [sp, #0]
 800258a:	9101      	str	r1, [sp, #4]
 800258c:	0fca      	lsrs	r2, r1, #31
 800258e:	00c5      	lsls	r5, r0, #3
 8002590:	4226      	tst	r6, r4
 8002592:	d00b      	beq.n	80025ac <__aeabi_d2f+0x38>
 8002594:	4936      	ldr	r1, [pc, #216]	@ (8002670 <__aeabi_d2f+0xfc>)
 8002596:	185c      	adds	r4, r3, r1
 8002598:	2cfe      	cmp	r4, #254	@ 0xfe
 800259a:	dd13      	ble.n	80025c4 <__aeabi_d2f+0x50>
 800259c:	20ff      	movs	r0, #255	@ 0xff
 800259e:	2300      	movs	r3, #0
 80025a0:	05c0      	lsls	r0, r0, #23
 80025a2:	4318      	orrs	r0, r3
 80025a4:	07d2      	lsls	r2, r2, #31
 80025a6:	4310      	orrs	r0, r2
 80025a8:	b003      	add	sp, #12
 80025aa:	bdf0      	pop	{r4, r5, r6, r7, pc}
 80025ac:	2b00      	cmp	r3, #0
 80025ae:	d102      	bne.n	80025b6 <__aeabi_d2f+0x42>
 80025b0:	2000      	movs	r0, #0
 80025b2:	2300      	movs	r3, #0
 80025b4:	e7f4      	b.n	80025a0 <__aeabi_d2f+0x2c>
 80025b6:	433d      	orrs	r5, r7
 80025b8:	d0f0      	beq.n	800259c <__aeabi_d2f+0x28>
 80025ba:	2380      	movs	r3, #128	@ 0x80
 80025bc:	03db      	lsls	r3, r3, #15
 80025be:	20ff      	movs	r0, #255	@ 0xff
 80025c0:	433b      	orrs	r3, r7
 80025c2:	e7ed      	b.n	80025a0 <__aeabi_d2f+0x2c>
 80025c4:	2c00      	cmp	r4, #0
 80025c6:	dd14      	ble.n	80025f2 <__aeabi_d2f+0x7e>
 80025c8:	9b00      	ldr	r3, [sp, #0]
 80025ca:	00ff      	lsls	r7, r7, #3
 80025cc:	019b      	lsls	r3, r3, #6
 80025ce:	1e58      	subs	r0, r3, #1
 80025d0:	4183      	sbcs	r3, r0
 80025d2:	0f69      	lsrs	r1, r5, #29
 80025d4:	433b      	orrs	r3, r7
 80025d6:	430b      	orrs	r3, r1
 80025d8:	0759      	lsls	r1, r3, #29
 80025da:	d041      	beq.n	8002660 <__aeabi_d2f+0xec>
 80025dc:	210f      	movs	r1, #15
 80025de:	4019      	ands	r1, r3
 80025e0:	2904      	cmp	r1, #4
 80025e2:	d028      	beq.n	8002636 <__aeabi_d2f+0xc2>
 80025e4:	3304      	adds	r3, #4
 80025e6:	0159      	lsls	r1, r3, #5
 80025e8:	d525      	bpl.n	8002636 <__aeabi_d2f+0xc2>
 80025ea:	3401      	adds	r4, #1
 80025ec:	2300      	movs	r3, #0
 80025ee:	b2e0      	uxtb	r0, r4
 80025f0:	e7d6      	b.n	80025a0 <__aeabi_d2f+0x2c>
 80025f2:	0021      	movs	r1, r4
 80025f4:	3117      	adds	r1, #23
 80025f6:	dbdb      	blt.n	80025b0 <__aeabi_d2f+0x3c>
 80025f8:	2180      	movs	r1, #128	@ 0x80
 80025fa:	201e      	movs	r0, #30
 80025fc:	0409      	lsls	r1, r1, #16
 80025fe:	4339      	orrs	r1, r7
 8002600:	1b00      	subs	r0, r0, r4
 8002602:	281f      	cmp	r0, #31
 8002604:	dd1b      	ble.n	800263e <__aeabi_d2f+0xca>
 8002606:	2602      	movs	r6, #2
 8002608:	4276      	negs	r6, r6
 800260a:	1b34      	subs	r4, r6, r4
 800260c:	000e      	movs	r6, r1
 800260e:	40e6      	lsrs	r6, r4
 8002610:	0034      	movs	r4, r6
 8002612:	2820      	cmp	r0, #32
 8002614:	d004      	beq.n	8002620 <__aeabi_d2f+0xac>
 8002616:	4817      	ldr	r0, [pc, #92]	@ (8002674 <__aeabi_d2f+0x100>)
 8002618:	4684      	mov	ip, r0
 800261a:	4463      	add	r3, ip
 800261c:	4099      	lsls	r1, r3
 800261e:	430d      	orrs	r5, r1
 8002620:	002b      	movs	r3, r5
 8002622:	1e59      	subs	r1, r3, #1
 8002624:	418b      	sbcs	r3, r1
 8002626:	4323      	orrs	r3, r4
 8002628:	0759      	lsls	r1, r3, #29
 800262a:	d015      	beq.n	8002658 <__aeabi_d2f+0xe4>
 800262c:	210f      	movs	r1, #15
 800262e:	2400      	movs	r4, #0
 8002630:	4019      	ands	r1, r3
 8002632:	2904      	cmp	r1, #4
 8002634:	d117      	bne.n	8002666 <__aeabi_d2f+0xf2>
 8002636:	019b      	lsls	r3, r3, #6
 8002638:	0a5b      	lsrs	r3, r3, #9
 800263a:	b2e0      	uxtb	r0, r4
 800263c:	e7b0      	b.n	80025a0 <__aeabi_d2f+0x2c>
 800263e:	4c0e      	ldr	r4, [pc, #56]	@ (8002678 <__aeabi_d2f+0x104>)
 8002640:	191c      	adds	r4, r3, r4
 8002642:	002b      	movs	r3, r5
 8002644:	40a5      	lsls	r5, r4
 8002646:	40c3      	lsrs	r3, r0
 8002648:	40a1      	lsls	r1, r4
 800264a:	1e68      	subs	r0, r5, #1
 800264c:	4185      	sbcs	r5, r0
 800264e:	4329      	orrs	r1, r5
 8002650:	430b      	orrs	r3, r1
 8002652:	2400      	movs	r4, #0
 8002654:	0759      	lsls	r1, r3, #29
 8002656:	d1c1      	bne.n	80025dc <__aeabi_d2f+0x68>
 8002658:	019b      	lsls	r3, r3, #6
 800265a:	2000      	movs	r0, #0
 800265c:	0a5b      	lsrs	r3, r3, #9
 800265e:	e79f      	b.n	80025a0 <__aeabi_d2f+0x2c>
 8002660:	08db      	lsrs	r3, r3, #3
 8002662:	b2e0      	uxtb	r0, r4
 8002664:	e79c      	b.n	80025a0 <__aeabi_d2f+0x2c>
 8002666:	3304      	adds	r3, #4
 8002668:	e7e5      	b.n	8002636 <__aeabi_d2f+0xc2>
 800266a:	46c0      	nop			@ (mov r8, r8)
 800266c:	000007fe 	.word	0x000007fe
 8002670:	fffffc80 	.word	0xfffffc80
 8002674:	fffffca2 	.word	0xfffffca2
 8002678:	fffffc82 	.word	0xfffffc82

0800267c <__clzsi2>:
 800267c:	211c      	movs	r1, #28
 800267e:	2301      	movs	r3, #1
 8002680:	041b      	lsls	r3, r3, #16
 8002682:	4298      	cmp	r0, r3
 8002684:	d301      	bcc.n	800268a <__clzsi2+0xe>
 8002686:	0c00      	lsrs	r0, r0, #16
 8002688:	3910      	subs	r1, #16
 800268a:	0a1b      	lsrs	r3, r3, #8
 800268c:	4298      	cmp	r0, r3
 800268e:	d301      	bcc.n	8002694 <__clzsi2+0x18>
 8002690:	0a00      	lsrs	r0, r0, #8
 8002692:	3908      	subs	r1, #8
 8002694:	091b      	lsrs	r3, r3, #4
 8002696:	4298      	cmp	r0, r3
 8002698:	d301      	bcc.n	800269e <__clzsi2+0x22>
 800269a:	0900      	lsrs	r0, r0, #4
 800269c:	3904      	subs	r1, #4
 800269e:	a202      	add	r2, pc, #8	@ (adr r2, 80026a8 <__clzsi2+0x2c>)
 80026a0:	5c10      	ldrb	r0, [r2, r0]
 80026a2:	1840      	adds	r0, r0, r1
 80026a4:	4770      	bx	lr
 80026a6:	46c0      	nop			@ (mov r8, r8)
 80026a8:	02020304 	.word	0x02020304
 80026ac:	01010101 	.word	0x01010101
	...

080026b8 <initPins>:
/* USER CODE BEGIN 0 */

// Sends data from printf to USART2


void initPins() {
 80026b8:	b510      	push	{r4, lr}
	HAL_GPIO_WritePin(GPIOB, GPIO_PIN_4, GPIO_PIN_RESET);
 80026ba:	2200      	movs	r2, #0
 80026bc:	2110      	movs	r1, #16
 80026be:	4802      	ldr	r0, [pc, #8]	@ (80026c8 <initPins+0x10>)
 80026c0:	f000 ff3a 	bl	8003538 <HAL_GPIO_WritePin>
}
 80026c4:	bd10      	pop	{r4, pc}
 80026c6:	46c0      	nop			@ (mov r8, r8)
 80026c8:	48000400 	.word	0x48000400

080026cc <potentiometer>:
	} else {
		writePinState(GPIOB, GPIO_PIN_4, GPIO_PIN_RESET);
	}
}

void potentiometer() {
 80026cc:	b510      	push	{r4, lr}
	// resolution is 12 bit, so we need 16 bits
	HAL_ADC_Start(&hadc);		//starts  ADS on STM
 80026ce:	4c11      	ldr	r4, [pc, #68]	@ (8002714 <potentiometer+0x48>)
 80026d0:	0020      	movs	r0, r4
 80026d2:	f000 fc7d 	bl	8002fd0 <HAL_ADC_Start>
	if (HAL_ADC_PollForConversion(&hadc, 20) == HAL_OK) {		// poll method for conversion
 80026d6:	2114      	movs	r1, #20
 80026d8:	0020      	movs	r0, r4
 80026da:	f000 fcc3 	bl	8003064 <HAL_ADC_PollForConversion>
 80026de:	2800      	cmp	r0, #0
 80026e0:	d112      	bne.n	8002708 <potentiometer+0x3c>
		uint16_t n = HAL_ADC_GetValue(&hadc);		// receiving 12 bits, so we use 16 bits
 80026e2:	0020      	movs	r0, r4
 80026e4:	f000 fd22 	bl	800312c <HAL_ADC_GetValue>
		// Convert to string and print
		sprintf((char*)buffer,"ADC Value: %hu\n", n);
 80026e8:	4c0b      	ldr	r4, [pc, #44]	@ (8002718 <potentiometer+0x4c>)
 80026ea:	b282      	uxth	r2, r0
 80026ec:	490b      	ldr	r1, [pc, #44]	@ (800271c <potentiometer+0x50>)
 80026ee:	0020      	movs	r0, r4
 80026f0:	f002 f918 	bl	8004924 <siprintf>
		HAL_UART_Transmit(&huart2, buffer, strlen(buffer), HAL_MAX_DELAY);
 80026f4:	0020      	movs	r0, r4
 80026f6:	f7fd fd07 	bl	8000108 <strlen>
 80026fa:	2301      	movs	r3, #1
 80026fc:	b282      	uxth	r2, r0
 80026fe:	0021      	movs	r1, r4
 8002700:	4807      	ldr	r0, [pc, #28]	@ (8002720 <potentiometer+0x54>)
 8002702:	425b      	negs	r3, r3
 8002704:	f001 fbb4 	bl	8003e70 <HAL_UART_Transmit>
	}
	HAL_Delay(500);
 8002708:	20fa      	movs	r0, #250	@ 0xfa
 800270a:	0040      	lsls	r0, r0, #1
 800270c:	f000 faf2 	bl	8002cf4 <HAL_Delay>
}
 8002710:	bd10      	pop	{r4, pc}
 8002712:	46c0      	nop			@ (mov r8, r8)
 8002714:	20000384 	.word	0x20000384
 8002718:	200001f0 	.word	0x200001f0
 800271c:	0800731c 	.word	0x0800731c
 8002720:	200002b8 	.word	0x200002b8

08002724 <thermistor>:


void thermistor() {
 8002724:	b5f7      	push	{r0, r1, r2, r4, r5, r6, r7, lr}
	HAL_ADC_Start(&hadc);
	HAL_ADC_PollForConversion(&hadc, HAL_MAX_DELAY);
 8002726:	2501      	movs	r5, #1
	HAL_ADC_Start(&hadc);
 8002728:	4c33      	ldr	r4, [pc, #204]	@ (80027f8 <thermistor+0xd4>)
	HAL_ADC_PollForConversion(&hadc, HAL_MAX_DELAY);
 800272a:	426d      	negs	r5, r5
	HAL_ADC_Start(&hadc);
 800272c:	0020      	movs	r0, r4
 800272e:	f000 fc4f 	bl	8002fd0 <HAL_ADC_Start>
	HAL_ADC_PollForConversion(&hadc, HAL_MAX_DELAY);
 8002732:	0029      	movs	r1, r5
 8002734:	0020      	movs	r0, r4
 8002736:	f000 fc95 	bl	8003064 <HAL_ADC_PollForConversion>
	float raw = HAL_ADC_GetValue(&hadc);
 800273a:	0020      	movs	r0, r4
 800273c:	f000 fcf6 	bl	800312c <HAL_ADC_GetValue>
 8002740:	f7fd ffd2 	bl	80006e8 <__aeabi_ui2f>
	raw = (raw / 4095.0) * 3.3;
 8002744:	f7ff fece 	bl	80024e4 <__aeabi_f2d>
 8002748:	2200      	movs	r2, #0
 800274a:	4b2c      	ldr	r3, [pc, #176]	@ (80027fc <thermistor+0xd8>)
 800274c:	f7fe fb72 	bl	8000e34 <__aeabi_ddiv>
 8002750:	4a2b      	ldr	r2, [pc, #172]	@ (8002800 <thermistor+0xdc>)
 8002752:	4b2c      	ldr	r3, [pc, #176]	@ (8002804 <thermistor+0xe0>)
 8002754:	f7fe ffb2 	bl	80016bc <__aeabi_dmul>
 8002758:	f7ff ff0c 	bl	8002574 <__aeabi_d2f>
	float Rt = 10000.0 * raw / (3.3 - raw);
 800275c:	f7ff fec2 	bl	80024e4 <__aeabi_f2d>
 8002760:	2200      	movs	r2, #0
 8002762:	4b29      	ldr	r3, [pc, #164]	@ (8002808 <thermistor+0xe4>)
 8002764:	000f      	movs	r7, r1
 8002766:	0006      	movs	r6, r0
 8002768:	f7fe ffa8 	bl	80016bc <__aeabi_dmul>
 800276c:	003b      	movs	r3, r7
 800276e:	9000      	str	r0, [sp, #0]
 8002770:	9101      	str	r1, [sp, #4]
 8002772:	0032      	movs	r2, r6
 8002774:	4822      	ldr	r0, [pc, #136]	@ (8002800 <thermistor+0xdc>)
 8002776:	4923      	ldr	r1, [pc, #140]	@ (8002804 <thermistor+0xe0>)
 8002778:	f7ff fa68 	bl	8001c4c <__aeabi_dsub>
 800277c:	0002      	movs	r2, r0
 800277e:	000b      	movs	r3, r1
 8002780:	9800      	ldr	r0, [sp, #0]
 8002782:	9901      	ldr	r1, [sp, #4]
 8002784:	f7fe fb56 	bl	8000e34 <__aeabi_ddiv>
 8002788:	f7ff fef4 	bl	8002574 <__aeabi_d2f>
	float beta = 4300.0;
	float R0 = 8000.0;
	float T0 = 298.15;	// T0 in Kelvin (25C)

	float temp = beta / (log(Rt/R0) + beta/T0);
 800278c:	491f      	ldr	r1, [pc, #124]	@ (800280c <thermistor+0xe8>)
 800278e:	f7fd fe8b 	bl	80004a8 <__aeabi_fdiv>
 8002792:	f7ff fea7 	bl	80024e4 <__aeabi_f2d>
 8002796:	f004 fb69 	bl	8006e6c <log>
 800279a:	22e0      	movs	r2, #224	@ 0xe0
 800279c:	4b1c      	ldr	r3, [pc, #112]	@ (8002810 <thermistor+0xec>)
 800279e:	0612      	lsls	r2, r2, #24
 80027a0:	f7fd ffe4 	bl	800076c <__aeabi_dadd>
 80027a4:	0002      	movs	r2, r0
 80027a6:	000b      	movs	r3, r1
 80027a8:	2000      	movs	r0, #0
 80027aa:	491a      	ldr	r1, [pc, #104]	@ (8002814 <thermistor+0xf0>)
 80027ac:	f7fe fb42 	bl	8000e34 <__aeabi_ddiv>
 80027b0:	f7ff fee0 	bl	8002574 <__aeabi_d2f>
    float t = (temp - 273.15);
 80027b4:	f7ff fe96 	bl	80024e4 <__aeabi_f2d>
 80027b8:	4a11      	ldr	r2, [pc, #68]	@ (8002800 <thermistor+0xdc>)
 80027ba:	4b17      	ldr	r3, [pc, #92]	@ (8002818 <thermistor+0xf4>)
 80027bc:	f7ff fa46 	bl	8001c4c <__aeabi_dsub>
 80027c0:	f7ff fed8 	bl	8002574 <__aeabi_d2f>

    // Convert to string and print
    sprintf((char*)buffer,"%.2f C\n", t);
 80027c4:	f7ff fe8e 	bl	80024e4 <__aeabi_f2d>
 80027c8:	4e14      	ldr	r6, [pc, #80]	@ (800281c <thermistor+0xf8>)
 80027ca:	0002      	movs	r2, r0
 80027cc:	000b      	movs	r3, r1
 80027ce:	0030      	movs	r0, r6
 80027d0:	4913      	ldr	r1, [pc, #76]	@ (8002820 <thermistor+0xfc>)
 80027d2:	f002 f8a7 	bl	8004924 <siprintf>
    HAL_UART_Transmit(&huart2, buffer, strlen(buffer), HAL_MAX_DELAY);
 80027d6:	0030      	movs	r0, r6
 80027d8:	f7fd fc96 	bl	8000108 <strlen>
 80027dc:	002b      	movs	r3, r5
 80027de:	0031      	movs	r1, r6
 80027e0:	b282      	uxth	r2, r0
 80027e2:	4810      	ldr	r0, [pc, #64]	@ (8002824 <thermistor+0x100>)
 80027e4:	f001 fb44 	bl	8003e70 <HAL_UART_Transmit>
    HAL_Delay(100);
 80027e8:	2064      	movs	r0, #100	@ 0x64
 80027ea:	f000 fa83 	bl	8002cf4 <HAL_Delay>
    HAL_ADC_Stop(&hadc);
 80027ee:	0020      	movs	r0, r4
 80027f0:	f000 fc1a 	bl	8003028 <HAL_ADC_Stop>
}
 80027f4:	bdf7      	pop	{r0, r1, r2, r4, r5, r6, r7, pc}
 80027f6:	46c0      	nop			@ (mov r8, r8)
 80027f8:	20000384 	.word	0x20000384
 80027fc:	40affe00 	.word	0x40affe00
 8002800:	66666666 	.word	0x66666666
 8002804:	400a6666 	.word	0x400a6666
 8002808:	40c38800 	.word	0x40c38800
 800280c:	45fa0000 	.word	0x45fa0000
 8002810:	402cd833 	.word	0x402cd833
 8002814:	40b0cc00 	.word	0x40b0cc00
 8002818:	40711266 	.word	0x40711266
 800281c:	200001f0 	.word	0x200001f0
 8002820:	0800732c 	.word	0x0800732c
 8002824:	200002b8 	.word	0x200002b8

08002828 <SystemClock_Config>:
/**
  * @brief System Clock Configuration
  * @retval None
  */
void SystemClock_Config(void)
{
 8002828:	b510      	push	{r4, lr}
  RCC_OscInitTypeDef RCC_OscInitStruct = {0};
  RCC_ClkInitTypeDef RCC_ClkInitStruct = {0};
 800282a:	2410      	movs	r4, #16
{
 800282c:	b092      	sub	sp, #72	@ 0x48
  RCC_OscInitTypeDef RCC_OscInitStruct = {0};
 800282e:	2230      	movs	r2, #48	@ 0x30
 8002830:	2100      	movs	r1, #0
 8002832:	a806      	add	r0, sp, #24
 8002834:	f002 f95a 	bl	8004aec <memset>
  RCC_ClkInitTypeDef RCC_ClkInitStruct = {0};
 8002838:	2100      	movs	r1, #0
 800283a:	0022      	movs	r2, r4
 800283c:	a801      	add	r0, sp, #4
 800283e:	f002 f955 	bl	8004aec <memset>

  /** Initializes the RCC Oscillators according to the specified parameters
  * in the RCC_OscInitTypeDef structure.
  */
  RCC_OscInitStruct.OscillatorType = RCC_OSCILLATORTYPE_HSI;
 8002842:	2302      	movs	r3, #2
  RCC_OscInitStruct.HSIState = RCC_HSI_ON;
  RCC_OscInitStruct.HSICalibrationValue = RCC_HSICALIBRATION_DEFAULT;
  RCC_OscInitStruct.PLL.PLLState = RCC_PLL_NONE;
  if (HAL_RCC_OscConfig(&RCC_OscInitStruct) != HAL_OK)
 8002844:	a805      	add	r0, sp, #20
  RCC_OscInitStruct.OscillatorType = RCC_OSCILLATORTYPE_HSI;
 8002846:	9305      	str	r3, [sp, #20]
  RCC_OscInitStruct.HSIState = RCC_HSI_ON;
 8002848:	3b01      	subs	r3, #1
 800284a:	9308      	str	r3, [sp, #32]
  RCC_OscInitStruct.HSICalibrationValue = RCC_HSICALIBRATION_DEFAULT;
 800284c:	9409      	str	r4, [sp, #36]	@ 0x24
  if (HAL_RCC_OscConfig(&RCC_OscInitStruct) != HAL_OK)
 800284e:	f000 fe79 	bl	8003544 <HAL_RCC_OscConfig>
 8002852:	1e01      	subs	r1, r0, #0
 8002854:	d001      	beq.n	800285a <SystemClock_Config+0x32>
  \details Disables IRQ interrupts by setting the I-bit in the CPSR.
           Can only be executed in Privileged modes.
 */
__STATIC_FORCEINLINE void __disable_irq(void)
{
  __ASM volatile ("cpsid i" : : : "memory");
 8002856:	b672      	cpsid	i
void Error_Handler(void)
{
  /* USER CODE BEGIN Error_Handler_Debug */
  /* User can add his own implementation to report the HAL error return state */
  __disable_irq();
  while (1)
 8002858:	e7fe      	b.n	8002858 <SystemClock_Config+0x30>
  RCC_ClkInitStruct.ClockType = RCC_CLOCKTYPE_HCLK|RCC_CLOCKTYPE_SYSCLK
 800285a:	2307      	movs	r3, #7
  RCC_ClkInitStruct.SYSCLKSource = RCC_SYSCLKSOURCE_HSI;
 800285c:	9002      	str	r0, [sp, #8]
  RCC_ClkInitStruct.AHBCLKDivider = RCC_SYSCLK_DIV1;
 800285e:	9003      	str	r0, [sp, #12]
  RCC_ClkInitStruct.APB1CLKDivider = RCC_HCLK_DIV1;
 8002860:	9004      	str	r0, [sp, #16]
  if (HAL_RCC_ClockConfig(&RCC_ClkInitStruct, FLASH_LATENCY_0) != HAL_OK)
 8002862:	a801      	add	r0, sp, #4
  RCC_ClkInitStruct.ClockType = RCC_CLOCKTYPE_HCLK|RCC_CLOCKTYPE_SYSCLK
 8002864:	9301      	str	r3, [sp, #4]
  if (HAL_RCC_ClockConfig(&RCC_ClkInitStruct, FLASH_LATENCY_0) != HAL_OK)
 8002866:	f001 f8f3 	bl	8003a50 <HAL_RCC_ClockConfig>
 800286a:	2800      	cmp	r0, #0
 800286c:	d001      	beq.n	8002872 <SystemClock_Config+0x4a>
 800286e:	b672      	cpsid	i
  while (1)
 8002870:	e7fe      	b.n	8002870 <SystemClock_Config+0x48>
}
 8002872:	b012      	add	sp, #72	@ 0x48
 8002874:	bd10      	pop	{r4, pc}
	...

08002878 <main>:
{
 8002878:	b5f0      	push	{r4, r5, r6, r7, lr}
 800287a:	b08b      	sub	sp, #44	@ 0x2c
  HAL_Init();
 800287c:	f000 fa18 	bl	8002cb0 <HAL_Init>
  SystemClock_Config();
 8002880:	f7ff ffd2 	bl	8002828 <SystemClock_Config>
  GPIO_InitTypeDef GPIO_InitStruct = {0};
 8002884:	2214      	movs	r2, #20
 8002886:	2100      	movs	r1, #0
 8002888:	a805      	add	r0, sp, #20
 800288a:	f002 f92f 	bl	8004aec <memset>
  __HAL_RCC_GPIOF_CLK_ENABLE();
 800288e:	2280      	movs	r2, #128	@ 0x80
 8002890:	4e47      	ldr	r6, [pc, #284]	@ (80029b0 <main+0x138>)
 8002892:	03d2      	lsls	r2, r2, #15
 8002894:	6973      	ldr	r3, [r6, #20]
  HAL_GPIO_WritePin(GPIOB, GPIO_PIN_4, GPIO_PIN_RESET);
 8002896:	2110      	movs	r1, #16
  __HAL_RCC_GPIOF_CLK_ENABLE();
 8002898:	4313      	orrs	r3, r2
 800289a:	6173      	str	r3, [r6, #20]
 800289c:	6973      	ldr	r3, [r6, #20]
  HAL_GPIO_WritePin(GPIOB, GPIO_PIN_4, GPIO_PIN_RESET);
 800289e:	4845      	ldr	r0, [pc, #276]	@ (80029b4 <main+0x13c>)
  __HAL_RCC_GPIOF_CLK_ENABLE();
 80028a0:	4013      	ands	r3, r2
  __HAL_RCC_GPIOA_CLK_ENABLE();
 80028a2:	2280      	movs	r2, #128	@ 0x80
  __HAL_RCC_GPIOF_CLK_ENABLE();
 80028a4:	9302      	str	r3, [sp, #8]
 80028a6:	9b02      	ldr	r3, [sp, #8]
  __HAL_RCC_GPIOA_CLK_ENABLE();
 80028a8:	6973      	ldr	r3, [r6, #20]
 80028aa:	0292      	lsls	r2, r2, #10
 80028ac:	4313      	orrs	r3, r2
 80028ae:	6173      	str	r3, [r6, #20]
 80028b0:	6973      	ldr	r3, [r6, #20]
  GPIO_InitStruct.Pull = GPIO_NOPULL;
 80028b2:	2400      	movs	r4, #0
  __HAL_RCC_GPIOA_CLK_ENABLE();
 80028b4:	4013      	ands	r3, r2
  __HAL_RCC_GPIOB_CLK_ENABLE();
 80028b6:	2280      	movs	r2, #128	@ 0x80
  __HAL_RCC_GPIOA_CLK_ENABLE();
 80028b8:	9303      	str	r3, [sp, #12]
 80028ba:	9b03      	ldr	r3, [sp, #12]
  __HAL_RCC_GPIOB_CLK_ENABLE();
 80028bc:	6973      	ldr	r3, [r6, #20]
 80028be:	02d2      	lsls	r2, r2, #11
 80028c0:	4313      	orrs	r3, r2
 80028c2:	6173      	str	r3, [r6, #20]
 80028c4:	6973      	ldr	r3, [r6, #20]
  GPIO_InitStruct.Mode = GPIO_MODE_OUTPUT_PP;
 80028c6:	2501      	movs	r5, #1
  __HAL_RCC_GPIOB_CLK_ENABLE();
 80028c8:	4013      	ands	r3, r2
 80028ca:	9304      	str	r3, [sp, #16]
  HAL_GPIO_WritePin(GPIOB, GPIO_PIN_4, GPIO_PIN_RESET);
 80028cc:	2200      	movs	r2, #0
  __HAL_RCC_GPIOB_CLK_ENABLE();
 80028ce:	9b04      	ldr	r3, [sp, #16]
  HAL_GPIO_WritePin(GPIOB, GPIO_PIN_4, GPIO_PIN_RESET);
 80028d0:	f000 fe32 	bl	8003538 <HAL_GPIO_WritePin>
  GPIO_InitStruct.Pin = GPIO_PIN_4;
 80028d4:	2310      	movs	r3, #16
  HAL_GPIO_Init(GPIOB, &GPIO_InitStruct);
 80028d6:	4837      	ldr	r0, [pc, #220]	@ (80029b4 <main+0x13c>)
 80028d8:	a905      	add	r1, sp, #20
  GPIO_InitStruct.Pin = GPIO_PIN_4;
 80028da:	9305      	str	r3, [sp, #20]
  GPIO_InitStruct.Mode = GPIO_MODE_OUTPUT_PP;
 80028dc:	9506      	str	r5, [sp, #24]
  GPIO_InitStruct.Pull = GPIO_NOPULL;
 80028de:	9407      	str	r4, [sp, #28]
  GPIO_InitStruct.Speed = GPIO_SPEED_FREQ_LOW;
 80028e0:	9408      	str	r4, [sp, #32]
  HAL_GPIO_Init(GPIOB, &GPIO_InitStruct);
 80028e2:	f000 fd77 	bl	80033d4 <HAL_GPIO_Init>
  __HAL_RCC_DMA1_CLK_ENABLE();
 80028e6:	6973      	ldr	r3, [r6, #20]
  HAL_NVIC_SetPriority(DMA1_Channel1_IRQn, 0, 0);
 80028e8:	0022      	movs	r2, r4
  __HAL_RCC_DMA1_CLK_ENABLE();
 80028ea:	432b      	orrs	r3, r5
 80028ec:	6173      	str	r3, [r6, #20]
 80028ee:	6973      	ldr	r3, [r6, #20]
  HAL_NVIC_SetPriority(DMA1_Channel1_IRQn, 0, 0);
 80028f0:	0021      	movs	r1, r4
  __HAL_RCC_DMA1_CLK_ENABLE();
 80028f2:	402b      	ands	r3, r5
  HAL_NVIC_SetPriority(DMA1_Channel1_IRQn, 0, 0);
 80028f4:	2009      	movs	r0, #9
  __HAL_RCC_DMA1_CLK_ENABLE();
 80028f6:	9301      	str	r3, [sp, #4]
 80028f8:	9b01      	ldr	r3, [sp, #4]
  HAL_NVIC_SetPriority(DMA1_Channel1_IRQn, 0, 0);
 80028fa:	f000 fc9f 	bl	800323c <HAL_NVIC_SetPriority>
  HAL_NVIC_EnableIRQ(DMA1_Channel1_IRQn);
 80028fe:	2009      	movs	r0, #9
 8002900:	f000 fcc6 	bl	8003290 <HAL_NVIC_EnableIRQ>
  huart2.Instance = USART2;
 8002904:	482c      	ldr	r0, [pc, #176]	@ (80029b8 <main+0x140>)
 8002906:	4b2d      	ldr	r3, [pc, #180]	@ (80029bc <main+0x144>)
  huart2.Init.Mode = UART_MODE_TX_RX;
 8002908:	260c      	movs	r6, #12
  huart2.Instance = USART2;
 800290a:	6003      	str	r3, [r0, #0]
  huart2.Init.BaudRate = 115200;
 800290c:	23e1      	movs	r3, #225	@ 0xe1
 800290e:	025b      	lsls	r3, r3, #9
 8002910:	6043      	str	r3, [r0, #4]
  huart2.Init.WordLength = UART_WORDLENGTH_8B;
 8002912:	6084      	str	r4, [r0, #8]
  huart2.Init.StopBits = UART_STOPBITS_1;
 8002914:	60c4      	str	r4, [r0, #12]
  huart2.Init.Parity = UART_PARITY_NONE;
 8002916:	6104      	str	r4, [r0, #16]
  huart2.Init.Mode = UART_MODE_TX_RX;
 8002918:	6146      	str	r6, [r0, #20]
  huart2.Init.HwFlowCtl = UART_HWCONTROL_NONE;
 800291a:	6184      	str	r4, [r0, #24]
  huart2.Init.OverSampling = UART_OVERSAMPLING_16;
 800291c:	61c4      	str	r4, [r0, #28]
  huart2.Init.OneBitSampling = UART_ONE_BIT_SAMPLE_DISABLE;
 800291e:	6204      	str	r4, [r0, #32]
  huart2.AdvancedInit.AdvFeatureInit = UART_ADVFEATURE_NO_INIT;
 8002920:	6244      	str	r4, [r0, #36]	@ 0x24
  if (HAL_UART_Init(&huart2) != HAL_OK)
 8002922:	f001 fb6b 	bl	8003ffc <HAL_UART_Init>
 8002926:	0007      	movs	r7, r0
 8002928:	42a0      	cmp	r0, r4
 800292a:	d001      	beq.n	8002930 <main+0xb8>
 800292c:	b672      	cpsid	i
  while (1)
 800292e:	e7fe      	b.n	800292e <main+0xb6>
  ADC_ChannelConfTypeDef sConfig = {0};
 8002930:	0001      	movs	r1, r0
 8002932:	0032      	movs	r2, r6
 8002934:	a805      	add	r0, sp, #20
 8002936:	f002 f8d9 	bl	8004aec <memset>
  hadc.Instance = ADC1;
 800293a:	4c21      	ldr	r4, [pc, #132]	@ (80029c0 <main+0x148>)
 800293c:	4b21      	ldr	r3, [pc, #132]	@ (80029c4 <main+0x14c>)
  if (HAL_ADC_Init(&hadc) != HAL_OK)
 800293e:	0020      	movs	r0, r4
  hadc.Instance = ADC1;
 8002940:	6023      	str	r3, [r4, #0]
  hadc.Init.ClockPrescaler = ADC_CLOCK_SYNC_PCLK_DIV2;
 8002942:	2380      	movs	r3, #128	@ 0x80
 8002944:	05db      	lsls	r3, r3, #23
 8002946:	6063      	str	r3, [r4, #4]
  hadc.Init.EOCSelection = ADC_EOC_SINGLE_CONV;
 8002948:	2304      	movs	r3, #4
 800294a:	6163      	str	r3, [r4, #20]
  hadc.Init.ExternalTrigConv = ADC_SOFTWARE_START;
 800294c:	23c2      	movs	r3, #194	@ 0xc2
 800294e:	33ff      	adds	r3, #255	@ 0xff
 8002950:	61e3      	str	r3, [r4, #28]
  hadc.Init.DMAContinuousRequests = DISABLE;
 8002952:	1d63      	adds	r3, r4, #5
  hadc.Init.Resolution = ADC_RESOLUTION_12B;
 8002954:	60a7      	str	r7, [r4, #8]
  hadc.Init.DataAlign = ADC_DATAALIGN_RIGHT;
 8002956:	60e7      	str	r7, [r4, #12]
  hadc.Init.ScanConvMode = ADC_SCAN_DIRECTION_FORWARD;
 8002958:	6125      	str	r5, [r4, #16]
  hadc.Init.LowPowerAutoWait = DISABLE;
 800295a:	61a7      	str	r7, [r4, #24]
  hadc.Init.ExternalTrigConvEdge = ADC_EXTERNALTRIGCONVEDGE_NONE;
 800295c:	6227      	str	r7, [r4, #32]
  hadc.Init.DMAContinuousRequests = DISABLE;
 800295e:	77df      	strb	r7, [r3, #31]
  hadc.Init.Overrun = ADC_OVR_DATA_PRESERVED;
 8002960:	62a5      	str	r5, [r4, #40]	@ 0x28
  if (HAL_ADC_Init(&hadc) != HAL_OK)
 8002962:	f000 fa93 	bl	8002e8c <HAL_ADC_Init>
 8002966:	2800      	cmp	r0, #0
 8002968:	d001      	beq.n	800296e <main+0xf6>
 800296a:	b672      	cpsid	i
  while (1)
 800296c:	e7fe      	b.n	800296c <main+0xf4>
  sConfig.Rank = ADC_RANK_CHANNEL_NUMBER;
 800296e:	2380      	movs	r3, #128	@ 0x80
 8002970:	015b      	lsls	r3, r3, #5
 8002972:	9306      	str	r3, [sp, #24]
  sConfig.SamplingTime = ADC_SAMPLETIME_1CYCLE_5;
 8002974:	2380      	movs	r3, #128	@ 0x80
  sConfig.Channel = ADC_CHANNEL_0;
 8002976:	9005      	str	r0, [sp, #20]
  sConfig.SamplingTime = ADC_SAMPLETIME_1CYCLE_5;
 8002978:	055b      	lsls	r3, r3, #21
  if (HAL_ADC_ConfigChannel(&hadc, &sConfig) != HAL_OK)
 800297a:	0020      	movs	r0, r4
 800297c:	a905      	add	r1, sp, #20
  sConfig.SamplingTime = ADC_SAMPLETIME_1CYCLE_5;
 800297e:	9307      	str	r3, [sp, #28]
  if (HAL_ADC_ConfigChannel(&hadc, &sConfig) != HAL_OK)
 8002980:	f000 fbd8 	bl	8003134 <HAL_ADC_ConfigChannel>
 8002984:	2800      	cmp	r0, #0
 8002986:	d001      	beq.n	800298c <main+0x114>
 8002988:	b672      	cpsid	i
  while (1)
 800298a:	e7fe      	b.n	800298a <main+0x112>
  sConfig.Channel = ADC_CHANNEL_8;
 800298c:	2308      	movs	r3, #8
  if (HAL_ADC_ConfigChannel(&hadc, &sConfig) != HAL_OK)
 800298e:	0020      	movs	r0, r4
 8002990:	a905      	add	r1, sp, #20
  sConfig.Channel = ADC_CHANNEL_8;
 8002992:	9305      	str	r3, [sp, #20]
  if (HAL_ADC_ConfigChannel(&hadc, &sConfig) != HAL_OK)
 8002994:	f000 fbce 	bl	8003134 <HAL_ADC_ConfigChannel>
 8002998:	2800      	cmp	r0, #0
 800299a:	d001      	beq.n	80029a0 <main+0x128>
 800299c:	b672      	cpsid	i
  while (1)
 800299e:	e7fe      	b.n	800299e <main+0x126>
  initPins();
 80029a0:	f7ff fe8a 	bl	80026b8 <initPins>
	  potentiometer();
 80029a4:	f7ff fe92 	bl	80026cc <potentiometer>
	  thermistor();
 80029a8:	f7ff febc 	bl	8002724 <thermistor>
  while (1)
 80029ac:	e7fa      	b.n	80029a4 <main+0x12c>
 80029ae:	46c0      	nop			@ (mov r8, r8)
 80029b0:	40021000 	.word	0x40021000
 80029b4:	48000400 	.word	0x48000400
 80029b8:	200002b8 	.word	0x200002b8
 80029bc:	40004400 	.word	0x40004400
 80029c0:	20000384 	.word	0x20000384
 80029c4:	40012400 	.word	0x40012400

080029c8 <Error_Handler>:
 80029c8:	b672      	cpsid	i
  while (1)
 80029ca:	e7fe      	b.n	80029ca <Error_Handler+0x2>

080029cc <HAL_MspInit>:

  /* USER CODE BEGIN MspInit 0 */

  /* USER CODE END MspInit 0 */

  __HAL_RCC_SYSCFG_CLK_ENABLE();
 80029cc:	2101      	movs	r1, #1
 80029ce:	4b0a      	ldr	r3, [pc, #40]	@ (80029f8 <HAL_MspInit+0x2c>)
{
 80029d0:	b082      	sub	sp, #8
  __HAL_RCC_SYSCFG_CLK_ENABLE();
 80029d2:	699a      	ldr	r2, [r3, #24]
 80029d4:	430a      	orrs	r2, r1
 80029d6:	619a      	str	r2, [r3, #24]
 80029d8:	699a      	ldr	r2, [r3, #24]
 80029da:	400a      	ands	r2, r1
  __HAL_RCC_PWR_CLK_ENABLE();
 80029dc:	2180      	movs	r1, #128	@ 0x80
  __HAL_RCC_SYSCFG_CLK_ENABLE();
 80029de:	9200      	str	r2, [sp, #0]
 80029e0:	9a00      	ldr	r2, [sp, #0]
  __HAL_RCC_PWR_CLK_ENABLE();
 80029e2:	69da      	ldr	r2, [r3, #28]
 80029e4:	0549      	lsls	r1, r1, #21
 80029e6:	430a      	orrs	r2, r1
 80029e8:	61da      	str	r2, [r3, #28]
 80029ea:	69db      	ldr	r3, [r3, #28]
 80029ec:	400b      	ands	r3, r1
 80029ee:	9301      	str	r3, [sp, #4]
 80029f0:	9b01      	ldr	r3, [sp, #4]
  /* System interrupt init*/

  /* USER CODE BEGIN MspInit 1 */

  /* USER CODE END MspInit 1 */
}
 80029f2:	b002      	add	sp, #8
 80029f4:	4770      	bx	lr
 80029f6:	46c0      	nop			@ (mov r8, r8)
 80029f8:	40021000 	.word	0x40021000

080029fc <HAL_ADC_MspInit>:
* This function configures the hardware resources used in this example
* @param hadc: ADC handle pointer
* @retval None
*/
void HAL_ADC_MspInit(ADC_HandleTypeDef* hadc)
{
 80029fc:	b570      	push	{r4, r5, r6, lr}
 80029fe:	0005      	movs	r5, r0
 8002a00:	b088      	sub	sp, #32
  GPIO_InitTypeDef GPIO_InitStruct = {0};
 8002a02:	2214      	movs	r2, #20
 8002a04:	2100      	movs	r1, #0
 8002a06:	a803      	add	r0, sp, #12
 8002a08:	f002 f870 	bl	8004aec <memset>
  if(hadc->Instance==ADC1)
 8002a0c:	4b24      	ldr	r3, [pc, #144]	@ (8002aa0 <HAL_ADC_MspInit+0xa4>)
 8002a0e:	682a      	ldr	r2, [r5, #0]
 8002a10:	429a      	cmp	r2, r3
 8002a12:	d143      	bne.n	8002a9c <HAL_ADC_MspInit+0xa0>
  {
  /* USER CODE BEGIN ADC1_MspInit 0 */

  /* USER CODE END ADC1_MspInit 0 */
    /* Peripheral clock enable */
    __HAL_RCC_ADC1_CLK_ENABLE();
 8002a14:	2180      	movs	r1, #128	@ 0x80
 8002a16:	4b23      	ldr	r3, [pc, #140]	@ (8002aa4 <HAL_ADC_MspInit+0xa8>)
 8002a18:	0089      	lsls	r1, r1, #2
 8002a1a:	699a      	ldr	r2, [r3, #24]
    PB0     ------> ADC_IN8
    */
    GPIO_InitStruct.Pin = GPIO_PIN_0;
    GPIO_InitStruct.Mode = GPIO_MODE_ANALOG;
    GPIO_InitStruct.Pull = GPIO_NOPULL;
    HAL_GPIO_Init(GPIOA, &GPIO_InitStruct);
 8002a1c:	2090      	movs	r0, #144	@ 0x90
    __HAL_RCC_ADC1_CLK_ENABLE();
 8002a1e:	430a      	orrs	r2, r1
 8002a20:	619a      	str	r2, [r3, #24]
 8002a22:	699a      	ldr	r2, [r3, #24]
    GPIO_InitStruct.Pin = GPIO_PIN_0;
 8002a24:	2601      	movs	r6, #1
    __HAL_RCC_ADC1_CLK_ENABLE();
 8002a26:	400a      	ands	r2, r1
    __HAL_RCC_GPIOA_CLK_ENABLE();
 8002a28:	2180      	movs	r1, #128	@ 0x80
    __HAL_RCC_ADC1_CLK_ENABLE();
 8002a2a:	9200      	str	r2, [sp, #0]
 8002a2c:	9a00      	ldr	r2, [sp, #0]
    __HAL_RCC_GPIOA_CLK_ENABLE();
 8002a2e:	695a      	ldr	r2, [r3, #20]
 8002a30:	0289      	lsls	r1, r1, #10
 8002a32:	430a      	orrs	r2, r1
 8002a34:	615a      	str	r2, [r3, #20]
 8002a36:	695a      	ldr	r2, [r3, #20]
    GPIO_InitStruct.Mode = GPIO_MODE_ANALOG;
 8002a38:	2403      	movs	r4, #3
    __HAL_RCC_GPIOA_CLK_ENABLE();
 8002a3a:	400a      	ands	r2, r1
    __HAL_RCC_GPIOB_CLK_ENABLE();
 8002a3c:	2180      	movs	r1, #128	@ 0x80
    __HAL_RCC_GPIOA_CLK_ENABLE();
 8002a3e:	9201      	str	r2, [sp, #4]
 8002a40:	9a01      	ldr	r2, [sp, #4]
    __HAL_RCC_GPIOB_CLK_ENABLE();
 8002a42:	695a      	ldr	r2, [r3, #20]
 8002a44:	02c9      	lsls	r1, r1, #11
 8002a46:	430a      	orrs	r2, r1
 8002a48:	615a      	str	r2, [r3, #20]
 8002a4a:	695b      	ldr	r3, [r3, #20]
    HAL_GPIO_Init(GPIOA, &GPIO_InitStruct);
 8002a4c:	05c0      	lsls	r0, r0, #23
    __HAL_RCC_GPIOB_CLK_ENABLE();
 8002a4e:	400b      	ands	r3, r1
 8002a50:	9302      	str	r3, [sp, #8]
    HAL_GPIO_Init(GPIOA, &GPIO_InitStruct);
 8002a52:	a903      	add	r1, sp, #12
    __HAL_RCC_GPIOB_CLK_ENABLE();
 8002a54:	9b02      	ldr	r3, [sp, #8]
    GPIO_InitStruct.Pin = GPIO_PIN_0;
 8002a56:	9603      	str	r6, [sp, #12]
    GPIO_InitStruct.Mode = GPIO_MODE_ANALOG;
 8002a58:	9404      	str	r4, [sp, #16]
    HAL_GPIO_Init(GPIOA, &GPIO_InitStruct);
 8002a5a:	f000 fcbb 	bl	80033d4 <HAL_GPIO_Init>

    GPIO_InitStruct.Pin = GPIO_PIN_0;
 8002a5e:	9603      	str	r6, [sp, #12]
    GPIO_InitStruct.Mode = GPIO_MODE_ANALOG;
    GPIO_InitStruct.Pull = GPIO_NOPULL;
 8002a60:	2600      	movs	r6, #0
    HAL_GPIO_Init(GPIOB, &GPIO_InitStruct);
 8002a62:	4811      	ldr	r0, [pc, #68]	@ (8002aa8 <HAL_ADC_MspInit+0xac>)
 8002a64:	a903      	add	r1, sp, #12
    GPIO_InitStruct.Mode = GPIO_MODE_ANALOG;
 8002a66:	9404      	str	r4, [sp, #16]
    GPIO_InitStruct.Pull = GPIO_NOPULL;
 8002a68:	9605      	str	r6, [sp, #20]
    HAL_GPIO_Init(GPIOB, &GPIO_InitStruct);
 8002a6a:	f000 fcb3 	bl	80033d4 <HAL_GPIO_Init>

    /* ADC1 DMA Init */
    /* ADC Init */
    hdma_adc.Instance = DMA1_Channel1;
 8002a6e:	4c0f      	ldr	r4, [pc, #60]	@ (8002aac <HAL_ADC_MspInit+0xb0>)
 8002a70:	4b0f      	ldr	r3, [pc, #60]	@ (8002ab0 <HAL_ADC_MspInit+0xb4>)
    hdma_adc.Init.MemInc = DMA_MINC_ENABLE;
    hdma_adc.Init.PeriphDataAlignment = DMA_PDATAALIGN_HALFWORD;
    hdma_adc.Init.MemDataAlignment = DMA_MDATAALIGN_HALFWORD;
    hdma_adc.Init.Mode = DMA_NORMAL;
    hdma_adc.Init.Priority = DMA_PRIORITY_LOW;
    if (HAL_DMA_Init(&hdma_adc) != HAL_OK)
 8002a72:	0020      	movs	r0, r4
    hdma_adc.Instance = DMA1_Channel1;
 8002a74:	6023      	str	r3, [r4, #0]
    hdma_adc.Init.MemInc = DMA_MINC_ENABLE;
 8002a76:	2380      	movs	r3, #128	@ 0x80
 8002a78:	60e3      	str	r3, [r4, #12]
    hdma_adc.Init.PeriphDataAlignment = DMA_PDATAALIGN_HALFWORD;
 8002a7a:	18db      	adds	r3, r3, r3
 8002a7c:	6123      	str	r3, [r4, #16]
    hdma_adc.Init.MemDataAlignment = DMA_MDATAALIGN_HALFWORD;
 8002a7e:	2380      	movs	r3, #128	@ 0x80
 8002a80:	00db      	lsls	r3, r3, #3
    hdma_adc.Init.Direction = DMA_PERIPH_TO_MEMORY;
 8002a82:	6066      	str	r6, [r4, #4]
    hdma_adc.Init.PeriphInc = DMA_PINC_DISABLE;
 8002a84:	60a6      	str	r6, [r4, #8]
    hdma_adc.Init.MemDataAlignment = DMA_MDATAALIGN_HALFWORD;
 8002a86:	6163      	str	r3, [r4, #20]
    hdma_adc.Init.Mode = DMA_NORMAL;
 8002a88:	61a6      	str	r6, [r4, #24]
    hdma_adc.Init.Priority = DMA_PRIORITY_LOW;
 8002a8a:	61e6      	str	r6, [r4, #28]
    if (HAL_DMA_Init(&hdma_adc) != HAL_OK)
 8002a8c:	f000 fc26 	bl	80032dc <HAL_DMA_Init>
 8002a90:	42b0      	cmp	r0, r6
 8002a92:	d001      	beq.n	8002a98 <HAL_ADC_MspInit+0x9c>
    {
      Error_Handler();
 8002a94:	f7ff ff98 	bl	80029c8 <Error_Handler>
    }

    __HAL_LINKDMA(hadc,DMA_Handle,hdma_adc);
 8002a98:	632c      	str	r4, [r5, #48]	@ 0x30
 8002a9a:	6265      	str	r5, [r4, #36]	@ 0x24

  /* USER CODE END ADC1_MspInit 1 */

  }

}
 8002a9c:	b008      	add	sp, #32
 8002a9e:	bd70      	pop	{r4, r5, r6, pc}
 8002aa0:	40012400 	.word	0x40012400
 8002aa4:	40021000 	.word	0x40021000
 8002aa8:	48000400 	.word	0x48000400
 8002aac:	20000340 	.word	0x20000340
 8002ab0:	40020008 	.word	0x40020008

08002ab4 <HAL_UART_MspInit>:
* This function configures the hardware resources used in this example
* @param huart: UART handle pointer
* @retval None
*/
void HAL_UART_MspInit(UART_HandleTypeDef* huart)
{
 8002ab4:	b510      	push	{r4, lr}
 8002ab6:	0004      	movs	r4, r0
 8002ab8:	b088      	sub	sp, #32
  GPIO_InitTypeDef GPIO_InitStruct = {0};
 8002aba:	2214      	movs	r2, #20
 8002abc:	2100      	movs	r1, #0
 8002abe:	a803      	add	r0, sp, #12
 8002ac0:	f002 f814 	bl	8004aec <memset>
  if(huart->Instance==USART2)
 8002ac4:	4b11      	ldr	r3, [pc, #68]	@ (8002b0c <HAL_UART_MspInit+0x58>)
 8002ac6:	6822      	ldr	r2, [r4, #0]
 8002ac8:	429a      	cmp	r2, r3
 8002aca:	d11d      	bne.n	8002b08 <HAL_UART_MspInit+0x54>
  {
  /* USER CODE BEGIN USART2_MspInit 0 */

  /* USER CODE END USART2_MspInit 0 */
    /* Peripheral clock enable */
    __HAL_RCC_USART2_CLK_ENABLE();
 8002acc:	2280      	movs	r2, #128	@ 0x80
 8002ace:	4b10      	ldr	r3, [pc, #64]	@ (8002b10 <HAL_UART_MspInit+0x5c>)
 8002ad0:	0292      	lsls	r2, r2, #10
 8002ad2:	69d9      	ldr	r1, [r3, #28]
    GPIO_InitStruct.Pin = GPIO_PIN_2|GPIO_PIN_3;
    GPIO_InitStruct.Mode = GPIO_MODE_AF_PP;
    GPIO_InitStruct.Pull = GPIO_NOPULL;
    GPIO_InitStruct.Speed = GPIO_SPEED_FREQ_HIGH;
    GPIO_InitStruct.Alternate = GPIO_AF1_USART2;
    HAL_GPIO_Init(GPIOA, &GPIO_InitStruct);
 8002ad4:	2090      	movs	r0, #144	@ 0x90
    __HAL_RCC_USART2_CLK_ENABLE();
 8002ad6:	4311      	orrs	r1, r2
 8002ad8:	61d9      	str	r1, [r3, #28]
 8002ada:	69d9      	ldr	r1, [r3, #28]
    HAL_GPIO_Init(GPIOA, &GPIO_InitStruct);
 8002adc:	05c0      	lsls	r0, r0, #23
    __HAL_RCC_USART2_CLK_ENABLE();
 8002ade:	4011      	ands	r1, r2
 8002ae0:	9101      	str	r1, [sp, #4]
 8002ae2:	9901      	ldr	r1, [sp, #4]
    __HAL_RCC_GPIOA_CLK_ENABLE();
 8002ae4:	6959      	ldr	r1, [r3, #20]
 8002ae6:	4311      	orrs	r1, r2
 8002ae8:	6159      	str	r1, [r3, #20]
 8002aea:	695b      	ldr	r3, [r3, #20]
    HAL_GPIO_Init(GPIOA, &GPIO_InitStruct);
 8002aec:	a903      	add	r1, sp, #12
    __HAL_RCC_GPIOA_CLK_ENABLE();
 8002aee:	4013      	ands	r3, r2
 8002af0:	9302      	str	r3, [sp, #8]
 8002af2:	9b02      	ldr	r3, [sp, #8]
    GPIO_InitStruct.Pin = GPIO_PIN_2|GPIO_PIN_3;
 8002af4:	230c      	movs	r3, #12
 8002af6:	9303      	str	r3, [sp, #12]
    GPIO_InitStruct.Mode = GPIO_MODE_AF_PP;
 8002af8:	3b0a      	subs	r3, #10
 8002afa:	9304      	str	r3, [sp, #16]
    GPIO_InitStruct.Speed = GPIO_SPEED_FREQ_HIGH;
 8002afc:	3301      	adds	r3, #1
 8002afe:	9306      	str	r3, [sp, #24]
    GPIO_InitStruct.Alternate = GPIO_AF1_USART2;
 8002b00:	3b02      	subs	r3, #2
 8002b02:	9307      	str	r3, [sp, #28]
    HAL_GPIO_Init(GPIOA, &GPIO_InitStruct);
 8002b04:	f000 fc66 	bl	80033d4 <HAL_GPIO_Init>

  /* USER CODE END USART2_MspInit 1 */

  }

}
 8002b08:	b008      	add	sp, #32
 8002b0a:	bd10      	pop	{r4, pc}
 8002b0c:	40004400 	.word	0x40004400
 8002b10:	40021000 	.word	0x40021000

08002b14 <NMI_Handler>:
{
  /* USER CODE BEGIN NonMaskableInt_IRQn 0 */

  /* USER CODE END NonMaskableInt_IRQn 0 */
  /* USER CODE BEGIN NonMaskableInt_IRQn 1 */
   while (1)
 8002b14:	e7fe      	b.n	8002b14 <NMI_Handler>

08002b16 <HardFault_Handler>:
void HardFault_Handler(void)
{
  /* USER CODE BEGIN HardFault_IRQn 0 */

  /* USER CODE END HardFault_IRQn 0 */
  while (1)
 8002b16:	e7fe      	b.n	8002b16 <HardFault_Handler>

08002b18 <SVC_Handler>:

  /* USER CODE END SVC_IRQn 0 */
  /* USER CODE BEGIN SVC_IRQn 1 */

  /* USER CODE END SVC_IRQn 1 */
}
 8002b18:	4770      	bx	lr

08002b1a <PendSV_Handler>:

/**
  * @brief This function handles Pendable request for system service.
  */
void PendSV_Handler(void)
 8002b1a:	4770      	bx	lr

08002b1c <SysTick_Handler>:

/**
  * @brief This function handles System tick timer.
  */
void SysTick_Handler(void)
{
 8002b1c:	b510      	push	{r4, lr}
  /* USER CODE BEGIN SysTick_IRQn 0 */

  /* USER CODE END SysTick_IRQn 0 */
  HAL_IncTick();
 8002b1e:	f000 f8d7 	bl	8002cd0 <HAL_IncTick>
  /* USER CODE BEGIN SysTick_IRQn 1 */

  /* USER CODE END SysTick_IRQn 1 */
}
 8002b22:	bd10      	pop	{r4, pc}

08002b24 <DMA1_Channel1_IRQHandler>:

/**
  * @brief This function handles DMA1 channel 1 interrupt.
  */
void DMA1_Channel1_IRQHandler(void)
{
 8002b24:	b510      	push	{r4, lr}
  /* USER CODE BEGIN DMA1_Channel1_IRQn 0 */

  /* USER CODE END DMA1_Channel1_IRQn 0 */
  HAL_DMA_IRQHandler(&hdma_adc);
 8002b26:	4802      	ldr	r0, [pc, #8]	@ (8002b30 <DMA1_Channel1_IRQHandler+0xc>)
 8002b28:	f000 fc0a 	bl	8003340 <HAL_DMA_IRQHandler>
  /* USER CODE BEGIN DMA1_Channel1_IRQn 1 */

  /* USER CODE END DMA1_Channel1_IRQn 1 */
}
 8002b2c:	bd10      	pop	{r4, pc}
 8002b2e:	46c0      	nop			@ (mov r8, r8)
 8002b30:	20000340 	.word	0x20000340

08002b34 <_getpid>:
}

int _getpid(void)
{
  return 1;
}
 8002b34:	2001      	movs	r0, #1
 8002b36:	4770      	bx	lr

08002b38 <_kill>:

int _kill(int pid, int sig)
{
 8002b38:	b510      	push	{r4, lr}
  (void)pid;
  (void)sig;
  errno = EINVAL;
 8002b3a:	f001 ffe3 	bl	8004b04 <__errno>
 8002b3e:	2316      	movs	r3, #22
 8002b40:	6003      	str	r3, [r0, #0]
  return -1;
 8002b42:	2001      	movs	r0, #1
}
 8002b44:	4240      	negs	r0, r0
 8002b46:	bd10      	pop	{r4, pc}

08002b48 <_exit>:

void _exit (int status)
{
 8002b48:	b510      	push	{r4, lr}
  errno = EINVAL;
 8002b4a:	f001 ffdb 	bl	8004b04 <__errno>
 8002b4e:	2316      	movs	r3, #22
 8002b50:	6003      	str	r3, [r0, #0]
  _kill(status, -1);
  while (1) {}    /* Make sure we hang here */
 8002b52:	e7fe      	b.n	8002b52 <_exit+0xa>

08002b54 <_read>:
}

__attribute__((weak)) int _read(int file, char *ptr, int len)
{
 8002b54:	b570      	push	{r4, r5, r6, lr}
 8002b56:	000e      	movs	r6, r1
 8002b58:	0014      	movs	r4, r2
  (void)file;
  int DataIdx;

  for (DataIdx = 0; DataIdx < len; DataIdx++)
 8002b5a:	2500      	movs	r5, #0
 8002b5c:	42a5      	cmp	r5, r4
 8002b5e:	db01      	blt.n	8002b64 <_read+0x10>
  {
    *ptr++ = __io_getchar();
  }

  return len;
}
 8002b60:	0020      	movs	r0, r4
 8002b62:	bd70      	pop	{r4, r5, r6, pc}
    *ptr++ = __io_getchar();
 8002b64:	e000      	b.n	8002b68 <_read+0x14>
 8002b66:	bf00      	nop
 8002b68:	5570      	strb	r0, [r6, r5]
  for (DataIdx = 0; DataIdx < len; DataIdx++)
 8002b6a:	3501      	adds	r5, #1
 8002b6c:	e7f6      	b.n	8002b5c <_read+0x8>

08002b6e <_write>:

__attribute__((weak)) int _write(int file, char *ptr, int len)
{
 8002b6e:	b570      	push	{r4, r5, r6, lr}
 8002b70:	000e      	movs	r6, r1
 8002b72:	0014      	movs	r4, r2
  (void)file;
  int DataIdx;

  for (DataIdx = 0; DataIdx < len; DataIdx++)
 8002b74:	2500      	movs	r5, #0
 8002b76:	42a5      	cmp	r5, r4
 8002b78:	db01      	blt.n	8002b7e <_write+0x10>
  {
    __io_putchar(*ptr++);
  }
  return len;
}
 8002b7a:	0020      	movs	r0, r4
 8002b7c:	bd70      	pop	{r4, r5, r6, pc}
    __io_putchar(*ptr++);
 8002b7e:	5d70      	ldrb	r0, [r6, r5]
 8002b80:	e000      	b.n	8002b84 <_write+0x16>
 8002b82:	bf00      	nop
  for (DataIdx = 0; DataIdx < len; DataIdx++)
 8002b84:	3501      	adds	r5, #1
 8002b86:	e7f6      	b.n	8002b76 <_write+0x8>

08002b88 <_close>:

int _close(int file)
{
  (void)file;
  return -1;
 8002b88:	2001      	movs	r0, #1
}
 8002b8a:	4240      	negs	r0, r0
 8002b8c:	4770      	bx	lr

08002b8e <_fstat>:


int _fstat(int file, struct stat *st)
{
  (void)file;
  st->st_mode = S_IFCHR;
 8002b8e:	2380      	movs	r3, #128	@ 0x80
 8002b90:	019b      	lsls	r3, r3, #6
  return 0;
}
 8002b92:	2000      	movs	r0, #0
  st->st_mode = S_IFCHR;
 8002b94:	604b      	str	r3, [r1, #4]
}
 8002b96:	4770      	bx	lr

08002b98 <_isatty>:

int _isatty(int file)
{
  (void)file;
  return 1;
}
 8002b98:	2001      	movs	r0, #1
 8002b9a:	4770      	bx	lr

08002b9c <_lseek>:
{
  (void)file;
  (void)ptr;
  (void)dir;
  return 0;
}
 8002b9c:	2000      	movs	r0, #0
 8002b9e:	4770      	bx	lr

08002ba0 <_sbrk>:
void *_sbrk(ptrdiff_t incr)
{
  extern uint8_t _end; /* Symbol defined in the linker script */
  extern uint8_t _estack; /* Symbol defined in the linker script */
  extern uint32_t _Min_Stack_Size; /* Symbol defined in the linker script */
  const uint32_t stack_limit = (uint32_t)&_estack - (uint32_t)&_Min_Stack_Size;
 8002ba0:	490b      	ldr	r1, [pc, #44]	@ (8002bd0 <_sbrk+0x30>)
 8002ba2:	4a0c      	ldr	r2, [pc, #48]	@ (8002bd4 <_sbrk+0x34>)
{
 8002ba4:	0003      	movs	r3, r0
  const uint32_t stack_limit = (uint32_t)&_estack - (uint32_t)&_Min_Stack_Size;
 8002ba6:	1a52      	subs	r2, r2, r1
  const uint8_t *max_heap = (uint8_t *)stack_limit;
  uint8_t *prev_heap_end;

  /* Initialize heap end at first call */
  if (NULL == __sbrk_heap_end)
 8002ba8:	490b      	ldr	r1, [pc, #44]	@ (8002bd8 <_sbrk+0x38>)
{
 8002baa:	b510      	push	{r4, lr}
  if (NULL == __sbrk_heap_end)
 8002bac:	6808      	ldr	r0, [r1, #0]
 8002bae:	2800      	cmp	r0, #0
 8002bb0:	d101      	bne.n	8002bb6 <_sbrk+0x16>
  {
    __sbrk_heap_end = &_end;
 8002bb2:	480a      	ldr	r0, [pc, #40]	@ (8002bdc <_sbrk+0x3c>)
 8002bb4:	6008      	str	r0, [r1, #0]
  }

  /* Protect heap from growing into the reserved MSP stack */
  if (__sbrk_heap_end + incr > max_heap)
 8002bb6:	6808      	ldr	r0, [r1, #0]
 8002bb8:	18c3      	adds	r3, r0, r3
 8002bba:	4293      	cmp	r3, r2
 8002bbc:	d906      	bls.n	8002bcc <_sbrk+0x2c>
  {
    errno = ENOMEM;
 8002bbe:	f001 ffa1 	bl	8004b04 <__errno>
 8002bc2:	230c      	movs	r3, #12
 8002bc4:	6003      	str	r3, [r0, #0]
    return (void *)-1;
 8002bc6:	2001      	movs	r0, #1
 8002bc8:	4240      	negs	r0, r0

  prev_heap_end = __sbrk_heap_end;
  __sbrk_heap_end += incr;

  return (void *)prev_heap_end;
}
 8002bca:	bd10      	pop	{r4, pc}
  __sbrk_heap_end += incr;
 8002bcc:	600b      	str	r3, [r1, #0]
  return (void *)prev_heap_end;
 8002bce:	e7fc      	b.n	8002bca <_sbrk+0x2a>
 8002bd0:	00000400 	.word	0x00000400
 8002bd4:	20001800 	.word	0x20001800
 8002bd8:	200003c4 	.word	0x200003c4
 8002bdc:	20000518 	.word	0x20000518

08002be0 <SystemInit>:
                         before branch to main program. This call is made inside
                         the "startup_stm32f0xx.s" file.
                         User can setups the default system clock (System clock source, PLL Multiplier
                         and Divider factors, AHB/APBx prescalers and Flash settings).
   */
}
 8002be0:	4770      	bx	lr
	...

08002be4 <Reset_Handler>:
 8002be4:	4813      	ldr	r0, [pc, #76]	@ (8002c34 <LoopForever+0x2>)
 8002be6:	4685      	mov	sp, r0
 8002be8:	f7ff fffa 	bl	8002be0 <SystemInit>
 8002bec:	4812      	ldr	r0, [pc, #72]	@ (8002c38 <LoopForever+0x6>)
 8002bee:	6801      	ldr	r1, [r0, #0]
 8002bf0:	0e09      	lsrs	r1, r1, #24
 8002bf2:	4a12      	ldr	r2, [pc, #72]	@ (8002c3c <LoopForever+0xa>)
 8002bf4:	4291      	cmp	r1, r2
 8002bf6:	d105      	bne.n	8002c04 <ApplicationStart>
 8002bf8:	4811      	ldr	r0, [pc, #68]	@ (8002c40 <LoopForever+0xe>)
 8002bfa:	4912      	ldr	r1, [pc, #72]	@ (8002c44 <LoopForever+0x12>)
 8002bfc:	6001      	str	r1, [r0, #0]
 8002bfe:	4812      	ldr	r0, [pc, #72]	@ (8002c48 <LoopForever+0x16>)
 8002c00:	4912      	ldr	r1, [pc, #72]	@ (8002c4c <LoopForever+0x1a>)
 8002c02:	6001      	str	r1, [r0, #0]

08002c04 <ApplicationStart>:
 8002c04:	4812      	ldr	r0, [pc, #72]	@ (8002c50 <LoopForever+0x1e>)
 8002c06:	4913      	ldr	r1, [pc, #76]	@ (8002c54 <LoopForever+0x22>)
 8002c08:	4a13      	ldr	r2, [pc, #76]	@ (8002c58 <LoopForever+0x26>)
 8002c0a:	2300      	movs	r3, #0
 8002c0c:	e002      	b.n	8002c14 <LoopCopyDataInit>

08002c0e <CopyDataInit>:
 8002c0e:	58d4      	ldr	r4, [r2, r3]
 8002c10:	50c4      	str	r4, [r0, r3]
 8002c12:	3304      	adds	r3, #4

08002c14 <LoopCopyDataInit>:
 8002c14:	18c4      	adds	r4, r0, r3
 8002c16:	428c      	cmp	r4, r1
 8002c18:	d3f9      	bcc.n	8002c0e <CopyDataInit>
 8002c1a:	4a10      	ldr	r2, [pc, #64]	@ (8002c5c <LoopForever+0x2a>)
 8002c1c:	4c10      	ldr	r4, [pc, #64]	@ (8002c60 <LoopForever+0x2e>)
 8002c1e:	2300      	movs	r3, #0
 8002c20:	e001      	b.n	8002c26 <LoopFillZerobss>

08002c22 <FillZerobss>:
 8002c22:	6013      	str	r3, [r2, #0]
 8002c24:	3204      	adds	r2, #4

08002c26 <LoopFillZerobss>:
 8002c26:	42a2      	cmp	r2, r4
 8002c28:	d3fb      	bcc.n	8002c22 <FillZerobss>
 8002c2a:	f001 ff71 	bl	8004b10 <__libc_init_array>
 8002c2e:	f7ff fe23 	bl	8002878 <main>

08002c32 <LoopForever>:
 8002c32:	e7fe      	b.n	8002c32 <LoopForever>
 8002c34:	20001800 	.word	0x20001800
 8002c38:	00000004 	.word	0x00000004
 8002c3c:	0000001f 	.word	0x0000001f
 8002c40:	40021018 	.word	0x40021018
 8002c44:	00000001 	.word	0x00000001
 8002c48:	40010000 	.word	0x40010000
 8002c4c:	00000000 	.word	0x00000000
 8002c50:	20000000 	.word	0x20000000
 8002c54:	200001d4 	.word	0x200001d4
 8002c58:	080076e8 	.word	0x080076e8
 8002c5c:	200001d4 	.word	0x200001d4
 8002c60:	20000518 	.word	0x20000518

08002c64 <ADC1_IRQHandler>:
 8002c64:	e7fe      	b.n	8002c64 <ADC1_IRQHandler>
	...

08002c68 <HAL_InitTick>:
  *       implementation  in user file.
  * @param TickPriority Tick interrupt priority.
  * @retval HAL status
  */
__weak HAL_StatusTypeDef HAL_InitTick(uint32_t TickPriority)
{
 8002c68:	b570      	push	{r4, r5, r6, lr}
 8002c6a:	0005      	movs	r5, r0
  /*Configure the SysTick to have interrupt in 1ms time basis*/
  if (HAL_SYSTICK_Config(SystemCoreClock / (1000U / uwTickFreq)) > 0U)
 8002c6c:	20fa      	movs	r0, #250	@ 0xfa
 8002c6e:	4b0d      	ldr	r3, [pc, #52]	@ (8002ca4 <HAL_InitTick+0x3c>)
 8002c70:	0080      	lsls	r0, r0, #2
 8002c72:	7819      	ldrb	r1, [r3, #0]
 8002c74:	f7fd fa64 	bl	8000140 <__udivsi3>
 8002c78:	4c0b      	ldr	r4, [pc, #44]	@ (8002ca8 <HAL_InitTick+0x40>)
 8002c7a:	0001      	movs	r1, r0
 8002c7c:	6820      	ldr	r0, [r4, #0]
 8002c7e:	f7fd fa5f 	bl	8000140 <__udivsi3>
 8002c82:	f000 fb11 	bl	80032a8 <HAL_SYSTICK_Config>
 8002c86:	0004      	movs	r4, r0
  {
    return HAL_ERROR;
 8002c88:	2001      	movs	r0, #1
  if (HAL_SYSTICK_Config(SystemCoreClock / (1000U / uwTickFreq)) > 0U)
 8002c8a:	2c00      	cmp	r4, #0
 8002c8c:	d109      	bne.n	8002ca2 <HAL_InitTick+0x3a>
  }

  /* Configure the SysTick IRQ priority */
  if (TickPriority < (1UL << __NVIC_PRIO_BITS))
 8002c8e:	2d03      	cmp	r5, #3
 8002c90:	d807      	bhi.n	8002ca2 <HAL_InitTick+0x3a>
  {
    HAL_NVIC_SetPriority(SysTick_IRQn, TickPriority, 0U);
 8002c92:	3802      	subs	r0, #2
 8002c94:	0022      	movs	r2, r4
 8002c96:	0029      	movs	r1, r5
 8002c98:	f000 fad0 	bl	800323c <HAL_NVIC_SetPriority>
    uwTickPrio = TickPriority;
 8002c9c:	0020      	movs	r0, r4
 8002c9e:	4b03      	ldr	r3, [pc, #12]	@ (8002cac <HAL_InitTick+0x44>)
 8002ca0:	601d      	str	r5, [r3, #0]
    return HAL_ERROR;
  }

   /* Return function status */
  return HAL_OK;
}
 8002ca2:	bd70      	pop	{r4, r5, r6, pc}
 8002ca4:	20000004 	.word	0x20000004
 8002ca8:	20000000 	.word	0x20000000
 8002cac:	20000008 	.word	0x20000008

08002cb0 <HAL_Init>:
  __HAL_FLASH_PREFETCH_BUFFER_ENABLE();
 8002cb0:	2310      	movs	r3, #16
 8002cb2:	4a06      	ldr	r2, [pc, #24]	@ (8002ccc <HAL_Init+0x1c>)
{
 8002cb4:	b510      	push	{r4, lr}
  __HAL_FLASH_PREFETCH_BUFFER_ENABLE();
 8002cb6:	6811      	ldr	r1, [r2, #0]
  HAL_InitTick(TICK_INT_PRIORITY);
 8002cb8:	2000      	movs	r0, #0
  __HAL_FLASH_PREFETCH_BUFFER_ENABLE();
 8002cba:	430b      	orrs	r3, r1
 8002cbc:	6013      	str	r3, [r2, #0]
  HAL_InitTick(TICK_INT_PRIORITY);
 8002cbe:	f7ff ffd3 	bl	8002c68 <HAL_InitTick>
  HAL_MspInit();
 8002cc2:	f7ff fe83 	bl	80029cc <HAL_MspInit>
}
 8002cc6:	2000      	movs	r0, #0
 8002cc8:	bd10      	pop	{r4, pc}
 8002cca:	46c0      	nop			@ (mov r8, r8)
 8002ccc:	40022000 	.word	0x40022000

08002cd0 <HAL_IncTick>:
  *       implementations in user file.
  * @retval None
  */
__weak void HAL_IncTick(void)
{
  uwTick += uwTickFreq;
 8002cd0:	4a03      	ldr	r2, [pc, #12]	@ (8002ce0 <HAL_IncTick+0x10>)
 8002cd2:	4b04      	ldr	r3, [pc, #16]	@ (8002ce4 <HAL_IncTick+0x14>)
 8002cd4:	6811      	ldr	r1, [r2, #0]
 8002cd6:	781b      	ldrb	r3, [r3, #0]
 8002cd8:	185b      	adds	r3, r3, r1
 8002cda:	6013      	str	r3, [r2, #0]
}
 8002cdc:	4770      	bx	lr
 8002cde:	46c0      	nop			@ (mov r8, r8)
 8002ce0:	200003c8 	.word	0x200003c8
 8002ce4:	20000004 	.word	0x20000004

08002ce8 <HAL_GetTick>:
  *       implementations in user file.
  * @retval tick value
  */
__weak uint32_t HAL_GetTick(void)
{
  return uwTick;
 8002ce8:	4b01      	ldr	r3, [pc, #4]	@ (8002cf0 <HAL_GetTick+0x8>)
 8002cea:	6818      	ldr	r0, [r3, #0]
}
 8002cec:	4770      	bx	lr
 8002cee:	46c0      	nop			@ (mov r8, r8)
 8002cf0:	200003c8 	.word	0x200003c8

08002cf4 <HAL_Delay>:
  *       implementations in user file.
  * @param Delay specifies the delay time length, in milliseconds.
  * @retval None
  */
__weak void HAL_Delay(uint32_t Delay)
{
 8002cf4:	b570      	push	{r4, r5, r6, lr}
 8002cf6:	0004      	movs	r4, r0
  uint32_t tickstart = HAL_GetTick();
 8002cf8:	f7ff fff6 	bl	8002ce8 <HAL_GetTick>
 8002cfc:	0005      	movs	r5, r0
  uint32_t wait = Delay;
  
  /* Add a freq to guarantee minimum wait */
  if (wait < HAL_MAX_DELAY)
 8002cfe:	1c63      	adds	r3, r4, #1
 8002d00:	d002      	beq.n	8002d08 <HAL_Delay+0x14>
  {
    wait += (uint32_t)(uwTickFreq);
 8002d02:	4b04      	ldr	r3, [pc, #16]	@ (8002d14 <HAL_Delay+0x20>)
 8002d04:	781b      	ldrb	r3, [r3, #0]
 8002d06:	18e4      	adds	r4, r4, r3
  }
  
  while((HAL_GetTick() - tickstart) < wait)
 8002d08:	f7ff ffee 	bl	8002ce8 <HAL_GetTick>
 8002d0c:	1b40      	subs	r0, r0, r5
 8002d0e:	42a0      	cmp	r0, r4
 8002d10:	d3fa      	bcc.n	8002d08 <HAL_Delay+0x14>
  {
  }
}
 8002d12:	bd70      	pop	{r4, r5, r6, pc}
 8002d14:	20000004 	.word	0x20000004

08002d18 <ADC_ConversionStop>:
  /* Check the parameters */
  assert_param(IS_ADC_ALL_INSTANCE(hadc->Instance));
    
  /* Verification if ADC is not already stopped on regular group to bypass    */
  /* this function if not needed.                                             */
  if (ADC_IS_CONVERSION_ONGOING_REGULAR(hadc))
 8002d18:	2204      	movs	r2, #4
 8002d1a:	6803      	ldr	r3, [r0, #0]
{
 8002d1c:	b570      	push	{r4, r5, r6, lr}
  if (ADC_IS_CONVERSION_ONGOING_REGULAR(hadc))
 8002d1e:	6899      	ldr	r1, [r3, #8]
{
 8002d20:	0004      	movs	r4, r0
  if (ADC_IS_CONVERSION_ONGOING_REGULAR(hadc))
 8002d22:	4211      	tst	r1, r2
 8002d24:	d101      	bne.n	8002d2a <ADC_ConversionStop+0x12>
      }
    }
  }
   
  /* Return HAL status */
  return HAL_OK;
 8002d26:	2000      	movs	r0, #0
}
 8002d28:	bd70      	pop	{r4, r5, r6, pc}
    if (HAL_IS_BIT_SET(hadc->Instance->CR, ADC_CR_ADSTART) && 
 8002d2a:	6899      	ldr	r1, [r3, #8]
 8002d2c:	4211      	tst	r1, r2
 8002d2e:	d006      	beq.n	8002d3e <ADC_ConversionStop+0x26>
        HAL_IS_BIT_CLR(hadc->Instance->CR, ADC_CR_ADDIS)                  )
 8002d30:	689a      	ldr	r2, [r3, #8]
    if (HAL_IS_BIT_SET(hadc->Instance->CR, ADC_CR_ADSTART) && 
 8002d32:	0792      	lsls	r2, r2, #30
 8002d34:	d403      	bmi.n	8002d3e <ADC_ConversionStop+0x26>
      hadc->Instance->CR |= ADC_CR_ADSTP;
 8002d36:	2210      	movs	r2, #16
 8002d38:	6899      	ldr	r1, [r3, #8]
 8002d3a:	430a      	orrs	r2, r1
 8002d3c:	609a      	str	r2, [r3, #8]
    tickstart = HAL_GetTick();
 8002d3e:	f7ff ffd3 	bl	8002ce8 <HAL_GetTick>
    while((hadc->Instance->CR & ADC_CR_ADSTART) != RESET)
 8002d42:	2604      	movs	r6, #4
    tickstart = HAL_GetTick();
 8002d44:	0005      	movs	r5, r0
    while((hadc->Instance->CR & ADC_CR_ADSTART) != RESET)
 8002d46:	6823      	ldr	r3, [r4, #0]
 8002d48:	689b      	ldr	r3, [r3, #8]
 8002d4a:	4233      	tst	r3, r6
 8002d4c:	d0eb      	beq.n	8002d26 <ADC_ConversionStop+0xe>
      if((HAL_GetTick() - tickstart) > ADC_STOP_CONVERSION_TIMEOUT)
 8002d4e:	f7ff ffcb 	bl	8002ce8 <HAL_GetTick>
 8002d52:	1b40      	subs	r0, r0, r5
 8002d54:	2802      	cmp	r0, #2
 8002d56:	d9f6      	bls.n	8002d46 <ADC_ConversionStop+0x2e>
        if((hadc->Instance->CR & ADC_CR_ADSTART) != RESET)
 8002d58:	6823      	ldr	r3, [r4, #0]
 8002d5a:	689b      	ldr	r3, [r3, #8]
 8002d5c:	4233      	tst	r3, r6
 8002d5e:	d0f2      	beq.n	8002d46 <ADC_ConversionStop+0x2e>
          SET_BIT(hadc->State, HAL_ADC_STATE_ERROR_INTERNAL);
 8002d60:	2310      	movs	r3, #16
          SET_BIT(hadc->ErrorCode, HAL_ADC_ERROR_INTERNAL);
 8002d62:	2001      	movs	r0, #1
          SET_BIT(hadc->State, HAL_ADC_STATE_ERROR_INTERNAL);
 8002d64:	6ba2      	ldr	r2, [r4, #56]	@ 0x38
 8002d66:	4313      	orrs	r3, r2
 8002d68:	63a3      	str	r3, [r4, #56]	@ 0x38
          SET_BIT(hadc->ErrorCode, HAL_ADC_ERROR_INTERNAL);
 8002d6a:	6be3      	ldr	r3, [r4, #60]	@ 0x3c
 8002d6c:	4303      	orrs	r3, r0
 8002d6e:	63e3      	str	r3, [r4, #60]	@ 0x3c
          return HAL_ERROR;
 8002d70:	e7da      	b.n	8002d28 <ADC_ConversionStop+0x10>

08002d72 <ADC_Disable>:
  if (ADC_IS_ENABLE(hadc) != RESET)
 8002d72:	2103      	movs	r1, #3
 8002d74:	6803      	ldr	r3, [r0, #0]
{
 8002d76:	b570      	push	{r4, r5, r6, lr}
  if (ADC_IS_ENABLE(hadc) != RESET)
 8002d78:	689a      	ldr	r2, [r3, #8]
{
 8002d7a:	0004      	movs	r4, r0
  if (ADC_IS_ENABLE(hadc) != RESET)
 8002d7c:	400a      	ands	r2, r1
 8002d7e:	2a01      	cmp	r2, #1
 8002d80:	d001      	beq.n	8002d86 <ADC_Disable+0x14>
  return HAL_OK;
 8002d82:	2000      	movs	r0, #0
}
 8002d84:	bd70      	pop	{r4, r5, r6, pc}
  if (ADC_IS_ENABLE(hadc) != RESET)
 8002d86:	6819      	ldr	r1, [r3, #0]
 8002d88:	4211      	tst	r1, r2
 8002d8a:	d102      	bne.n	8002d92 <ADC_Disable+0x20>
 8002d8c:	68da      	ldr	r2, [r3, #12]
 8002d8e:	0412      	lsls	r2, r2, #16
 8002d90:	d5f7      	bpl.n	8002d82 <ADC_Disable+0x10>
    if (ADC_DISABLING_CONDITIONS(hadc) != RESET)
 8002d92:	2205      	movs	r2, #5
 8002d94:	689d      	ldr	r5, [r3, #8]
 8002d96:	4015      	ands	r5, r2
 8002d98:	2d01      	cmp	r5, #1
 8002d9a:	d11c      	bne.n	8002dd6 <ADC_Disable+0x64>
      __HAL_ADC_DISABLE(hadc);
 8002d9c:	6899      	ldr	r1, [r3, #8]
 8002d9e:	3a03      	subs	r2, #3
 8002da0:	430a      	orrs	r2, r1
 8002da2:	609a      	str	r2, [r3, #8]
 8002da4:	2203      	movs	r2, #3
 8002da6:	601a      	str	r2, [r3, #0]
    tickstart = HAL_GetTick();
 8002da8:	f7ff ff9e 	bl	8002ce8 <HAL_GetTick>
 8002dac:	0006      	movs	r6, r0
    while(HAL_IS_BIT_SET(hadc->Instance->CR, ADC_CR_ADEN))
 8002dae:	6823      	ldr	r3, [r4, #0]
 8002db0:	689b      	ldr	r3, [r3, #8]
 8002db2:	422b      	tst	r3, r5
 8002db4:	d0e5      	beq.n	8002d82 <ADC_Disable+0x10>
      if((HAL_GetTick() - tickstart) > ADC_DISABLE_TIMEOUT)
 8002db6:	f7ff ff97 	bl	8002ce8 <HAL_GetTick>
 8002dba:	1b80      	subs	r0, r0, r6
 8002dbc:	2802      	cmp	r0, #2
 8002dbe:	d9f6      	bls.n	8002dae <ADC_Disable+0x3c>
        if(HAL_IS_BIT_SET(hadc->Instance->CR, ADC_CR_ADEN))
 8002dc0:	6823      	ldr	r3, [r4, #0]
 8002dc2:	689b      	ldr	r3, [r3, #8]
 8002dc4:	422b      	tst	r3, r5
 8002dc6:	d0f2      	beq.n	8002dae <ADC_Disable+0x3c>
          SET_BIT(hadc->State, HAL_ADC_STATE_ERROR_INTERNAL);
 8002dc8:	2310      	movs	r3, #16
 8002dca:	6ba2      	ldr	r2, [r4, #56]	@ 0x38
 8002dcc:	4313      	orrs	r3, r2
 8002dce:	63a3      	str	r3, [r4, #56]	@ 0x38
          SET_BIT(hadc->ErrorCode, HAL_ADC_ERROR_INTERNAL);
 8002dd0:	6be3      	ldr	r3, [r4, #60]	@ 0x3c
 8002dd2:	432b      	orrs	r3, r5
 8002dd4:	e006      	b.n	8002de4 <ADC_Disable+0x72>
      SET_BIT(hadc->State, HAL_ADC_STATE_ERROR_INTERNAL);
 8002dd6:	2310      	movs	r3, #16
 8002dd8:	6ba2      	ldr	r2, [r4, #56]	@ 0x38
 8002dda:	4313      	orrs	r3, r2
 8002ddc:	63a3      	str	r3, [r4, #56]	@ 0x38
      SET_BIT(hadc->ErrorCode, HAL_ADC_ERROR_INTERNAL);
 8002dde:	2301      	movs	r3, #1
 8002de0:	6be2      	ldr	r2, [r4, #60]	@ 0x3c
 8002de2:	4313      	orrs	r3, r2
      return HAL_ERROR;
 8002de4:	2001      	movs	r0, #1
          SET_BIT(hadc->ErrorCode, HAL_ADC_ERROR_INTERNAL);
 8002de6:	63e3      	str	r3, [r4, #60]	@ 0x3c
          return HAL_ERROR;
 8002de8:	e7cc      	b.n	8002d84 <ADC_Disable+0x12>
	...

08002dec <ADC_Enable.constprop.0>:
  __IO uint32_t wait_loop_index = 0U;
 8002dec:	2300      	movs	r3, #0
static HAL_StatusTypeDef ADC_Enable(ADC_HandleTypeDef* hadc)
 8002dee:	b573      	push	{r0, r1, r4, r5, r6, lr}
  if (ADC_IS_ENABLE(hadc) == RESET)
 8002df0:	2103      	movs	r1, #3
  __IO uint32_t wait_loop_index = 0U;
 8002df2:	9301      	str	r3, [sp, #4]
  if (ADC_IS_ENABLE(hadc) == RESET)
 8002df4:	6803      	ldr	r3, [r0, #0]
static HAL_StatusTypeDef ADC_Enable(ADC_HandleTypeDef* hadc)
 8002df6:	0004      	movs	r4, r0
  if (ADC_IS_ENABLE(hadc) == RESET)
 8002df8:	689a      	ldr	r2, [r3, #8]
 8002dfa:	400a      	ands	r2, r1
 8002dfc:	2a01      	cmp	r2, #1
 8002dfe:	d107      	bne.n	8002e10 <ADC_Enable.constprop.0+0x24>
 8002e00:	6819      	ldr	r1, [r3, #0]
 8002e02:	4211      	tst	r1, r2
 8002e04:	d001      	beq.n	8002e0a <ADC_Enable.constprop.0+0x1e>
  return HAL_OK;
 8002e06:	2000      	movs	r0, #0
}
 8002e08:	bd76      	pop	{r1, r2, r4, r5, r6, pc}
  if (ADC_IS_ENABLE(hadc) == RESET)
 8002e0a:	68da      	ldr	r2, [r3, #12]
 8002e0c:	0412      	lsls	r2, r2, #16
 8002e0e:	d4fa      	bmi.n	8002e06 <ADC_Enable.constprop.0+0x1a>
    if (ADC_ENABLING_CONDITIONS(hadc) == RESET)
 8002e10:	6899      	ldr	r1, [r3, #8]
 8002e12:	4a1b      	ldr	r2, [pc, #108]	@ (8002e80 <ADC_Enable.constprop.0+0x94>)
 8002e14:	4211      	tst	r1, r2
 8002e16:	d009      	beq.n	8002e2c <ADC_Enable.constprop.0+0x40>
      SET_BIT(hadc->State, HAL_ADC_STATE_ERROR_INTERNAL);
 8002e18:	2310      	movs	r3, #16
 8002e1a:	6ba2      	ldr	r2, [r4, #56]	@ 0x38
 8002e1c:	4313      	orrs	r3, r2
 8002e1e:	63a3      	str	r3, [r4, #56]	@ 0x38
      SET_BIT(hadc->ErrorCode, HAL_ADC_ERROR_INTERNAL);
 8002e20:	2301      	movs	r3, #1
 8002e22:	6be2      	ldr	r2, [r4, #60]	@ 0x3c
 8002e24:	4313      	orrs	r3, r2
      return HAL_ERROR;
 8002e26:	2001      	movs	r0, #1
          SET_BIT(hadc->ErrorCode, HAL_ADC_ERROR_INTERNAL);
 8002e28:	63e3      	str	r3, [r4, #60]	@ 0x3c
          return HAL_ERROR;
 8002e2a:	e7ed      	b.n	8002e08 <ADC_Enable.constprop.0+0x1c>
    __HAL_ADC_ENABLE(hadc);
 8002e2c:	2201      	movs	r2, #1
 8002e2e:	6899      	ldr	r1, [r3, #8]
 8002e30:	430a      	orrs	r2, r1
 8002e32:	609a      	str	r2, [r3, #8]
    wait_loop_index = (ADC_STAB_DELAY_US * (SystemCoreClock / 1000000U));
 8002e34:	4b13      	ldr	r3, [pc, #76]	@ (8002e84 <ADC_Enable.constprop.0+0x98>)
 8002e36:	4914      	ldr	r1, [pc, #80]	@ (8002e88 <ADC_Enable.constprop.0+0x9c>)
 8002e38:	6818      	ldr	r0, [r3, #0]
 8002e3a:	f7fd f981 	bl	8000140 <__udivsi3>
 8002e3e:	9001      	str	r0, [sp, #4]
    while(wait_loop_index != 0U)
 8002e40:	9b01      	ldr	r3, [sp, #4]
 8002e42:	2b00      	cmp	r3, #0
 8002e44:	d117      	bne.n	8002e76 <ADC_Enable.constprop.0+0x8a>
    tickstart = HAL_GetTick();
 8002e46:	f7ff ff4f 	bl	8002ce8 <HAL_GetTick>
    while(__HAL_ADC_GET_FLAG(hadc, ADC_FLAG_RDY) == RESET)
 8002e4a:	2501      	movs	r5, #1
    tickstart = HAL_GetTick();
 8002e4c:	0006      	movs	r6, r0
    while(__HAL_ADC_GET_FLAG(hadc, ADC_FLAG_RDY) == RESET)
 8002e4e:	6823      	ldr	r3, [r4, #0]
 8002e50:	681b      	ldr	r3, [r3, #0]
 8002e52:	422b      	tst	r3, r5
 8002e54:	d1d7      	bne.n	8002e06 <ADC_Enable.constprop.0+0x1a>
      if((HAL_GetTick() - tickstart) > ADC_ENABLE_TIMEOUT)
 8002e56:	f7ff ff47 	bl	8002ce8 <HAL_GetTick>
 8002e5a:	1b80      	subs	r0, r0, r6
 8002e5c:	2802      	cmp	r0, #2
 8002e5e:	d9f6      	bls.n	8002e4e <ADC_Enable.constprop.0+0x62>
        if(__HAL_ADC_GET_FLAG(hadc, ADC_FLAG_RDY) == RESET)
 8002e60:	6823      	ldr	r3, [r4, #0]
 8002e62:	681b      	ldr	r3, [r3, #0]
 8002e64:	422b      	tst	r3, r5
 8002e66:	d1f2      	bne.n	8002e4e <ADC_Enable.constprop.0+0x62>
          SET_BIT(hadc->State, HAL_ADC_STATE_ERROR_INTERNAL);
 8002e68:	2310      	movs	r3, #16
 8002e6a:	6ba2      	ldr	r2, [r4, #56]	@ 0x38
 8002e6c:	4313      	orrs	r3, r2
 8002e6e:	63a3      	str	r3, [r4, #56]	@ 0x38
          SET_BIT(hadc->ErrorCode, HAL_ADC_ERROR_INTERNAL);
 8002e70:	6be3      	ldr	r3, [r4, #60]	@ 0x3c
 8002e72:	432b      	orrs	r3, r5
 8002e74:	e7d7      	b.n	8002e26 <ADC_Enable.constprop.0+0x3a>
      wait_loop_index--;
 8002e76:	9b01      	ldr	r3, [sp, #4]
 8002e78:	3b01      	subs	r3, #1
 8002e7a:	9301      	str	r3, [sp, #4]
 8002e7c:	e7e0      	b.n	8002e40 <ADC_Enable.constprop.0+0x54>
 8002e7e:	46c0      	nop			@ (mov r8, r8)
 8002e80:	80000017 	.word	0x80000017
 8002e84:	20000000 	.word	0x20000000
 8002e88:	000f4240 	.word	0x000f4240

08002e8c <HAL_ADC_Init>:
{
 8002e8c:	b570      	push	{r4, r5, r6, lr}
 8002e8e:	1e04      	subs	r4, r0, #0
  if(hadc == NULL)
 8002e90:	d100      	bne.n	8002e94 <HAL_ADC_Init+0x8>
 8002e92:	e090      	b.n	8002fb6 <HAL_ADC_Init+0x12a>
  if (hadc->State == HAL_ADC_STATE_RESET)
 8002e94:	6b83      	ldr	r3, [r0, #56]	@ 0x38
 8002e96:	2b00      	cmp	r3, #0
 8002e98:	d105      	bne.n	8002ea6 <HAL_ADC_Init+0x1a>
    hadc->Lock = HAL_UNLOCKED;
 8002e9a:	0002      	movs	r2, r0
 8002e9c:	3234      	adds	r2, #52	@ 0x34
    ADC_CLEAR_ERRORCODE(hadc);
 8002e9e:	63c3      	str	r3, [r0, #60]	@ 0x3c
    hadc->Lock = HAL_UNLOCKED;
 8002ea0:	7013      	strb	r3, [r2, #0]
    HAL_ADC_MspInit(hadc);
 8002ea2:	f7ff fdab 	bl	80029fc <HAL_ADC_MspInit>
  if (HAL_IS_BIT_CLR(hadc->State, HAL_ADC_STATE_ERROR_INTERNAL) &&
 8002ea6:	6ba3      	ldr	r3, [r4, #56]	@ 0x38
 8002ea8:	06db      	lsls	r3, r3, #27
 8002eaa:	d500      	bpl.n	8002eae <HAL_ADC_Init+0x22>
 8002eac:	e085      	b.n	8002fba <HAL_ADC_Init+0x12e>
      (ADC_IS_CONVERSION_ONGOING_REGULAR(hadc) == RESET)          )
 8002eae:	6822      	ldr	r2, [r4, #0]
 8002eb0:	6893      	ldr	r3, [r2, #8]
      (tmp_hal_status == HAL_OK)                                &&
 8002eb2:	075b      	lsls	r3, r3, #29
 8002eb4:	d500      	bpl.n	8002eb8 <HAL_ADC_Init+0x2c>
 8002eb6:	e080      	b.n	8002fba <HAL_ADC_Init+0x12e>
    ADC_STATE_CLR_SET(hadc->State,
 8002eb8:	6ba1      	ldr	r1, [r4, #56]	@ 0x38
 8002eba:	4b42      	ldr	r3, [pc, #264]	@ (8002fc4 <HAL_ADC_Init+0x138>)
 8002ebc:	4019      	ands	r1, r3
 8002ebe:	3306      	adds	r3, #6
 8002ec0:	33ff      	adds	r3, #255	@ 0xff
 8002ec2:	430b      	orrs	r3, r1
    if (ADC_IS_ENABLE(hadc) == RESET)
 8002ec4:	2103      	movs	r1, #3
    ADC_STATE_CLR_SET(hadc->State,
 8002ec6:	63a3      	str	r3, [r4, #56]	@ 0x38
    if (ADC_IS_ENABLE(hadc) == RESET)
 8002ec8:	6893      	ldr	r3, [r2, #8]
 8002eca:	400b      	ands	r3, r1
 8002ecc:	2b01      	cmp	r3, #1
 8002ece:	d105      	bne.n	8002edc <HAL_ADC_Init+0x50>
 8002ed0:	6811      	ldr	r1, [r2, #0]
 8002ed2:	4219      	tst	r1, r3
 8002ed4:	d10e      	bne.n	8002ef4 <HAL_ADC_Init+0x68>
 8002ed6:	68d3      	ldr	r3, [r2, #12]
 8002ed8:	041b      	lsls	r3, r3, #16
 8002eda:	d40b      	bmi.n	8002ef4 <HAL_ADC_Init+0x68>
      MODIFY_REG(hadc->Instance->CFGR1,
 8002edc:	2118      	movs	r1, #24
 8002ede:	68d3      	ldr	r3, [r2, #12]
 8002ee0:	438b      	bics	r3, r1
 8002ee2:	68a1      	ldr	r1, [r4, #8]
 8002ee4:	430b      	orrs	r3, r1
 8002ee6:	60d3      	str	r3, [r2, #12]
      MODIFY_REG(hadc->Instance->CFGR2    ,
 8002ee8:	6913      	ldr	r3, [r2, #16]
 8002eea:	6861      	ldr	r1, [r4, #4]
 8002eec:	009b      	lsls	r3, r3, #2
 8002eee:	089b      	lsrs	r3, r3, #2
 8002ef0:	430b      	orrs	r3, r1
 8002ef2:	6113      	str	r3, [r2, #16]
    hadc->Instance->CFGR1 &= ~( ADC_CFGR1_DISCEN  |
 8002ef4:	68d3      	ldr	r3, [r2, #12]
 8002ef6:	4934      	ldr	r1, [pc, #208]	@ (8002fc8 <HAL_ADC_Init+0x13c>)
 8002ef8:	400b      	ands	r3, r1
 8002efa:	60d3      	str	r3, [r2, #12]
    tmpCFGR1 |= (ADC_CFGR1_AUTOWAIT((uint32_t)hadc->Init.LowPowerAutoWait)        |
 8002efc:	7e23      	ldrb	r3, [r4, #24]
                 ADC_CFGR1_AUTOOFF((uint32_t)hadc->Init.LowPowerAutoPowerOff)     |
 8002efe:	7e60      	ldrb	r0, [r4, #25]
    tmpCFGR1 |= (ADC_CFGR1_AUTOWAIT((uint32_t)hadc->Init.LowPowerAutoWait)        |
 8002f00:	039b      	lsls	r3, r3, #14
                 ADC_CFGR1_AUTOOFF((uint32_t)hadc->Init.LowPowerAutoPowerOff)     |
 8002f02:	03c0      	lsls	r0, r0, #15
    tmpCFGR1 |= (ADC_CFGR1_AUTOWAIT((uint32_t)hadc->Init.LowPowerAutoWait)        |
 8002f04:	4303      	orrs	r3, r0
                 ADC_CFGR1_CONTINUOUS((uint32_t)hadc->Init.ContinuousConvMode)    |
 8002f06:	7ea1      	ldrb	r1, [r4, #26]
                 ADC_SCANDIR(hadc->Init.ScanConvMode)                             |
 8002f08:	68e0      	ldr	r0, [r4, #12]
 8002f0a:	4303      	orrs	r3, r0
                 ADC_CFGR1_CONTINUOUS((uint32_t)hadc->Init.ContinuousConvMode)    |
 8002f0c:	0348      	lsls	r0, r1, #13
                 ADC_SCANDIR(hadc->Init.ScanConvMode)                             |
 8002f0e:	4303      	orrs	r3, r0
                 ADC_CFGR1_DMACONTREQ((uint32_t)hadc->Init.DMAContinuousRequests)  );
 8002f10:	1d60      	adds	r0, r4, #5
 8002f12:	7fc0      	ldrb	r0, [r0, #31]
 8002f14:	0040      	lsls	r0, r0, #1
                 ADC_SCANDIR(hadc->Init.ScanConvMode)                             |
 8002f16:	4303      	orrs	r3, r0
                 ADC_CFGR1_OVERRUN(hadc->Init.Overrun)                            |
 8002f18:	6aa0      	ldr	r0, [r4, #40]	@ 0x28
 8002f1a:	3801      	subs	r0, #1
 8002f1c:	1e45      	subs	r5, r0, #1
 8002f1e:	41a8      	sbcs	r0, r5
 8002f20:	0300      	lsls	r0, r0, #12
                 ADC_SCANDIR(hadc->Init.ScanConvMode)                             |
 8002f22:	4303      	orrs	r3, r0
 8002f24:	6920      	ldr	r0, [r4, #16]
 8002f26:	3802      	subs	r0, #2
 8002f28:	4245      	negs	r5, r0
 8002f2a:	4168      	adcs	r0, r5
 8002f2c:	0080      	lsls	r0, r0, #2
 8002f2e:	4303      	orrs	r3, r0
    if (hadc->Init.DiscontinuousConvMode == ENABLE)
 8002f30:	7ee0      	ldrb	r0, [r4, #27]
 8002f32:	2801      	cmp	r0, #1
 8002f34:	d104      	bne.n	8002f40 <HAL_ADC_Init+0xb4>
      if (hadc->Init.ContinuousConvMode == DISABLE)
 8002f36:	2900      	cmp	r1, #0
 8002f38:	d12b      	bne.n	8002f92 <HAL_ADC_Init+0x106>
        tmpCFGR1 |= ADC_CFGR1_DISCEN;
 8002f3a:	2180      	movs	r1, #128	@ 0x80
 8002f3c:	0249      	lsls	r1, r1, #9
 8002f3e:	430b      	orrs	r3, r1
    if (hadc->Init.ExternalTrigConv != ADC_SOFTWARE_START)
 8002f40:	20c2      	movs	r0, #194	@ 0xc2
 8002f42:	69e1      	ldr	r1, [r4, #28]
 8002f44:	30ff      	adds	r0, #255	@ 0xff
 8002f46:	4281      	cmp	r1, r0
 8002f48:	d002      	beq.n	8002f50 <HAL_ADC_Init+0xc4>
      tmpCFGR1 |= ( hadc->Init.ExternalTrigConv    |
 8002f4a:	6a20      	ldr	r0, [r4, #32]
 8002f4c:	4301      	orrs	r1, r0
 8002f4e:	430b      	orrs	r3, r1
    if (IS_ADC_SAMPLE_TIME(hadc->Init.SamplingTimeCommon))
 8002f50:	2080      	movs	r0, #128	@ 0x80
    hadc->Instance->CFGR1 |= tmpCFGR1;
 8002f52:	68d1      	ldr	r1, [r2, #12]
    if (IS_ADC_SAMPLE_TIME(hadc->Init.SamplingTimeCommon))
 8002f54:	0540      	lsls	r0, r0, #21
    hadc->Instance->CFGR1 |= tmpCFGR1;
 8002f56:	4319      	orrs	r1, r3
 8002f58:	60d1      	str	r1, [r2, #12]
    if (IS_ADC_SAMPLE_TIME(hadc->Init.SamplingTimeCommon))
 8002f5a:	6ae1      	ldr	r1, [r4, #44]	@ 0x2c
 8002f5c:	4281      	cmp	r1, r0
 8002f5e:	d002      	beq.n	8002f66 <HAL_ADC_Init+0xda>
 8002f60:	1e48      	subs	r0, r1, #1
 8002f62:	2806      	cmp	r0, #6
 8002f64:	d807      	bhi.n	8002f76 <HAL_ADC_Init+0xea>
      hadc->Instance->SMPR &= ~(ADC_SMPR_SMP);
 8002f66:	2507      	movs	r5, #7
 8002f68:	6950      	ldr	r0, [r2, #20]
      hadc->Instance->SMPR |= ADC_SMPR_SET(hadc->Init.SamplingTimeCommon);
 8002f6a:	4029      	ands	r1, r5
      hadc->Instance->SMPR &= ~(ADC_SMPR_SMP);
 8002f6c:	43a8      	bics	r0, r5
 8002f6e:	6150      	str	r0, [r2, #20]
      hadc->Instance->SMPR |= ADC_SMPR_SET(hadc->Init.SamplingTimeCommon);
 8002f70:	6950      	ldr	r0, [r2, #20]
 8002f72:	4301      	orrs	r1, r0
 8002f74:	6151      	str	r1, [r2, #20]
    if ((hadc->Instance->CFGR1 & ~(ADC_CFGR1_AWDCH | ADC_CFGR1_AWDEN | ADC_CFGR1_AWDSGL | ADC_CFGR1_RES))
 8002f76:	68d2      	ldr	r2, [r2, #12]
 8002f78:	4914      	ldr	r1, [pc, #80]	@ (8002fcc <HAL_ADC_Init+0x140>)
 8002f7a:	400a      	ands	r2, r1
 8002f7c:	429a      	cmp	r2, r3
 8002f7e:	d110      	bne.n	8002fa2 <HAL_ADC_Init+0x116>
      ADC_CLEAR_ERRORCODE(hadc);
 8002f80:	2000      	movs	r0, #0
      ADC_STATE_CLR_SET(hadc->State,
 8002f82:	2303      	movs	r3, #3
      ADC_CLEAR_ERRORCODE(hadc);
 8002f84:	63e0      	str	r0, [r4, #60]	@ 0x3c
      ADC_STATE_CLR_SET(hadc->State,
 8002f86:	6ba2      	ldr	r2, [r4, #56]	@ 0x38
 8002f88:	439a      	bics	r2, r3
 8002f8a:	3b02      	subs	r3, #2
 8002f8c:	4313      	orrs	r3, r2
 8002f8e:	63a3      	str	r3, [r4, #56]	@ 0x38
}
 8002f90:	bd70      	pop	{r4, r5, r6, pc}
        SET_BIT(hadc->State, HAL_ADC_STATE_ERROR_CONFIG);
 8002f92:	2120      	movs	r1, #32
 8002f94:	6ba5      	ldr	r5, [r4, #56]	@ 0x38
 8002f96:	4329      	orrs	r1, r5
 8002f98:	63a1      	str	r1, [r4, #56]	@ 0x38
        SET_BIT(hadc->ErrorCode, HAL_ADC_ERROR_INTERNAL);
 8002f9a:	6be1      	ldr	r1, [r4, #60]	@ 0x3c
 8002f9c:	4308      	orrs	r0, r1
 8002f9e:	63e0      	str	r0, [r4, #60]	@ 0x3c
 8002fa0:	e7ce      	b.n	8002f40 <HAL_ADC_Init+0xb4>
      ADC_STATE_CLR_SET(hadc->State,
 8002fa2:	2312      	movs	r3, #18
 8002fa4:	6ba2      	ldr	r2, [r4, #56]	@ 0x38
 8002fa6:	439a      	bics	r2, r3
 8002fa8:	3b02      	subs	r3, #2
 8002faa:	4313      	orrs	r3, r2
 8002fac:	63a3      	str	r3, [r4, #56]	@ 0x38
      SET_BIT(hadc->ErrorCode, HAL_ADC_ERROR_INTERNAL);
 8002fae:	2301      	movs	r3, #1
 8002fb0:	6be2      	ldr	r2, [r4, #60]	@ 0x3c
 8002fb2:	4313      	orrs	r3, r2
 8002fb4:	63e3      	str	r3, [r4, #60]	@ 0x3c
    return HAL_ERROR;
 8002fb6:	2001      	movs	r0, #1
 8002fb8:	e7ea      	b.n	8002f90 <HAL_ADC_Init+0x104>
    SET_BIT(hadc->State, HAL_ADC_STATE_ERROR_INTERNAL);
 8002fba:	2310      	movs	r3, #16
 8002fbc:	6ba2      	ldr	r2, [r4, #56]	@ 0x38
 8002fbe:	4313      	orrs	r3, r2
 8002fc0:	63a3      	str	r3, [r4, #56]	@ 0x38
    tmp_hal_status = HAL_ERROR;
 8002fc2:	e7f8      	b.n	8002fb6 <HAL_ADC_Init+0x12a>
 8002fc4:	fffffefd 	.word	0xfffffefd
 8002fc8:	fffe0219 	.word	0xfffe0219
 8002fcc:	833fffe7 	.word	0x833fffe7

08002fd0 <HAL_ADC_Start>:
  if (ADC_IS_CONVERSION_ONGOING_REGULAR(hadc) == RESET)
 8002fd0:	6803      	ldr	r3, [r0, #0]
{
 8002fd2:	b570      	push	{r4, r5, r6, lr}
  if (ADC_IS_CONVERSION_ONGOING_REGULAR(hadc) == RESET)
 8002fd4:	689b      	ldr	r3, [r3, #8]
{
 8002fd6:	0004      	movs	r4, r0
    __HAL_LOCK(hadc);
 8002fd8:	2002      	movs	r0, #2
  if (ADC_IS_CONVERSION_ONGOING_REGULAR(hadc) == RESET)
 8002fda:	075b      	lsls	r3, r3, #29
 8002fdc:	d41a      	bmi.n	8003014 <HAL_ADC_Start+0x44>
    __HAL_LOCK(hadc);
 8002fde:	0025      	movs	r5, r4
 8002fe0:	3534      	adds	r5, #52	@ 0x34
 8002fe2:	782b      	ldrb	r3, [r5, #0]
 8002fe4:	2b01      	cmp	r3, #1
 8002fe6:	d015      	beq.n	8003014 <HAL_ADC_Start+0x44>
 8002fe8:	2301      	movs	r3, #1
 8002fea:	702b      	strb	r3, [r5, #0]
    if (hadc->Init.LowPowerAutoPowerOff != ENABLE)
 8002fec:	7e63      	ldrb	r3, [r4, #25]
 8002fee:	2b01      	cmp	r3, #1
 8002ff0:	d111      	bne.n	8003016 <HAL_ADC_Start+0x46>
      ADC_STATE_CLR_SET(hadc->State,
 8002ff2:	6ba2      	ldr	r2, [r4, #56]	@ 0x38
 8002ff4:	4b0b      	ldr	r3, [pc, #44]	@ (8003024 <HAL_ADC_Start+0x54>)
      ADC_CLEAR_ERRORCODE(hadc);
 8002ff6:	2000      	movs	r0, #0
      ADC_STATE_CLR_SET(hadc->State,
 8002ff8:	401a      	ands	r2, r3
 8002ffa:	2380      	movs	r3, #128	@ 0x80
 8002ffc:	005b      	lsls	r3, r3, #1
 8002ffe:	4313      	orrs	r3, r2
      __HAL_ADC_CLEAR_FLAG(hadc, (ADC_FLAG_EOC | ADC_FLAG_EOS | ADC_FLAG_OVR));
 8003000:	221c      	movs	r2, #28
      ADC_STATE_CLR_SET(hadc->State,
 8003002:	63a3      	str	r3, [r4, #56]	@ 0x38
      ADC_CLEAR_ERRORCODE(hadc);
 8003004:	63e0      	str	r0, [r4, #60]	@ 0x3c
      __HAL_UNLOCK(hadc);
 8003006:	7028      	strb	r0, [r5, #0]
      __HAL_ADC_CLEAR_FLAG(hadc, (ADC_FLAG_EOC | ADC_FLAG_EOS | ADC_FLAG_OVR));
 8003008:	6823      	ldr	r3, [r4, #0]
 800300a:	601a      	str	r2, [r3, #0]
      hadc->Instance->CR |= ADC_CR_ADSTART;
 800300c:	6899      	ldr	r1, [r3, #8]
 800300e:	3a18      	subs	r2, #24
 8003010:	430a      	orrs	r2, r1
 8003012:	609a      	str	r2, [r3, #8]
}
 8003014:	bd70      	pop	{r4, r5, r6, pc}
      tmp_hal_status = ADC_Enable(hadc);
 8003016:	0020      	movs	r0, r4
 8003018:	f7ff fee8 	bl	8002dec <ADC_Enable.constprop.0>
    if (tmp_hal_status == HAL_OK)
 800301c:	2800      	cmp	r0, #0
 800301e:	d0e8      	beq.n	8002ff2 <HAL_ADC_Start+0x22>
 8003020:	e7f8      	b.n	8003014 <HAL_ADC_Start+0x44>
 8003022:	46c0      	nop			@ (mov r8, r8)
 8003024:	fffff0fe 	.word	0xfffff0fe

08003028 <HAL_ADC_Stop>:
{ 
 8003028:	b570      	push	{r4, r5, r6, lr}
  __HAL_LOCK(hadc);
 800302a:	0006      	movs	r6, r0
 800302c:	3634      	adds	r6, #52	@ 0x34
 800302e:	7833      	ldrb	r3, [r6, #0]
{ 
 8003030:	0004      	movs	r4, r0
  __HAL_LOCK(hadc);
 8003032:	2002      	movs	r0, #2
 8003034:	2b01      	cmp	r3, #1
 8003036:	d012      	beq.n	800305e <HAL_ADC_Stop+0x36>
 8003038:	2501      	movs	r5, #1
  tmp_hal_status = ADC_ConversionStop(hadc);
 800303a:	0020      	movs	r0, r4
  __HAL_LOCK(hadc);
 800303c:	7035      	strb	r5, [r6, #0]
  tmp_hal_status = ADC_ConversionStop(hadc);
 800303e:	f7ff fe6b 	bl	8002d18 <ADC_ConversionStop>
  if (tmp_hal_status == HAL_OK)
 8003042:	2800      	cmp	r0, #0
 8003044:	d109      	bne.n	800305a <HAL_ADC_Stop+0x32>
    tmp_hal_status = ADC_Disable(hadc);
 8003046:	0020      	movs	r0, r4
 8003048:	f7ff fe93 	bl	8002d72 <ADC_Disable>
    if (tmp_hal_status == HAL_OK)
 800304c:	2800      	cmp	r0, #0
 800304e:	d104      	bne.n	800305a <HAL_ADC_Stop+0x32>
      ADC_STATE_CLR_SET(hadc->State,
 8003050:	6ba3      	ldr	r3, [r4, #56]	@ 0x38
 8003052:	4a03      	ldr	r2, [pc, #12]	@ (8003060 <HAL_ADC_Stop+0x38>)
 8003054:	4013      	ands	r3, r2
 8003056:	431d      	orrs	r5, r3
 8003058:	63a5      	str	r5, [r4, #56]	@ 0x38
  __HAL_UNLOCK(hadc);
 800305a:	2300      	movs	r3, #0
 800305c:	7033      	strb	r3, [r6, #0]
}
 800305e:	bd70      	pop	{r4, r5, r6, pc}
 8003060:	fffffefe 	.word	0xfffffefe

08003064 <HAL_ADC_PollForConversion>:
{
 8003064:	b5f8      	push	{r3, r4, r5, r6, r7, lr}
  if (hadc->Init.EOCSelection == ADC_EOC_SEQ_CONV)
 8003066:	6945      	ldr	r5, [r0, #20]
{
 8003068:	0004      	movs	r4, r0
 800306a:	000e      	movs	r6, r1
  if (hadc->Init.EOCSelection == ADC_EOC_SEQ_CONV)
 800306c:	2d08      	cmp	r5, #8
 800306e:	d00d      	beq.n	800308c <HAL_ADC_PollForConversion+0x28>
    if (HAL_IS_BIT_SET(hadc->Instance->CFGR1, ADC_CFGR1_DMAEN))
 8003070:	6803      	ldr	r3, [r0, #0]
 8003072:	2001      	movs	r0, #1
 8003074:	68db      	ldr	r3, [r3, #12]
      tmp_Flag_EOC = (ADC_FLAG_EOC | ADC_FLAG_EOS);
 8003076:	250c      	movs	r5, #12
    if (HAL_IS_BIT_SET(hadc->Instance->CFGR1, ADC_CFGR1_DMAEN))
 8003078:	4203      	tst	r3, r0
 800307a:	d007      	beq.n	800308c <HAL_ADC_PollForConversion+0x28>
      SET_BIT(hadc->State, HAL_ADC_STATE_ERROR_CONFIG);
 800307c:	2320      	movs	r3, #32
 800307e:	6ba2      	ldr	r2, [r4, #56]	@ 0x38
      __HAL_UNLOCK(hadc);
 8003080:	3434      	adds	r4, #52	@ 0x34
      SET_BIT(hadc->State, HAL_ADC_STATE_ERROR_CONFIG);
 8003082:	4313      	orrs	r3, r2
 8003084:	6063      	str	r3, [r4, #4]
      __HAL_UNLOCK(hadc);
 8003086:	2300      	movs	r3, #0
 8003088:	7023      	strb	r3, [r4, #0]
}
 800308a:	bdf8      	pop	{r3, r4, r5, r6, r7, pc}
  tickstart = HAL_GetTick();
 800308c:	f7ff fe2c 	bl	8002ce8 <HAL_GetTick>
 8003090:	0007      	movs	r7, r0
  while(HAL_IS_BIT_CLR(hadc->Instance->ISR, tmp_Flag_EOC))
 8003092:	6823      	ldr	r3, [r4, #0]
 8003094:	681a      	ldr	r2, [r3, #0]
 8003096:	4215      	tst	r5, r2
 8003098:	d022      	beq.n	80030e0 <HAL_ADC_PollForConversion+0x7c>
  SET_BIT(hadc->State, HAL_ADC_STATE_REG_EOC);
 800309a:	2280      	movs	r2, #128	@ 0x80
 800309c:	6ba1      	ldr	r1, [r4, #56]	@ 0x38
 800309e:	0092      	lsls	r2, r2, #2
 80030a0:	430a      	orrs	r2, r1
 80030a2:	63a2      	str	r2, [r4, #56]	@ 0x38
  if(ADC_IS_SOFTWARE_START_REGULAR(hadc)        && 
 80030a4:	22c0      	movs	r2, #192	@ 0xc0
 80030a6:	68d9      	ldr	r1, [r3, #12]
 80030a8:	0112      	lsls	r2, r2, #4
 80030aa:	4211      	tst	r1, r2
 80030ac:	d113      	bne.n	80030d6 <HAL_ADC_PollForConversion+0x72>
 80030ae:	7ea2      	ldrb	r2, [r4, #26]
 80030b0:	2a00      	cmp	r2, #0
 80030b2:	d110      	bne.n	80030d6 <HAL_ADC_PollForConversion+0x72>
    if( __HAL_ADC_GET_FLAG(hadc, ADC_FLAG_EOS) )
 80030b4:	681a      	ldr	r2, [r3, #0]
 80030b6:	0712      	lsls	r2, r2, #28
 80030b8:	d50d      	bpl.n	80030d6 <HAL_ADC_PollForConversion+0x72>
      if (ADC_IS_CONVERSION_ONGOING_REGULAR(hadc) == RESET)
 80030ba:	689a      	ldr	r2, [r3, #8]
 80030bc:	0752      	lsls	r2, r2, #29
 80030be:	d427      	bmi.n	8003110 <HAL_ADC_PollForConversion+0xac>
        __HAL_ADC_DISABLE_IT(hadc, ADC_IT_EOC | ADC_IT_EOS);
 80030c0:	210c      	movs	r1, #12
 80030c2:	685a      	ldr	r2, [r3, #4]
 80030c4:	438a      	bics	r2, r1
 80030c6:	605a      	str	r2, [r3, #4]
        ADC_STATE_CLR_SET(hadc->State,
 80030c8:	6ba1      	ldr	r1, [r4, #56]	@ 0x38
 80030ca:	4a17      	ldr	r2, [pc, #92]	@ (8003128 <HAL_ADC_PollForConversion+0xc4>)
 80030cc:	4011      	ands	r1, r2
 80030ce:	3204      	adds	r2, #4
 80030d0:	32ff      	adds	r2, #255	@ 0xff
 80030d2:	430a      	orrs	r2, r1
 80030d4:	63a2      	str	r2, [r4, #56]	@ 0x38
  if (hadc->Init.LowPowerAutoWait == DISABLE)
 80030d6:	7e22      	ldrb	r2, [r4, #24]
 80030d8:	2a00      	cmp	r2, #0
 80030da:	d022      	beq.n	8003122 <HAL_ADC_PollForConversion+0xbe>
  return HAL_OK;
 80030dc:	2000      	movs	r0, #0
 80030de:	e7d4      	b.n	800308a <HAL_ADC_PollForConversion+0x26>
    if(Timeout != HAL_MAX_DELAY)
 80030e0:	1c72      	adds	r2, r6, #1
 80030e2:	d0d7      	beq.n	8003094 <HAL_ADC_PollForConversion+0x30>
      if((Timeout == 0) || ((HAL_GetTick()-tickstart) > Timeout))
 80030e4:	2e00      	cmp	r6, #0
 80030e6:	d10d      	bne.n	8003104 <HAL_ADC_PollForConversion+0xa0>
        if(HAL_IS_BIT_CLR(hadc->Instance->ISR, tmp_Flag_EOC))
 80030e8:	002a      	movs	r2, r5
 80030ea:	6823      	ldr	r3, [r4, #0]
 80030ec:	681b      	ldr	r3, [r3, #0]
 80030ee:	401a      	ands	r2, r3
 80030f0:	421d      	tst	r5, r3
 80030f2:	d1ce      	bne.n	8003092 <HAL_ADC_PollForConversion+0x2e>
          SET_BIT(hadc->State, HAL_ADC_STATE_TIMEOUT);
 80030f4:	2304      	movs	r3, #4
 80030f6:	6ba1      	ldr	r1, [r4, #56]	@ 0x38
          __HAL_UNLOCK(hadc);
 80030f8:	3434      	adds	r4, #52	@ 0x34
          SET_BIT(hadc->State, HAL_ADC_STATE_TIMEOUT);
 80030fa:	430b      	orrs	r3, r1
 80030fc:	6063      	str	r3, [r4, #4]
          return HAL_TIMEOUT;
 80030fe:	2003      	movs	r0, #3
          __HAL_UNLOCK(hadc);
 8003100:	7022      	strb	r2, [r4, #0]
          return HAL_TIMEOUT;
 8003102:	e7c2      	b.n	800308a <HAL_ADC_PollForConversion+0x26>
      if((Timeout == 0) || ((HAL_GetTick()-tickstart) > Timeout))
 8003104:	f7ff fdf0 	bl	8002ce8 <HAL_GetTick>
 8003108:	1bc0      	subs	r0, r0, r7
 800310a:	42b0      	cmp	r0, r6
 800310c:	d8ec      	bhi.n	80030e8 <HAL_ADC_PollForConversion+0x84>
 800310e:	e7c0      	b.n	8003092 <HAL_ADC_PollForConversion+0x2e>
        SET_BIT(hadc->State, HAL_ADC_STATE_ERROR_CONFIG);
 8003110:	2220      	movs	r2, #32
 8003112:	6ba1      	ldr	r1, [r4, #56]	@ 0x38
 8003114:	430a      	orrs	r2, r1
 8003116:	63a2      	str	r2, [r4, #56]	@ 0x38
        SET_BIT(hadc->ErrorCode, HAL_ADC_ERROR_INTERNAL);
 8003118:	2201      	movs	r2, #1
 800311a:	6be1      	ldr	r1, [r4, #60]	@ 0x3c
 800311c:	430a      	orrs	r2, r1
 800311e:	63e2      	str	r2, [r4, #60]	@ 0x3c
 8003120:	e7d9      	b.n	80030d6 <HAL_ADC_PollForConversion+0x72>
    __HAL_ADC_CLEAR_FLAG(hadc, (ADC_FLAG_EOC | ADC_FLAG_EOS));
 8003122:	220c      	movs	r2, #12
 8003124:	601a      	str	r2, [r3, #0]
 8003126:	e7d9      	b.n	80030dc <HAL_ADC_PollForConversion+0x78>
 8003128:	fffffefe 	.word	0xfffffefe

0800312c <HAL_ADC_GetValue>:
  return hadc->Instance->DR;
 800312c:	6803      	ldr	r3, [r0, #0]
 800312e:	6c18      	ldr	r0, [r3, #64]	@ 0x40
}
 8003130:	4770      	bx	lr
	...

08003134 <HAL_ADC_ConfigChannel>:
{
 8003134:	b5f7      	push	{r0, r1, r2, r4, r5, r6, r7, lr}
  __IO uint32_t wait_loop_index = 0U;
 8003136:	2200      	movs	r2, #0
  __HAL_LOCK(hadc);
 8003138:	0004      	movs	r4, r0
  __IO uint32_t wait_loop_index = 0U;
 800313a:	9201      	str	r2, [sp, #4]
  __HAL_LOCK(hadc);
 800313c:	3434      	adds	r4, #52	@ 0x34
 800313e:	7822      	ldrb	r2, [r4, #0]
{
 8003140:	0003      	movs	r3, r0
  if (! IS_ADC_SAMPLE_TIME(hadc->Init.SamplingTimeCommon))
 8003142:	6ac5      	ldr	r5, [r0, #44]	@ 0x2c
  __HAL_LOCK(hadc);
 8003144:	2002      	movs	r0, #2
 8003146:	2a01      	cmp	r2, #1
 8003148:	d02a      	beq.n	80031a0 <HAL_ADC_ConfigChannel+0x6c>
 800314a:	3801      	subs	r0, #1
 800314c:	7020      	strb	r0, [r4, #0]
  if (ADC_IS_CONVERSION_ONGOING_REGULAR(hadc) == RESET)
 800314e:	681a      	ldr	r2, [r3, #0]
 8003150:	6896      	ldr	r6, [r2, #8]
 8003152:	0776      	lsls	r6, r6, #29
 8003154:	d45e      	bmi.n	8003214 <HAL_ADC_ConfigChannel+0xe0>
      hadc->Instance->CHSELR |= ADC_CHSELR_CHANNEL(sConfig->Channel);
 8003156:	680b      	ldr	r3, [r1, #0]
    if (sConfig->Rank != ADC_RANK_NONE)
 8003158:	684f      	ldr	r7, [r1, #4]
      if(ADC_IS_CHANNEL_INTERNAL(sConfig->Channel))
 800315a:	001e      	movs	r6, r3
    if (sConfig->Rank != ADC_RANK_NONE)
 800315c:	46bc      	mov	ip, r7
 800315e:	4f30      	ldr	r7, [pc, #192]	@ (8003220 <HAL_ADC_ConfigChannel+0xec>)
      hadc->Instance->CHSELR |= ADC_CHSELR_CHANNEL(sConfig->Channel);
 8003160:	4098      	lsls	r0, r3
      if(ADC_IS_CHANNEL_INTERNAL(sConfig->Channel))
 8003162:	3e10      	subs	r6, #16
    if (sConfig->Rank != ADC_RANK_NONE)
 8003164:	45bc      	cmp	ip, r7
 8003166:	d03f      	beq.n	80031e8 <HAL_ADC_ConfigChannel+0xb4>
      hadc->Instance->CHSELR |= ADC_CHSELR_CHANNEL(sConfig->Channel);
 8003168:	6a97      	ldr	r7, [r2, #40]	@ 0x28
 800316a:	4338      	orrs	r0, r7
 800316c:	6290      	str	r0, [r2, #40]	@ 0x28
      if (! IS_ADC_SAMPLE_TIME(hadc->Init.SamplingTimeCommon))
 800316e:	2080      	movs	r0, #128	@ 0x80
 8003170:	0540      	lsls	r0, r0, #21
 8003172:	4285      	cmp	r5, r0
 8003174:	d00f      	beq.n	8003196 <HAL_ADC_ConfigChannel+0x62>
 8003176:	3d01      	subs	r5, #1
 8003178:	2d06      	cmp	r5, #6
 800317a:	d90c      	bls.n	8003196 <HAL_ADC_ConfigChannel+0x62>
        if (sConfig->SamplingTime != ADC_GET_SAMPLINGTIME(hadc))
 800317c:	2007      	movs	r0, #7
 800317e:	6955      	ldr	r5, [r2, #20]
 8003180:	6889      	ldr	r1, [r1, #8]
 8003182:	4005      	ands	r5, r0
 8003184:	42a9      	cmp	r1, r5
 8003186:	d006      	beq.n	8003196 <HAL_ADC_ConfigChannel+0x62>
          hadc->Instance->SMPR &= ~(ADC_SMPR_SMP);
 8003188:	6955      	ldr	r5, [r2, #20]
          hadc->Instance->SMPR |= ADC_SMPR_SET(sConfig->SamplingTime);
 800318a:	4001      	ands	r1, r0
          hadc->Instance->SMPR &= ~(ADC_SMPR_SMP);
 800318c:	4385      	bics	r5, r0
 800318e:	6155      	str	r5, [r2, #20]
          hadc->Instance->SMPR |= ADC_SMPR_SET(sConfig->SamplingTime);
 8003190:	6955      	ldr	r5, [r2, #20]
 8003192:	4329      	orrs	r1, r5
 8003194:	6151      	str	r1, [r2, #20]
      if(ADC_IS_CHANNEL_INTERNAL(sConfig->Channel))
 8003196:	2e02      	cmp	r6, #2
 8003198:	d903      	bls.n	80031a2 <HAL_ADC_ConfigChannel+0x6e>
  HAL_StatusTypeDef tmp_hal_status = HAL_OK;
 800319a:	2000      	movs	r0, #0
  __HAL_UNLOCK(hadc);
 800319c:	2300      	movs	r3, #0
 800319e:	7023      	strb	r3, [r4, #0]
}
 80031a0:	bdfe      	pop	{r1, r2, r3, r4, r5, r6, r7, pc}
        ADC->CCR |= ADC_CHANNEL_INTERNAL_PATH(sConfig->Channel);
 80031a2:	4820      	ldr	r0, [pc, #128]	@ (8003224 <HAL_ADC_ConfigChannel+0xf0>)
 80031a4:	6801      	ldr	r1, [r0, #0]
 80031a6:	2b10      	cmp	r3, #16
 80031a8:	d01b      	beq.n	80031e2 <HAL_ADC_ConfigChannel+0xae>
 80031aa:	001a      	movs	r2, r3
 80031ac:	3a11      	subs	r2, #17
 80031ae:	4255      	negs	r5, r2
 80031b0:	416a      	adcs	r2, r5
 80031b2:	4d1d      	ldr	r5, [pc, #116]	@ (8003228 <HAL_ADC_ConfigChannel+0xf4>)
 80031b4:	4252      	negs	r2, r2
 80031b6:	402a      	ands	r2, r5
 80031b8:	2580      	movs	r5, #128	@ 0x80
 80031ba:	046d      	lsls	r5, r5, #17
 80031bc:	1952      	adds	r2, r2, r5
 80031be:	430a      	orrs	r2, r1
 80031c0:	6002      	str	r2, [r0, #0]
        if (sConfig->Channel == ADC_CHANNEL_TEMPSENSOR)
 80031c2:	2b10      	cmp	r3, #16
 80031c4:	d1e9      	bne.n	800319a <HAL_ADC_ConfigChannel+0x66>
          wait_loop_index = (ADC_TEMPSENSOR_DELAY_US * (SystemCoreClock / 1000000U));
 80031c6:	4b19      	ldr	r3, [pc, #100]	@ (800322c <HAL_ADC_ConfigChannel+0xf8>)
 80031c8:	4919      	ldr	r1, [pc, #100]	@ (8003230 <HAL_ADC_ConfigChannel+0xfc>)
 80031ca:	6818      	ldr	r0, [r3, #0]
 80031cc:	f7fc ffb8 	bl	8000140 <__udivsi3>
 80031d0:	230a      	movs	r3, #10
 80031d2:	4343      	muls	r3, r0
            wait_loop_index--;
 80031d4:	9301      	str	r3, [sp, #4]
          while(wait_loop_index != 0U)
 80031d6:	9b01      	ldr	r3, [sp, #4]
 80031d8:	2b00      	cmp	r3, #0
 80031da:	d0de      	beq.n	800319a <HAL_ADC_ConfigChannel+0x66>
            wait_loop_index--;
 80031dc:	9b01      	ldr	r3, [sp, #4]
 80031de:	3b01      	subs	r3, #1
 80031e0:	e7f8      	b.n	80031d4 <HAL_ADC_ConfigChannel+0xa0>
        ADC->CCR |= ADC_CHANNEL_INTERNAL_PATH(sConfig->Channel);
 80031e2:	2280      	movs	r2, #128	@ 0x80
 80031e4:	0412      	lsls	r2, r2, #16
 80031e6:	e7ea      	b.n	80031be <HAL_ADC_ConfigChannel+0x8a>
      hadc->Instance->CHSELR &= ~ADC_CHSELR_CHANNEL(sConfig->Channel);
 80031e8:	6a91      	ldr	r1, [r2, #40]	@ 0x28
 80031ea:	4381      	bics	r1, r0
 80031ec:	6291      	str	r1, [r2, #40]	@ 0x28
      if(ADC_IS_CHANNEL_INTERNAL(sConfig->Channel))
 80031ee:	2e02      	cmp	r6, #2
 80031f0:	d8d3      	bhi.n	800319a <HAL_ADC_ConfigChannel+0x66>
        ADC->CCR &= ~ADC_CHANNEL_INTERNAL_PATH(sConfig->Channel);
 80031f2:	4a0c      	ldr	r2, [pc, #48]	@ (8003224 <HAL_ADC_ConfigChannel+0xf0>)
 80031f4:	6811      	ldr	r1, [r2, #0]
 80031f6:	2b10      	cmp	r3, #16
 80031f8:	d00a      	beq.n	8003210 <HAL_ADC_ConfigChannel+0xdc>
 80031fa:	3b11      	subs	r3, #17
 80031fc:	1e58      	subs	r0, r3, #1
 80031fe:	4183      	sbcs	r3, r0
 8003200:	4809      	ldr	r0, [pc, #36]	@ (8003228 <HAL_ADC_ConfigChannel+0xf4>)
 8003202:	425b      	negs	r3, r3
 8003204:	4003      	ands	r3, r0
 8003206:	480b      	ldr	r0, [pc, #44]	@ (8003234 <HAL_ADC_ConfigChannel+0x100>)
 8003208:	181b      	adds	r3, r3, r0
 800320a:	400b      	ands	r3, r1
 800320c:	6013      	str	r3, [r2, #0]
 800320e:	e7c4      	b.n	800319a <HAL_ADC_ConfigChannel+0x66>
 8003210:	4b09      	ldr	r3, [pc, #36]	@ (8003238 <HAL_ADC_ConfigChannel+0x104>)
 8003212:	e7fa      	b.n	800320a <HAL_ADC_ConfigChannel+0xd6>
    SET_BIT(hadc->State, HAL_ADC_STATE_ERROR_CONFIG);
 8003214:	2220      	movs	r2, #32
 8003216:	6b99      	ldr	r1, [r3, #56]	@ 0x38
 8003218:	430a      	orrs	r2, r1
 800321a:	639a      	str	r2, [r3, #56]	@ 0x38
    tmp_hal_status = HAL_ERROR;
 800321c:	e7be      	b.n	800319c <HAL_ADC_ConfigChannel+0x68>
 800321e:	46c0      	nop			@ (mov r8, r8)
 8003220:	00001001 	.word	0x00001001
 8003224:	40012708 	.word	0x40012708
 8003228:	ff400000 	.word	0xff400000
 800322c:	20000000 	.word	0x20000000
 8003230:	000f4240 	.word	0x000f4240
 8003234:	ffbfffff 	.word	0xffbfffff
 8003238:	ff7fffff 	.word	0xff7fffff

0800323c <HAL_NVIC_SetPriority>:
  *         with stm32f0xx devices, this parameter is a dummy value and it is ignored, because 
  *         no subpriority supported in Cortex M0 based products.   
  * @retval None
  */
void HAL_NVIC_SetPriority(IRQn_Type IRQn, uint32_t PreemptPriority, uint32_t SubPriority)
{
 800323c:	b510      	push	{r4, lr}
 */
__STATIC_INLINE void __NVIC_SetPriority(IRQn_Type IRQn, uint32_t priority)
{
  if ((int32_t)(IRQn) >= 0)
  {
    NVIC->IP[_IP_IDX(IRQn)]  = ((uint32_t)(NVIC->IP[_IP_IDX(IRQn)]  & ~(0xFFUL << _BIT_SHIFT(IRQn))) |
 800323e:	24ff      	movs	r4, #255	@ 0xff
 8003240:	2203      	movs	r2, #3
 8003242:	000b      	movs	r3, r1
 8003244:	0021      	movs	r1, r4
 8003246:	4002      	ands	r2, r0
 8003248:	00d2      	lsls	r2, r2, #3
 800324a:	4091      	lsls	r1, r2
       (((priority << (8U - __NVIC_PRIO_BITS)) & (uint32_t)0xFFUL) << _BIT_SHIFT(IRQn)));
 800324c:	019b      	lsls	r3, r3, #6
 800324e:	4023      	ands	r3, r4
    NVIC->IP[_IP_IDX(IRQn)]  = ((uint32_t)(NVIC->IP[_IP_IDX(IRQn)]  & ~(0xFFUL << _BIT_SHIFT(IRQn))) |
 8003250:	43c9      	mvns	r1, r1
       (((priority << (8U - __NVIC_PRIO_BITS)) & (uint32_t)0xFFUL) << _BIT_SHIFT(IRQn)));
 8003252:	4093      	lsls	r3, r2
  if ((int32_t)(IRQn) >= 0)
 8003254:	2800      	cmp	r0, #0
 8003256:	db0a      	blt.n	800326e <HAL_NVIC_SetPriority+0x32>
    NVIC->IP[_IP_IDX(IRQn)]  = ((uint32_t)(NVIC->IP[_IP_IDX(IRQn)]  & ~(0xFFUL << _BIT_SHIFT(IRQn))) |
 8003258:	24c0      	movs	r4, #192	@ 0xc0
 800325a:	4a0b      	ldr	r2, [pc, #44]	@ (8003288 <HAL_NVIC_SetPriority+0x4c>)
 800325c:	0880      	lsrs	r0, r0, #2
 800325e:	0080      	lsls	r0, r0, #2
 8003260:	1880      	adds	r0, r0, r2
 8003262:	00a4      	lsls	r4, r4, #2
 8003264:	5902      	ldr	r2, [r0, r4]
 8003266:	400a      	ands	r2, r1
 8003268:	4313      	orrs	r3, r2
 800326a:	5103      	str	r3, [r0, r4]
  assert_param(IS_NVIC_PREEMPTION_PRIORITY(PreemptPriority));
  NVIC_SetPriority(IRQn,PreemptPriority);

  /* Prevent unused argument(s) compilation warning */
  UNUSED(SubPriority);
}
 800326c:	bd10      	pop	{r4, pc}
  }
  else
  {
    SCB->SHP[_SHP_IDX(IRQn)] = ((uint32_t)(SCB->SHP[_SHP_IDX(IRQn)] & ~(0xFFUL << _BIT_SHIFT(IRQn))) |
 800326e:	220f      	movs	r2, #15
 8003270:	4010      	ands	r0, r2
 8003272:	3808      	subs	r0, #8
 8003274:	4a05      	ldr	r2, [pc, #20]	@ (800328c <HAL_NVIC_SetPriority+0x50>)
 8003276:	0880      	lsrs	r0, r0, #2
 8003278:	0080      	lsls	r0, r0, #2
 800327a:	1880      	adds	r0, r0, r2
 800327c:	69c2      	ldr	r2, [r0, #28]
 800327e:	4011      	ands	r1, r2
 8003280:	4319      	orrs	r1, r3
 8003282:	61c1      	str	r1, [r0, #28]
 8003284:	e7f2      	b.n	800326c <HAL_NVIC_SetPriority+0x30>
 8003286:	46c0      	nop			@ (mov r8, r8)
 8003288:	e000e100 	.word	0xe000e100
 800328c:	e000ed00 	.word	0xe000ed00

08003290 <HAL_NVIC_EnableIRQ>:
  if ((int32_t)(IRQn) >= 0)
 8003290:	2800      	cmp	r0, #0
 8003292:	db05      	blt.n	80032a0 <HAL_NVIC_EnableIRQ+0x10>
    NVIC->ISER[0U] = (uint32_t)(1UL << (((uint32_t)IRQn) & 0x1FUL));
 8003294:	231f      	movs	r3, #31
 8003296:	4018      	ands	r0, r3
 8003298:	3b1e      	subs	r3, #30
 800329a:	4083      	lsls	r3, r0
 800329c:	4a01      	ldr	r2, [pc, #4]	@ (80032a4 <HAL_NVIC_EnableIRQ+0x14>)
 800329e:	6013      	str	r3, [r2, #0]
  /* Check the parameters */
  assert_param(IS_NVIC_DEVICE_IRQ(IRQn));
  
  /* Enable interrupt */
  NVIC_EnableIRQ(IRQn);
}
 80032a0:	4770      	bx	lr
 80032a2:	46c0      	nop			@ (mov r8, r8)
 80032a4:	e000e100 	.word	0xe000e100

080032a8 <HAL_SYSTICK_Config>:
           function <b>SysTick_Config</b> is not included. In this case, the file <b><i>device</i>.h</b>
           must contain a vendor-specific implementation of this function.
 */
__STATIC_INLINE uint32_t SysTick_Config(uint32_t ticks)
{
  if ((ticks - 1UL) > SysTick_LOAD_RELOAD_Msk)
 80032a8:	2280      	movs	r2, #128	@ 0x80
 80032aa:	1e43      	subs	r3, r0, #1
 80032ac:	0452      	lsls	r2, r2, #17
  {
    return (1UL);                                                   /* Reload value impossible */
 80032ae:	2001      	movs	r0, #1
  if ((ticks - 1UL) > SysTick_LOAD_RELOAD_Msk)
 80032b0:	4293      	cmp	r3, r2
 80032b2:	d20d      	bcs.n	80032d0 <HAL_SYSTICK_Config+0x28>
    SCB->SHP[_SHP_IDX(IRQn)] = ((uint32_t)(SCB->SHP[_SHP_IDX(IRQn)] & ~(0xFFUL << _BIT_SHIFT(IRQn))) |
 80032b4:	21c0      	movs	r1, #192	@ 0xc0
  }

  SysTick->LOAD  = (uint32_t)(ticks - 1UL);                         /* set reload register */
 80032b6:	4a07      	ldr	r2, [pc, #28]	@ (80032d4 <HAL_SYSTICK_Config+0x2c>)
    SCB->SHP[_SHP_IDX(IRQn)] = ((uint32_t)(SCB->SHP[_SHP_IDX(IRQn)] & ~(0xFFUL << _BIT_SHIFT(IRQn))) |
 80032b8:	4807      	ldr	r0, [pc, #28]	@ (80032d8 <HAL_SYSTICK_Config+0x30>)
  SysTick->LOAD  = (uint32_t)(ticks - 1UL);                         /* set reload register */
 80032ba:	6053      	str	r3, [r2, #4]
    SCB->SHP[_SHP_IDX(IRQn)] = ((uint32_t)(SCB->SHP[_SHP_IDX(IRQn)] & ~(0xFFUL << _BIT_SHIFT(IRQn))) |
 80032bc:	6a03      	ldr	r3, [r0, #32]
 80032be:	0609      	lsls	r1, r1, #24
 80032c0:	021b      	lsls	r3, r3, #8
 80032c2:	0a1b      	lsrs	r3, r3, #8
 80032c4:	430b      	orrs	r3, r1
 80032c6:	6203      	str	r3, [r0, #32]
  NVIC_SetPriority (SysTick_IRQn, (1UL << __NVIC_PRIO_BITS) - 1UL); /* set Priority for Systick Interrupt */
  SysTick->VAL   = 0UL;                                             /* Load the SysTick Counter Value */
 80032c8:	2000      	movs	r0, #0
  SysTick->CTRL  = SysTick_CTRL_CLKSOURCE_Msk |
 80032ca:	2307      	movs	r3, #7
  SysTick->VAL   = 0UL;                                             /* Load the SysTick Counter Value */
 80032cc:	6090      	str	r0, [r2, #8]
  SysTick->CTRL  = SysTick_CTRL_CLKSOURCE_Msk |
 80032ce:	6013      	str	r3, [r2, #0]
  *                  - 1  Function failed.
  */
uint32_t HAL_SYSTICK_Config(uint32_t TicksNumb)
{
   return SysTick_Config(TicksNumb);
}
 80032d0:	4770      	bx	lr
 80032d2:	46c0      	nop			@ (mov r8, r8)
 80032d4:	e000e010 	.word	0xe000e010
 80032d8:	e000ed00 	.word	0xe000ed00

080032dc <HAL_DMA_Init>:
  * @param  hdma Pointer to a DMA_HandleTypeDef structure that contains
  *               the configuration information for the specified DMA Channel.
  * @retval HAL status
  */
HAL_StatusTypeDef HAL_DMA_Init(DMA_HandleTypeDef *hdma)
{
 80032dc:	b570      	push	{r4, r5, r6, lr}
 80032de:	0004      	movs	r4, r0
  uint32_t tmp = 0U;

  /* Check the DMA handle allocation */
  if (NULL == hdma)
  {
    return HAL_ERROR;
 80032e0:	2001      	movs	r0, #1
  if (NULL == hdma)
 80032e2:	2c00      	cmp	r4, #0
 80032e4:	d024      	beq.n	8003330 <HAL_DMA_Init+0x54>
  assert_param(IS_DMA_MEMORY_DATA_SIZE(hdma->Init.MemDataAlignment));
  assert_param(IS_DMA_MODE(hdma->Init.Mode));
  assert_param(IS_DMA_PRIORITY(hdma->Init.Priority));

  /* Change DMA peripheral state */
  hdma->State = HAL_DMA_STATE_BUSY;
 80032e6:	2302      	movs	r3, #2
 80032e8:	1ca5      	adds	r5, r4, #2
 80032ea:	77eb      	strb	r3, [r5, #31]

  /* Get the CR register value */
  tmp = hdma->Instance->CCR;
 80032ec:	6820      	ldr	r0, [r4, #0]

  /* Clear PL, MSIZE, PSIZE, MINC, PINC, CIRC, DIR bits */
  tmp &= ((uint32_t)~(DMA_CCR_PL    | DMA_CCR_MSIZE  | DMA_CCR_PSIZE  | \
 80032ee:	4b11      	ldr	r3, [pc, #68]	@ (8003334 <HAL_DMA_Init+0x58>)
  tmp = hdma->Instance->CCR;
 80032f0:	6802      	ldr	r2, [r0, #0]
                      DMA_CCR_MINC  | DMA_CCR_PINC   | DMA_CCR_CIRC   | \
                      DMA_CCR_DIR));

  /* Prepare the DMA Channel configuration */
  tmp |=  hdma->Init.Direction        |
 80032f2:	68a1      	ldr	r1, [r4, #8]
  tmp &= ((uint32_t)~(DMA_CCR_PL    | DMA_CCR_MSIZE  | DMA_CCR_PSIZE  | \
 80032f4:	401a      	ands	r2, r3
  tmp |=  hdma->Init.Direction        |
 80032f6:	6863      	ldr	r3, [r4, #4]
 80032f8:	430b      	orrs	r3, r1
          hdma->Init.PeriphInc           | hdma->Init.MemInc           |
 80032fa:	68e1      	ldr	r1, [r4, #12]
 80032fc:	430b      	orrs	r3, r1
 80032fe:	6921      	ldr	r1, [r4, #16]
 8003300:	430b      	orrs	r3, r1
          hdma->Init.PeriphDataAlignment | hdma->Init.MemDataAlignment |
 8003302:	6961      	ldr	r1, [r4, #20]
 8003304:	430b      	orrs	r3, r1
 8003306:	69a1      	ldr	r1, [r4, #24]
 8003308:	430b      	orrs	r3, r1
          hdma->Init.Mode                | hdma->Init.Priority;
 800330a:	69e1      	ldr	r1, [r4, #28]
 800330c:	430b      	orrs	r3, r1
  tmp |=  hdma->Init.Direction        |
 800330e:	4313      	orrs	r3, r2

  /* Write to DMA Channel CR register */
  hdma->Instance->CCR = tmp;
 8003310:	6003      	str	r3, [r0, #0]
    hdma->DmaBaseAddress = DMA2;
  }
#else
  /* calculation of the channel index */
  /* DMA1 */
  hdma->ChannelIndex = (((uint32_t)hdma->Instance - (uint32_t)DMA1_Channel1) / ((uint32_t)DMA1_Channel2 - (uint32_t)DMA1_Channel1)) << 2U;
 8003312:	4b09      	ldr	r3, [pc, #36]	@ (8003338 <HAL_DMA_Init+0x5c>)
 8003314:	2114      	movs	r1, #20
 8003316:	18c0      	adds	r0, r0, r3
 8003318:	f7fc ff12 	bl	8000140 <__udivsi3>
  hdma->DmaBaseAddress = DMA1;
 800331c:	4b07      	ldr	r3, [pc, #28]	@ (800333c <HAL_DMA_Init+0x60>)
  hdma->ChannelIndex = (((uint32_t)hdma->Instance - (uint32_t)DMA1_Channel1) / ((uint32_t)DMA1_Channel2 - (uint32_t)DMA1_Channel1)) << 2U;
 800331e:	0080      	lsls	r0, r0, #2
 8003320:	6420      	str	r0, [r4, #64]	@ 0x40
  hdma->DmaBaseAddress = DMA1;
 8003322:	63e3      	str	r3, [r4, #60]	@ 0x3c
  hdma->ErrorCode = HAL_DMA_ERROR_NONE;
 8003324:	2000      	movs	r0, #0
  hdma->State = HAL_DMA_STATE_READY;
 8003326:	2301      	movs	r3, #1
  hdma->ErrorCode = HAL_DMA_ERROR_NONE;
 8003328:	63a0      	str	r0, [r4, #56]	@ 0x38
  hdma->Lock = HAL_UNLOCKED;
 800332a:	18e4      	adds	r4, r4, r3
  hdma->State = HAL_DMA_STATE_READY;
 800332c:	77eb      	strb	r3, [r5, #31]
  hdma->Lock = HAL_UNLOCKED;
 800332e:	77e0      	strb	r0, [r4, #31]
}
 8003330:	bd70      	pop	{r4, r5, r6, pc}
 8003332:	46c0      	nop			@ (mov r8, r8)
 8003334:	ffffc00f 	.word	0xffffc00f
 8003338:	bffdfff8 	.word	0xbffdfff8
 800333c:	40020000 	.word	0x40020000

08003340 <HAL_DMA_IRQHandler>:
{
 8003340:	b5f8      	push	{r3, r4, r5, r6, r7, lr}
  if ((RESET != (flag_it & (DMA_FLAG_HT1 << hdma->ChannelIndex))) && (RESET != (source_it & DMA_IT_HT)))
 8003342:	2704      	movs	r7, #4
 8003344:	003e      	movs	r6, r7
 8003346:	6c01      	ldr	r1, [r0, #64]	@ 0x40
  uint32_t flag_it = hdma->DmaBaseAddress->ISR;
 8003348:	6bc2      	ldr	r2, [r0, #60]	@ 0x3c
  if ((RESET != (flag_it & (DMA_FLAG_HT1 << hdma->ChannelIndex))) && (RESET != (source_it & DMA_IT_HT)))
 800334a:	408e      	lsls	r6, r1
  uint32_t flag_it = hdma->DmaBaseAddress->ISR;
 800334c:	6815      	ldr	r5, [r2, #0]
  uint32_t source_it = hdma->Instance->CCR;
 800334e:	6803      	ldr	r3, [r0, #0]
 8003350:	681c      	ldr	r4, [r3, #0]
  if ((RESET != (flag_it & (DMA_FLAG_HT1 << hdma->ChannelIndex))) && (RESET != (source_it & DMA_IT_HT)))
 8003352:	4235      	tst	r5, r6
 8003354:	d00d      	beq.n	8003372 <HAL_DMA_IRQHandler+0x32>
 8003356:	423c      	tst	r4, r7
 8003358:	d00b      	beq.n	8003372 <HAL_DMA_IRQHandler+0x32>
    if ((hdma->Instance->CCR & DMA_CCR_CIRC) == 0U)
 800335a:	6819      	ldr	r1, [r3, #0]
 800335c:	0689      	lsls	r1, r1, #26
 800335e:	d402      	bmi.n	8003366 <HAL_DMA_IRQHandler+0x26>
      hdma->Instance->CCR &= ~DMA_IT_HT;
 8003360:	6819      	ldr	r1, [r3, #0]
 8003362:	43b9      	bics	r1, r7
 8003364:	6019      	str	r1, [r3, #0]
    if (hdma->XferHalfCpltCallback != NULL)
 8003366:	6ac3      	ldr	r3, [r0, #44]	@ 0x2c
    hdma->DmaBaseAddress->IFCR = DMA_FLAG_HT1 << hdma->ChannelIndex;
 8003368:	6056      	str	r6, [r2, #4]
    if (hdma->XferHalfCpltCallback != NULL)
 800336a:	2b00      	cmp	r3, #0
 800336c:	d019      	beq.n	80033a2 <HAL_DMA_IRQHandler+0x62>
      hdma->XferErrorCallback(hdma);
 800336e:	4798      	blx	r3
}
 8003370:	e017      	b.n	80033a2 <HAL_DMA_IRQHandler+0x62>
  else if ((RESET != (flag_it & (DMA_FLAG_TC1 << hdma->ChannelIndex))) && (RESET != (source_it & DMA_IT_TC)))
 8003372:	2702      	movs	r7, #2
 8003374:	003e      	movs	r6, r7
 8003376:	408e      	lsls	r6, r1
 8003378:	4235      	tst	r5, r6
 800337a:	d013      	beq.n	80033a4 <HAL_DMA_IRQHandler+0x64>
 800337c:	423c      	tst	r4, r7
 800337e:	d011      	beq.n	80033a4 <HAL_DMA_IRQHandler+0x64>
    if ((hdma->Instance->CCR & DMA_CCR_CIRC) == 0U)
 8003380:	6819      	ldr	r1, [r3, #0]
 8003382:	0689      	lsls	r1, r1, #26
 8003384:	d406      	bmi.n	8003394 <HAL_DMA_IRQHandler+0x54>
      hdma->Instance->CCR &= ~(DMA_IT_TC | DMA_IT_TE);
 8003386:	240a      	movs	r4, #10
 8003388:	6819      	ldr	r1, [r3, #0]
 800338a:	43a1      	bics	r1, r4
 800338c:	6019      	str	r1, [r3, #0]
      hdma->State = HAL_DMA_STATE_READY;
 800338e:	2101      	movs	r1, #1
 8003390:	19c3      	adds	r3, r0, r7
 8003392:	77d9      	strb	r1, [r3, #31]
    hdma->DmaBaseAddress->IFCR = DMA_FLAG_TC1 << hdma->ChannelIndex;
 8003394:	6056      	str	r6, [r2, #4]
    __HAL_UNLOCK(hdma);
 8003396:	2200      	movs	r2, #0
 8003398:	1c43      	adds	r3, r0, #1
 800339a:	77da      	strb	r2, [r3, #31]
    if (hdma->XferCpltCallback != NULL)
 800339c:	6a83      	ldr	r3, [r0, #40]	@ 0x28
    if (hdma->XferErrorCallback != NULL)
 800339e:	4293      	cmp	r3, r2
 80033a0:	d1e5      	bne.n	800336e <HAL_DMA_IRQHandler+0x2e>
}
 80033a2:	bdf8      	pop	{r3, r4, r5, r6, r7, pc}
  else if ((RESET != (flag_it & (DMA_FLAG_TE1 << hdma->ChannelIndex))) && (RESET != (source_it & DMA_IT_TE)))
 80033a4:	2608      	movs	r6, #8
 80033a6:	0037      	movs	r7, r6
 80033a8:	408f      	lsls	r7, r1
 80033aa:	423d      	tst	r5, r7
 80033ac:	d0f9      	beq.n	80033a2 <HAL_DMA_IRQHandler+0x62>
 80033ae:	4234      	tst	r4, r6
 80033b0:	d0f7      	beq.n	80033a2 <HAL_DMA_IRQHandler+0x62>
    hdma->Instance->CCR &= ~(DMA_IT_TC | DMA_IT_HT | DMA_IT_TE);
 80033b2:	250e      	movs	r5, #14
 80033b4:	681c      	ldr	r4, [r3, #0]
 80033b6:	43ac      	bics	r4, r5
 80033b8:	601c      	str	r4, [r3, #0]
    hdma->DmaBaseAddress->IFCR = DMA_FLAG_GL1 << hdma->ChannelIndex;
 80033ba:	2301      	movs	r3, #1
 80033bc:	001c      	movs	r4, r3
 80033be:	408c      	lsls	r4, r1
 80033c0:	6054      	str	r4, [r2, #4]
    hdma->State = HAL_DMA_STATE_READY;
 80033c2:	1c82      	adds	r2, r0, #2
    hdma->ErrorCode = HAL_DMA_ERROR_TE;
 80033c4:	6383      	str	r3, [r0, #56]	@ 0x38
    hdma->State = HAL_DMA_STATE_READY;
 80033c6:	77d3      	strb	r3, [r2, #31]
    __HAL_UNLOCK(hdma);
 80033c8:	2200      	movs	r2, #0
 80033ca:	18c3      	adds	r3, r0, r3
 80033cc:	77da      	strb	r2, [r3, #31]
    if (hdma->XferErrorCallback != NULL)
 80033ce:	6b03      	ldr	r3, [r0, #48]	@ 0x30
 80033d0:	e7e5      	b.n	800339e <HAL_DMA_IRQHandler+0x5e>
	...

080033d4 <HAL_GPIO_Init>:
  *         the configuration information for the specified GPIO peripheral.
  * @retval None
  */
void HAL_GPIO_Init(GPIO_TypeDef  *GPIOx, GPIO_InitTypeDef *GPIO_Init)
{
  uint32_t position = 0x00u;
 80033d4:	2300      	movs	r3, #0
{
 80033d6:	b5f0      	push	{r4, r5, r6, r7, lr}
 80033d8:	b087      	sub	sp, #28
  assert_param(IS_GPIO_ALL_INSTANCE(GPIOx));
  assert_param(IS_GPIO_PIN(GPIO_Init->Pin));
  assert_param(IS_GPIO_MODE(GPIO_Init->Mode));

  /* Configure the port pins */
  while (((GPIO_Init->Pin) >> position) != 0x00u)
 80033da:	680a      	ldr	r2, [r1, #0]
 80033dc:	0014      	movs	r4, r2
 80033de:	40dc      	lsrs	r4, r3
 80033e0:	d101      	bne.n	80033e6 <HAL_GPIO_Init+0x12>
      }
    }

    position++;
  } 
}
 80033e2:	b007      	add	sp, #28
 80033e4:	bdf0      	pop	{r4, r5, r6, r7, pc}
    iocurrent = (GPIO_Init->Pin) & (1uL << position);
 80033e6:	2501      	movs	r5, #1
 80033e8:	0014      	movs	r4, r2
 80033ea:	409d      	lsls	r5, r3
 80033ec:	402c      	ands	r4, r5
 80033ee:	9400      	str	r4, [sp, #0]
    if (iocurrent != 0x00u)
 80033f0:	422a      	tst	r2, r5
 80033f2:	d100      	bne.n	80033f6 <HAL_GPIO_Init+0x22>
 80033f4:	e094      	b.n	8003520 <HAL_GPIO_Init+0x14c>
      if(((GPIO_Init->Mode & GPIO_MODE) == MODE_OUTPUT) ||
 80033f6:	684a      	ldr	r2, [r1, #4]
 80033f8:	005f      	lsls	r7, r3, #1
 80033fa:	4694      	mov	ip, r2
 80033fc:	2203      	movs	r2, #3
 80033fe:	4664      	mov	r4, ip
 8003400:	4022      	ands	r2, r4
        temp &= ~(GPIO_OSPEEDER_OSPEEDR0 << (position * 2u));
 8003402:	2403      	movs	r4, #3
 8003404:	40bc      	lsls	r4, r7
 8003406:	43e4      	mvns	r4, r4
 8003408:	9401      	str	r4, [sp, #4]
      if(((GPIO_Init->Mode & GPIO_MODE) == MODE_OUTPUT) ||
 800340a:	1e54      	subs	r4, r2, #1
 800340c:	2c01      	cmp	r4, #1
 800340e:	d82e      	bhi.n	800346e <HAL_GPIO_Init+0x9a>
        temp = GPIOx->OSPEEDR;
 8003410:	6886      	ldr	r6, [r0, #8]
        temp &= ~(GPIO_OSPEEDER_OSPEEDR0 << (position * 2u));
 8003412:	9c01      	ldr	r4, [sp, #4]
 8003414:	4026      	ands	r6, r4
        temp |= (GPIO_Init->Speed << (position * 2u));
 8003416:	68cc      	ldr	r4, [r1, #12]
 8003418:	40bc      	lsls	r4, r7
 800341a:	4334      	orrs	r4, r6
        GPIOx->OSPEEDR = temp;
 800341c:	6084      	str	r4, [r0, #8]
        temp = GPIOx->OTYPER;
 800341e:	6844      	ldr	r4, [r0, #4]
        temp |= (((GPIO_Init->Mode & OUTPUT_TYPE) >> OUTPUT_TYPE_Pos) << position);
 8003420:	2601      	movs	r6, #1
        temp &= ~(GPIO_OTYPER_OT_0 << position) ;
 8003422:	43ac      	bics	r4, r5
 8003424:	0025      	movs	r5, r4
        temp |= (((GPIO_Init->Mode & OUTPUT_TYPE) >> OUTPUT_TYPE_Pos) << position);
 8003426:	4664      	mov	r4, ip
 8003428:	0924      	lsrs	r4, r4, #4
 800342a:	4034      	ands	r4, r6
 800342c:	409c      	lsls	r4, r3
 800342e:	432c      	orrs	r4, r5
        GPIOx->OTYPER = temp;
 8003430:	6044      	str	r4, [r0, #4]
        temp = GPIOx->PUPDR;
 8003432:	68c5      	ldr	r5, [r0, #12]
        temp &= ~(GPIO_PUPDR_PUPDR0 << (position * 2u));
 8003434:	9c01      	ldr	r4, [sp, #4]
 8003436:	4025      	ands	r5, r4
        temp |= ((GPIO_Init->Pull) << (position * 2u));
 8003438:	688c      	ldr	r4, [r1, #8]
 800343a:	40bc      	lsls	r4, r7
 800343c:	432c      	orrs	r4, r5
        GPIOx->PUPDR = temp;
 800343e:	60c4      	str	r4, [r0, #12]
      if((GPIO_Init->Mode & GPIO_MODE) == MODE_AF)
 8003440:	2a02      	cmp	r2, #2
 8003442:	d116      	bne.n	8003472 <HAL_GPIO_Init+0x9e>
        temp &= ~(0xFu << ((position & 0x07u) * 4u));
 8003444:	2507      	movs	r5, #7
 8003446:	260f      	movs	r6, #15
 8003448:	401d      	ands	r5, r3
 800344a:	00ad      	lsls	r5, r5, #2
 800344c:	40ae      	lsls	r6, r5
        temp = GPIOx->AFR[position >> 3u];
 800344e:	08dc      	lsrs	r4, r3, #3
 8003450:	00a4      	lsls	r4, r4, #2
 8003452:	1904      	adds	r4, r0, r4
 8003454:	9402      	str	r4, [sp, #8]
 8003456:	6a24      	ldr	r4, [r4, #32]
        temp &= ~(0xFu << ((position & 0x07u) * 4u));
 8003458:	9603      	str	r6, [sp, #12]
 800345a:	0026      	movs	r6, r4
 800345c:	9c03      	ldr	r4, [sp, #12]
 800345e:	43a6      	bics	r6, r4
 8003460:	0034      	movs	r4, r6
        temp |= ((GPIO_Init->Alternate) << ((position & 0x07u) * 4u));
 8003462:	690e      	ldr	r6, [r1, #16]
 8003464:	40ae      	lsls	r6, r5
 8003466:	4326      	orrs	r6, r4
        GPIOx->AFR[position >> 3u] = temp;
 8003468:	9c02      	ldr	r4, [sp, #8]
 800346a:	6226      	str	r6, [r4, #32]
 800346c:	e001      	b.n	8003472 <HAL_GPIO_Init+0x9e>
      if((GPIO_Init->Mode & GPIO_MODE) != MODE_ANALOG)
 800346e:	2a03      	cmp	r2, #3
 8003470:	d1df      	bne.n	8003432 <HAL_GPIO_Init+0x5e>
      temp |= ((GPIO_Init->Mode & GPIO_MODE) << (position * 2u));
 8003472:	40ba      	lsls	r2, r7
      temp = GPIOx->MODER;
 8003474:	6804      	ldr	r4, [r0, #0]
      temp &= ~(GPIO_MODER_MODER0 << (position * 2u));
 8003476:	9d01      	ldr	r5, [sp, #4]
 8003478:	4025      	ands	r5, r4
      temp |= ((GPIO_Init->Mode & GPIO_MODE) << (position * 2u));
 800347a:	432a      	orrs	r2, r5
      if((GPIO_Init->Mode & EXTI_MODE) != 0x00u)
 800347c:	24c0      	movs	r4, #192	@ 0xc0
      GPIOx->MODER = temp;
 800347e:	6002      	str	r2, [r0, #0]
      if((GPIO_Init->Mode & EXTI_MODE) != 0x00u)
 8003480:	4662      	mov	r2, ip
 8003482:	02a4      	lsls	r4, r4, #10
 8003484:	4222      	tst	r2, r4
 8003486:	d04b      	beq.n	8003520 <HAL_GPIO_Init+0x14c>
        __HAL_RCC_SYSCFG_CLK_ENABLE();
 8003488:	2501      	movs	r5, #1
 800348a:	4a26      	ldr	r2, [pc, #152]	@ (8003524 <HAL_GPIO_Init+0x150>)
        temp |= (GPIO_GET_INDEX(GPIOx) << (4u * (position & 0x03u)));
 800348c:	2790      	movs	r7, #144	@ 0x90
        __HAL_RCC_SYSCFG_CLK_ENABLE();
 800348e:	6994      	ldr	r4, [r2, #24]
        temp |= (GPIO_GET_INDEX(GPIOx) << (4u * (position & 0x03u)));
 8003490:	05ff      	lsls	r7, r7, #23
        __HAL_RCC_SYSCFG_CLK_ENABLE();
 8003492:	432c      	orrs	r4, r5
 8003494:	6194      	str	r4, [r2, #24]
 8003496:	6992      	ldr	r2, [r2, #24]
        temp = SYSCFG->EXTICR[position >> 2u];
 8003498:	089c      	lsrs	r4, r3, #2
        __HAL_RCC_SYSCFG_CLK_ENABLE();
 800349a:	402a      	ands	r2, r5
 800349c:	9205      	str	r2, [sp, #20]
 800349e:	9a05      	ldr	r2, [sp, #20]
        temp = SYSCFG->EXTICR[position >> 2u];
 80034a0:	4a21      	ldr	r2, [pc, #132]	@ (8003528 <HAL_GPIO_Init+0x154>)
 80034a2:	00a4      	lsls	r4, r4, #2
 80034a4:	18a4      	adds	r4, r4, r2
        temp &= ~(0x0FuL << (4u * (position & 0x03u)));
 80034a6:	220f      	movs	r2, #15
 80034a8:	3502      	adds	r5, #2
 80034aa:	401d      	ands	r5, r3
 80034ac:	00ad      	lsls	r5, r5, #2
 80034ae:	40aa      	lsls	r2, r5
        temp = SYSCFG->EXTICR[position >> 2u];
 80034b0:	68a6      	ldr	r6, [r4, #8]
        temp &= ~(0x0FuL << (4u * (position & 0x03u)));
 80034b2:	4396      	bics	r6, r2
        temp |= (GPIO_GET_INDEX(GPIOx) << (4u * (position & 0x03u)));
 80034b4:	2200      	movs	r2, #0
 80034b6:	42b8      	cmp	r0, r7
 80034b8:	d008      	beq.n	80034cc <HAL_GPIO_Init+0xf8>
 80034ba:	4f1c      	ldr	r7, [pc, #112]	@ (800352c <HAL_GPIO_Init+0x158>)
 80034bc:	3201      	adds	r2, #1
 80034be:	42b8      	cmp	r0, r7
 80034c0:	d004      	beq.n	80034cc <HAL_GPIO_Init+0xf8>
 80034c2:	4f1b      	ldr	r7, [pc, #108]	@ (8003530 <HAL_GPIO_Init+0x15c>)
 80034c4:	3204      	adds	r2, #4
 80034c6:	42b8      	cmp	r0, r7
 80034c8:	d100      	bne.n	80034cc <HAL_GPIO_Init+0xf8>
 80034ca:	3a03      	subs	r2, #3
 80034cc:	40aa      	lsls	r2, r5
        if((GPIO_Init->Mode & TRIGGER_RISING) != 0x00u)
 80034ce:	4667      	mov	r7, ip
        temp |= (GPIO_GET_INDEX(GPIOx) << (4u * (position & 0x03u)));
 80034d0:	4332      	orrs	r2, r6
        SYSCFG->EXTICR[position >> 2u] = temp;
 80034d2:	60a2      	str	r2, [r4, #8]
        temp = EXTI->RTSR;
 80034d4:	4a17      	ldr	r2, [pc, #92]	@ (8003534 <HAL_GPIO_Init+0x160>)
        temp &= ~(iocurrent);
 80034d6:	9c00      	ldr	r4, [sp, #0]
        temp = EXTI->RTSR;
 80034d8:	6896      	ldr	r6, [r2, #8]
          temp |= iocurrent;
 80034da:	9d00      	ldr	r5, [sp, #0]
        temp &= ~(iocurrent);
 80034dc:	43e4      	mvns	r4, r4
          temp |= iocurrent;
 80034de:	4335      	orrs	r5, r6
        if((GPIO_Init->Mode & TRIGGER_RISING) != 0x00u)
 80034e0:	02ff      	lsls	r7, r7, #11
 80034e2:	d401      	bmi.n	80034e8 <HAL_GPIO_Init+0x114>
        temp &= ~(iocurrent);
 80034e4:	0035      	movs	r5, r6
 80034e6:	4025      	ands	r5, r4
        if((GPIO_Init->Mode & TRIGGER_FALLING) != 0x00u)
 80034e8:	4667      	mov	r7, ip
        EXTI->RTSR = temp;
 80034ea:	6095      	str	r5, [r2, #8]
        temp = EXTI->FTSR;
 80034ec:	68d6      	ldr	r6, [r2, #12]
          temp |= iocurrent;
 80034ee:	9d00      	ldr	r5, [sp, #0]
 80034f0:	4335      	orrs	r5, r6
        if((GPIO_Init->Mode & TRIGGER_FALLING) != 0x00u)
 80034f2:	02bf      	lsls	r7, r7, #10
 80034f4:	d401      	bmi.n	80034fa <HAL_GPIO_Init+0x126>
        temp &= ~(iocurrent);
 80034f6:	0035      	movs	r5, r6
 80034f8:	4025      	ands	r5, r4
        if((GPIO_Init->Mode & EXTI_EVT) != 0x00u)
 80034fa:	4667      	mov	r7, ip
        EXTI->FTSR = temp;
 80034fc:	60d5      	str	r5, [r2, #12]
        temp = EXTI->EMR;
 80034fe:	6856      	ldr	r6, [r2, #4]
          temp |= iocurrent;
 8003500:	9d00      	ldr	r5, [sp, #0]
 8003502:	4335      	orrs	r5, r6
        if((GPIO_Init->Mode & EXTI_EVT) != 0x00u)
 8003504:	03bf      	lsls	r7, r7, #14
 8003506:	d401      	bmi.n	800350c <HAL_GPIO_Init+0x138>
        temp &= ~(iocurrent);
 8003508:	0035      	movs	r5, r6
 800350a:	4025      	ands	r5, r4
        if((GPIO_Init->Mode & EXTI_IT) != 0x00u)
 800350c:	4667      	mov	r7, ip
        EXTI->EMR = temp;
 800350e:	6055      	str	r5, [r2, #4]
        temp = EXTI->IMR;
 8003510:	6815      	ldr	r5, [r2, #0]
          temp |= iocurrent;
 8003512:	9e00      	ldr	r6, [sp, #0]
 8003514:	432e      	orrs	r6, r5
        if((GPIO_Init->Mode & EXTI_IT) != 0x00u)
 8003516:	03ff      	lsls	r7, r7, #15
 8003518:	d401      	bmi.n	800351e <HAL_GPIO_Init+0x14a>
        temp &= ~(iocurrent);
 800351a:	4025      	ands	r5, r4
 800351c:	002e      	movs	r6, r5
        EXTI->IMR = temp;
 800351e:	6016      	str	r6, [r2, #0]
    position++;
 8003520:	3301      	adds	r3, #1
 8003522:	e75a      	b.n	80033da <HAL_GPIO_Init+0x6>
 8003524:	40021000 	.word	0x40021000
 8003528:	40010000 	.word	0x40010000
 800352c:	48000400 	.word	0x48000400
 8003530:	48000800 	.word	0x48000800
 8003534:	40010400 	.word	0x40010400

08003538 <HAL_GPIO_WritePin>:
{
  /* Check the parameters */
  assert_param(IS_GPIO_PIN(GPIO_Pin));
  assert_param(IS_GPIO_PIN_ACTION(PinState));

  if (PinState != GPIO_PIN_RESET)
 8003538:	2a00      	cmp	r2, #0
 800353a:	d001      	beq.n	8003540 <HAL_GPIO_WritePin+0x8>
  {
    GPIOx->BSRR = (uint32_t)GPIO_Pin;
 800353c:	6181      	str	r1, [r0, #24]
  }
  else
  {
    GPIOx->BRR = (uint32_t)GPIO_Pin;
  }
}
 800353e:	4770      	bx	lr
    GPIOx->BRR = (uint32_t)GPIO_Pin;
 8003540:	6281      	str	r1, [r0, #40]	@ 0x28
}
 8003542:	e7fc      	b.n	800353e <HAL_GPIO_WritePin+0x6>

08003544 <HAL_RCC_OscConfig>:
  *         supported by this macro. User should request a transition to HSE Off
  *         first and then HSE On or HSE Bypass.
  * @retval HAL status
  */
HAL_StatusTypeDef HAL_RCC_OscConfig(RCC_OscInitTypeDef  *RCC_OscInitStruct)
{
 8003544:	b5f0      	push	{r4, r5, r6, r7, lr}
 8003546:	0004      	movs	r4, r0
 8003548:	b085      	sub	sp, #20
  uint32_t tickstart;
  uint32_t pll_config;
  uint32_t pll_config2;

  /* Check Null pointer */
  if(RCC_OscInitStruct == NULL)
 800354a:	2800      	cmp	r0, #0
 800354c:	d102      	bne.n	8003554 <HAL_RCC_OscConfig+0x10>
  {
    return HAL_ERROR;
 800354e:	2001      	movs	r0, #1
      }
    }
  }

  return HAL_OK;
}
 8003550:	b005      	add	sp, #20
 8003552:	bdf0      	pop	{r4, r5, r6, r7, pc}
  if(((RCC_OscInitStruct->OscillatorType) & RCC_OSCILLATORTYPE_HSE) == RCC_OSCILLATORTYPE_HSE)
 8003554:	6803      	ldr	r3, [r0, #0]
 8003556:	07db      	lsls	r3, r3, #31
 8003558:	d433      	bmi.n	80035c2 <HAL_RCC_OscConfig+0x7e>
  if(((RCC_OscInitStruct->OscillatorType) & RCC_OSCILLATORTYPE_HSI) == RCC_OSCILLATORTYPE_HSI)
 800355a:	6823      	ldr	r3, [r4, #0]
 800355c:	079b      	lsls	r3, r3, #30
 800355e:	d500      	bpl.n	8003562 <HAL_RCC_OscConfig+0x1e>
 8003560:	e087      	b.n	8003672 <HAL_RCC_OscConfig+0x12e>
  if(((RCC_OscInitStruct->OscillatorType) & RCC_OSCILLATORTYPE_LSI) == RCC_OSCILLATORTYPE_LSI)
 8003562:	6823      	ldr	r3, [r4, #0]
 8003564:	071b      	lsls	r3, r3, #28
 8003566:	d500      	bpl.n	800356a <HAL_RCC_OscConfig+0x26>
 8003568:	e0c8      	b.n	80036fc <HAL_RCC_OscConfig+0x1b8>
  if(((RCC_OscInitStruct->OscillatorType) & RCC_OSCILLATORTYPE_LSE) == RCC_OSCILLATORTYPE_LSE)
 800356a:	6823      	ldr	r3, [r4, #0]
 800356c:	075b      	lsls	r3, r3, #29
 800356e:	d500      	bpl.n	8003572 <HAL_RCC_OscConfig+0x2e>
 8003570:	e0eb      	b.n	800374a <HAL_RCC_OscConfig+0x206>
  if(((RCC_OscInitStruct->OscillatorType) & RCC_OSCILLATORTYPE_HSI14) == RCC_OSCILLATORTYPE_HSI14)
 8003572:	6823      	ldr	r3, [r4, #0]
 8003574:	06db      	lsls	r3, r3, #27
 8003576:	d51a      	bpl.n	80035ae <HAL_RCC_OscConfig+0x6a>
    if(RCC_OscInitStruct->HSI14State == RCC_HSI14_ON)
 8003578:	6962      	ldr	r2, [r4, #20]
 800357a:	2304      	movs	r3, #4
 800357c:	4db9      	ldr	r5, [pc, #740]	@ (8003864 <HAL_RCC_OscConfig+0x320>)
 800357e:	2a01      	cmp	r2, #1
 8003580:	d000      	beq.n	8003584 <HAL_RCC_OscConfig+0x40>
 8003582:	e154      	b.n	800382e <HAL_RCC_OscConfig+0x2ea>
      __HAL_RCC_HSI14ADC_DISABLE();
 8003584:	6b69      	ldr	r1, [r5, #52]	@ 0x34
      while(__HAL_RCC_GET_FLAG(RCC_FLAG_HSI14RDY) == RESET)
 8003586:	2702      	movs	r7, #2
      __HAL_RCC_HSI14ADC_DISABLE();
 8003588:	430b      	orrs	r3, r1
 800358a:	636b      	str	r3, [r5, #52]	@ 0x34
      __HAL_RCC_HSI14_ENABLE();
 800358c:	6b6b      	ldr	r3, [r5, #52]	@ 0x34
 800358e:	431a      	orrs	r2, r3
 8003590:	636a      	str	r2, [r5, #52]	@ 0x34
      tickstart = HAL_GetTick();
 8003592:	f7ff fba9 	bl	8002ce8 <HAL_GetTick>
 8003596:	0006      	movs	r6, r0
      while(__HAL_RCC_GET_FLAG(RCC_FLAG_HSI14RDY) == RESET)
 8003598:	6b6b      	ldr	r3, [r5, #52]	@ 0x34
 800359a:	423b      	tst	r3, r7
 800359c:	d100      	bne.n	80035a0 <HAL_RCC_OscConfig+0x5c>
 800359e:	e13f      	b.n	8003820 <HAL_RCC_OscConfig+0x2dc>
      __HAL_RCC_HSI14_CALIBRATIONVALUE_ADJUST(RCC_OscInitStruct->HSI14CalibrationValue);
 80035a0:	21f8      	movs	r1, #248	@ 0xf8
 80035a2:	6b6a      	ldr	r2, [r5, #52]	@ 0x34
 80035a4:	69a3      	ldr	r3, [r4, #24]
 80035a6:	438a      	bics	r2, r1
 80035a8:	00db      	lsls	r3, r3, #3
 80035aa:	4313      	orrs	r3, r2
 80035ac:	636b      	str	r3, [r5, #52]	@ 0x34
  if(((RCC_OscInitStruct->OscillatorType) & RCC_OSCILLATORTYPE_HSI48) == RCC_OSCILLATORTYPE_HSI48)
 80035ae:	6823      	ldr	r3, [r4, #0]
 80035b0:	069b      	lsls	r3, r3, #26
 80035b2:	d500      	bpl.n	80035b6 <HAL_RCC_OscConfig+0x72>
 80035b4:	e162      	b.n	800387c <HAL_RCC_OscConfig+0x338>
  if ((RCC_OscInitStruct->PLL.PLLState) != RCC_PLL_NONE)
 80035b6:	6a63      	ldr	r3, [r4, #36]	@ 0x24
 80035b8:	2b00      	cmp	r3, #0
 80035ba:	d000      	beq.n	80035be <HAL_RCC_OscConfig+0x7a>
 80035bc:	e1a1      	b.n	8003902 <HAL_RCC_OscConfig+0x3be>
  return HAL_OK;
 80035be:	2000      	movs	r0, #0
 80035c0:	e7c6      	b.n	8003550 <HAL_RCC_OscConfig+0xc>
    if((__HAL_RCC_GET_SYSCLK_SOURCE() == RCC_SYSCLKSOURCE_STATUS_HSE) 
 80035c2:	220c      	movs	r2, #12
 80035c4:	4da7      	ldr	r5, [pc, #668]	@ (8003864 <HAL_RCC_OscConfig+0x320>)
 80035c6:	686b      	ldr	r3, [r5, #4]
 80035c8:	4013      	ands	r3, r2
 80035ca:	2b04      	cmp	r3, #4
 80035cc:	d00b      	beq.n	80035e6 <HAL_RCC_OscConfig+0xa2>
       || ((__HAL_RCC_GET_SYSCLK_SOURCE() == RCC_SYSCLKSOURCE_STATUS_PLLCLK) && (__HAL_RCC_GET_PLL_OSCSOURCE() == RCC_PLLSOURCE_HSE)))
 80035ce:	686b      	ldr	r3, [r5, #4]
 80035d0:	4013      	ands	r3, r2
 80035d2:	2b08      	cmp	r3, #8
 80035d4:	d10e      	bne.n	80035f4 <HAL_RCC_OscConfig+0xb0>
 80035d6:	22c0      	movs	r2, #192	@ 0xc0
 80035d8:	686b      	ldr	r3, [r5, #4]
 80035da:	0252      	lsls	r2, r2, #9
 80035dc:	4013      	ands	r3, r2
 80035de:	2280      	movs	r2, #128	@ 0x80
 80035e0:	0252      	lsls	r2, r2, #9
 80035e2:	4293      	cmp	r3, r2
 80035e4:	d106      	bne.n	80035f4 <HAL_RCC_OscConfig+0xb0>
      if((__HAL_RCC_GET_FLAG(RCC_FLAG_HSERDY) != RESET) && (RCC_OscInitStruct->HSEState == RCC_HSE_OFF))
 80035e6:	682b      	ldr	r3, [r5, #0]
 80035e8:	039b      	lsls	r3, r3, #14
 80035ea:	d5b6      	bpl.n	800355a <HAL_RCC_OscConfig+0x16>
 80035ec:	6863      	ldr	r3, [r4, #4]
 80035ee:	2b00      	cmp	r3, #0
 80035f0:	d1b3      	bne.n	800355a <HAL_RCC_OscConfig+0x16>
 80035f2:	e7ac      	b.n	800354e <HAL_RCC_OscConfig+0xa>
      __HAL_RCC_HSE_CONFIG(RCC_OscInitStruct->HSEState);
 80035f4:	6863      	ldr	r3, [r4, #4]
 80035f6:	2b01      	cmp	r3, #1
 80035f8:	d113      	bne.n	8003622 <HAL_RCC_OscConfig+0xde>
 80035fa:	2380      	movs	r3, #128	@ 0x80
 80035fc:	682a      	ldr	r2, [r5, #0]
 80035fe:	025b      	lsls	r3, r3, #9
 8003600:	4313      	orrs	r3, r2
 8003602:	602b      	str	r3, [r5, #0]
        tickstart = HAL_GetTick();
 8003604:	f7ff fb70 	bl	8002ce8 <HAL_GetTick>
        while(__HAL_RCC_GET_FLAG(RCC_FLAG_HSERDY) == RESET)
 8003608:	2780      	movs	r7, #128	@ 0x80
        tickstart = HAL_GetTick();
 800360a:	0006      	movs	r6, r0
        while(__HAL_RCC_GET_FLAG(RCC_FLAG_HSERDY) == RESET)
 800360c:	02bf      	lsls	r7, r7, #10
 800360e:	682b      	ldr	r3, [r5, #0]
 8003610:	423b      	tst	r3, r7
 8003612:	d1a2      	bne.n	800355a <HAL_RCC_OscConfig+0x16>
          if((HAL_GetTick() - tickstart ) > HSE_TIMEOUT_VALUE)
 8003614:	f7ff fb68 	bl	8002ce8 <HAL_GetTick>
 8003618:	1b80      	subs	r0, r0, r6
 800361a:	2864      	cmp	r0, #100	@ 0x64
 800361c:	d9f7      	bls.n	800360e <HAL_RCC_OscConfig+0xca>
            return HAL_TIMEOUT;
 800361e:	2003      	movs	r0, #3
 8003620:	e796      	b.n	8003550 <HAL_RCC_OscConfig+0xc>
      __HAL_RCC_HSE_CONFIG(RCC_OscInitStruct->HSEState);
 8003622:	2b00      	cmp	r3, #0
 8003624:	d115      	bne.n	8003652 <HAL_RCC_OscConfig+0x10e>
 8003626:	682b      	ldr	r3, [r5, #0]
 8003628:	4a8f      	ldr	r2, [pc, #572]	@ (8003868 <HAL_RCC_OscConfig+0x324>)
        while(__HAL_RCC_GET_FLAG(RCC_FLAG_HSERDY) != RESET)
 800362a:	2780      	movs	r7, #128	@ 0x80
      __HAL_RCC_HSE_CONFIG(RCC_OscInitStruct->HSEState);
 800362c:	4013      	ands	r3, r2
 800362e:	602b      	str	r3, [r5, #0]
 8003630:	682b      	ldr	r3, [r5, #0]
 8003632:	4a8e      	ldr	r2, [pc, #568]	@ (800386c <HAL_RCC_OscConfig+0x328>)
        while(__HAL_RCC_GET_FLAG(RCC_FLAG_HSERDY) != RESET)
 8003634:	02bf      	lsls	r7, r7, #10
      __HAL_RCC_HSE_CONFIG(RCC_OscInitStruct->HSEState);
 8003636:	4013      	ands	r3, r2
 8003638:	602b      	str	r3, [r5, #0]
        tickstart = HAL_GetTick();
 800363a:	f7ff fb55 	bl	8002ce8 <HAL_GetTick>
 800363e:	0006      	movs	r6, r0
        while(__HAL_RCC_GET_FLAG(RCC_FLAG_HSERDY) != RESET)
 8003640:	682b      	ldr	r3, [r5, #0]
 8003642:	423b      	tst	r3, r7
 8003644:	d089      	beq.n	800355a <HAL_RCC_OscConfig+0x16>
           if((HAL_GetTick() - tickstart ) > HSE_TIMEOUT_VALUE)
 8003646:	f7ff fb4f 	bl	8002ce8 <HAL_GetTick>
 800364a:	1b80      	subs	r0, r0, r6
 800364c:	2864      	cmp	r0, #100	@ 0x64
 800364e:	d9f7      	bls.n	8003640 <HAL_RCC_OscConfig+0xfc>
 8003650:	e7e5      	b.n	800361e <HAL_RCC_OscConfig+0xda>
      __HAL_RCC_HSE_CONFIG(RCC_OscInitStruct->HSEState);
 8003652:	2b05      	cmp	r3, #5
 8003654:	d105      	bne.n	8003662 <HAL_RCC_OscConfig+0x11e>
 8003656:	2380      	movs	r3, #128	@ 0x80
 8003658:	682a      	ldr	r2, [r5, #0]
 800365a:	02db      	lsls	r3, r3, #11
 800365c:	4313      	orrs	r3, r2
 800365e:	602b      	str	r3, [r5, #0]
 8003660:	e7cb      	b.n	80035fa <HAL_RCC_OscConfig+0xb6>
 8003662:	682b      	ldr	r3, [r5, #0]
 8003664:	4a80      	ldr	r2, [pc, #512]	@ (8003868 <HAL_RCC_OscConfig+0x324>)
 8003666:	4013      	ands	r3, r2
 8003668:	602b      	str	r3, [r5, #0]
 800366a:	682b      	ldr	r3, [r5, #0]
 800366c:	4a7f      	ldr	r2, [pc, #508]	@ (800386c <HAL_RCC_OscConfig+0x328>)
 800366e:	4013      	ands	r3, r2
 8003670:	e7c7      	b.n	8003602 <HAL_RCC_OscConfig+0xbe>
    if((__HAL_RCC_GET_SYSCLK_SOURCE() == RCC_SYSCLKSOURCE_STATUS_HSI) 
 8003672:	220c      	movs	r2, #12
 8003674:	4d7b      	ldr	r5, [pc, #492]	@ (8003864 <HAL_RCC_OscConfig+0x320>)
 8003676:	686b      	ldr	r3, [r5, #4]
 8003678:	4213      	tst	r3, r2
 800367a:	d00b      	beq.n	8003694 <HAL_RCC_OscConfig+0x150>
       || ((__HAL_RCC_GET_SYSCLK_SOURCE() == RCC_SYSCLKSOURCE_STATUS_PLLCLK) && (__HAL_RCC_GET_PLL_OSCSOURCE() == RCC_PLLSOURCE_HSI)))
 800367c:	686b      	ldr	r3, [r5, #4]
 800367e:	4013      	ands	r3, r2
 8003680:	2b08      	cmp	r3, #8
 8003682:	d116      	bne.n	80036b2 <HAL_RCC_OscConfig+0x16e>
 8003684:	22c0      	movs	r2, #192	@ 0xc0
 8003686:	686b      	ldr	r3, [r5, #4]
 8003688:	0252      	lsls	r2, r2, #9
 800368a:	4013      	ands	r3, r2
 800368c:	2280      	movs	r2, #128	@ 0x80
 800368e:	0212      	lsls	r2, r2, #8
 8003690:	4293      	cmp	r3, r2
 8003692:	d10e      	bne.n	80036b2 <HAL_RCC_OscConfig+0x16e>
      if((__HAL_RCC_GET_FLAG(RCC_FLAG_HSIRDY) != RESET) && (RCC_OscInitStruct->HSIState != RCC_HSI_ON))
 8003694:	682b      	ldr	r3, [r5, #0]
 8003696:	079b      	lsls	r3, r3, #30
 8003698:	d503      	bpl.n	80036a2 <HAL_RCC_OscConfig+0x15e>
 800369a:	68e3      	ldr	r3, [r4, #12]
 800369c:	2b01      	cmp	r3, #1
 800369e:	d000      	beq.n	80036a2 <HAL_RCC_OscConfig+0x15e>
 80036a0:	e755      	b.n	800354e <HAL_RCC_OscConfig+0xa>
        __HAL_RCC_HSI_CALIBRATIONVALUE_ADJUST(RCC_OscInitStruct->HSICalibrationValue);
 80036a2:	21f8      	movs	r1, #248	@ 0xf8
 80036a4:	682a      	ldr	r2, [r5, #0]
 80036a6:	6923      	ldr	r3, [r4, #16]
 80036a8:	438a      	bics	r2, r1
 80036aa:	00db      	lsls	r3, r3, #3
 80036ac:	4313      	orrs	r3, r2
 80036ae:	602b      	str	r3, [r5, #0]
 80036b0:	e757      	b.n	8003562 <HAL_RCC_OscConfig+0x1e>
      if(RCC_OscInitStruct->HSIState != RCC_HSI_OFF)
 80036b2:	68e2      	ldr	r2, [r4, #12]
 80036b4:	2301      	movs	r3, #1
 80036b6:	2a00      	cmp	r2, #0
 80036b8:	d00f      	beq.n	80036da <HAL_RCC_OscConfig+0x196>
        __HAL_RCC_HSI_ENABLE();
 80036ba:	682a      	ldr	r2, [r5, #0]
        while(__HAL_RCC_GET_FLAG(RCC_FLAG_HSIRDY) == RESET)
 80036bc:	2702      	movs	r7, #2
        __HAL_RCC_HSI_ENABLE();
 80036be:	4313      	orrs	r3, r2
 80036c0:	602b      	str	r3, [r5, #0]
        tickstart = HAL_GetTick();
 80036c2:	f7ff fb11 	bl	8002ce8 <HAL_GetTick>
 80036c6:	0006      	movs	r6, r0
        while(__HAL_RCC_GET_FLAG(RCC_FLAG_HSIRDY) == RESET)
 80036c8:	682b      	ldr	r3, [r5, #0]
 80036ca:	423b      	tst	r3, r7
 80036cc:	d1e9      	bne.n	80036a2 <HAL_RCC_OscConfig+0x15e>
          if((HAL_GetTick() - tickstart ) > HSI_TIMEOUT_VALUE)
 80036ce:	f7ff fb0b 	bl	8002ce8 <HAL_GetTick>
 80036d2:	1b80      	subs	r0, r0, r6
 80036d4:	2802      	cmp	r0, #2
 80036d6:	d9f7      	bls.n	80036c8 <HAL_RCC_OscConfig+0x184>
 80036d8:	e7a1      	b.n	800361e <HAL_RCC_OscConfig+0xda>
        __HAL_RCC_HSI_DISABLE();
 80036da:	682a      	ldr	r2, [r5, #0]
        while(__HAL_RCC_GET_FLAG(RCC_FLAG_HSIRDY) != RESET)
 80036dc:	2702      	movs	r7, #2
        __HAL_RCC_HSI_DISABLE();
 80036de:	439a      	bics	r2, r3
 80036e0:	602a      	str	r2, [r5, #0]
        tickstart = HAL_GetTick();
 80036e2:	f7ff fb01 	bl	8002ce8 <HAL_GetTick>
 80036e6:	0006      	movs	r6, r0
        while(__HAL_RCC_GET_FLAG(RCC_FLAG_HSIRDY) != RESET)
 80036e8:	682b      	ldr	r3, [r5, #0]
 80036ea:	423b      	tst	r3, r7
 80036ec:	d100      	bne.n	80036f0 <HAL_RCC_OscConfig+0x1ac>
 80036ee:	e738      	b.n	8003562 <HAL_RCC_OscConfig+0x1e>
          if((HAL_GetTick() - tickstart ) > HSI_TIMEOUT_VALUE)
 80036f0:	f7ff fafa 	bl	8002ce8 <HAL_GetTick>
 80036f4:	1b80      	subs	r0, r0, r6
 80036f6:	2802      	cmp	r0, #2
 80036f8:	d9f6      	bls.n	80036e8 <HAL_RCC_OscConfig+0x1a4>
 80036fa:	e790      	b.n	800361e <HAL_RCC_OscConfig+0xda>
    if(RCC_OscInitStruct->LSIState != RCC_LSI_OFF)
 80036fc:	69e2      	ldr	r2, [r4, #28]
 80036fe:	2301      	movs	r3, #1
 8003700:	4d58      	ldr	r5, [pc, #352]	@ (8003864 <HAL_RCC_OscConfig+0x320>)
 8003702:	2a00      	cmp	r2, #0
 8003704:	d010      	beq.n	8003728 <HAL_RCC_OscConfig+0x1e4>
      __HAL_RCC_LSI_ENABLE();
 8003706:	6a6a      	ldr	r2, [r5, #36]	@ 0x24
      while(__HAL_RCC_GET_FLAG(RCC_FLAG_LSIRDY) == RESET)
 8003708:	2702      	movs	r7, #2
      __HAL_RCC_LSI_ENABLE();
 800370a:	4313      	orrs	r3, r2
 800370c:	626b      	str	r3, [r5, #36]	@ 0x24
      tickstart = HAL_GetTick();
 800370e:	f7ff faeb 	bl	8002ce8 <HAL_GetTick>
 8003712:	0006      	movs	r6, r0
      while(__HAL_RCC_GET_FLAG(RCC_FLAG_LSIRDY) == RESET)
 8003714:	6a6b      	ldr	r3, [r5, #36]	@ 0x24
 8003716:	423b      	tst	r3, r7
 8003718:	d000      	beq.n	800371c <HAL_RCC_OscConfig+0x1d8>
 800371a:	e726      	b.n	800356a <HAL_RCC_OscConfig+0x26>
        if((HAL_GetTick() - tickstart ) > LSI_TIMEOUT_VALUE)
 800371c:	f7ff fae4 	bl	8002ce8 <HAL_GetTick>
 8003720:	1b80      	subs	r0, r0, r6
 8003722:	2802      	cmp	r0, #2
 8003724:	d9f6      	bls.n	8003714 <HAL_RCC_OscConfig+0x1d0>
 8003726:	e77a      	b.n	800361e <HAL_RCC_OscConfig+0xda>
      __HAL_RCC_LSI_DISABLE();
 8003728:	6a6a      	ldr	r2, [r5, #36]	@ 0x24
      while(__HAL_RCC_GET_FLAG(RCC_FLAG_LSIRDY) != RESET)
 800372a:	2702      	movs	r7, #2
      __HAL_RCC_LSI_DISABLE();
 800372c:	439a      	bics	r2, r3
 800372e:	626a      	str	r2, [r5, #36]	@ 0x24
      tickstart = HAL_GetTick();
 8003730:	f7ff fada 	bl	8002ce8 <HAL_GetTick>
 8003734:	0006      	movs	r6, r0
      while(__HAL_RCC_GET_FLAG(RCC_FLAG_LSIRDY) != RESET)
 8003736:	6a6b      	ldr	r3, [r5, #36]	@ 0x24
 8003738:	423b      	tst	r3, r7
 800373a:	d100      	bne.n	800373e <HAL_RCC_OscConfig+0x1fa>
 800373c:	e715      	b.n	800356a <HAL_RCC_OscConfig+0x26>
        if((HAL_GetTick() - tickstart ) > LSI_TIMEOUT_VALUE)
 800373e:	f7ff fad3 	bl	8002ce8 <HAL_GetTick>
 8003742:	1b80      	subs	r0, r0, r6
 8003744:	2802      	cmp	r0, #2
 8003746:	d9f6      	bls.n	8003736 <HAL_RCC_OscConfig+0x1f2>
 8003748:	e769      	b.n	800361e <HAL_RCC_OscConfig+0xda>
    if(__HAL_RCC_PWR_IS_CLK_DISABLED())
 800374a:	2280      	movs	r2, #128	@ 0x80
    FlagStatus       pwrclkchanged = RESET;
 800374c:	2100      	movs	r1, #0
    if(__HAL_RCC_PWR_IS_CLK_DISABLED())
 800374e:	4d45      	ldr	r5, [pc, #276]	@ (8003864 <HAL_RCC_OscConfig+0x320>)
 8003750:	0552      	lsls	r2, r2, #21
 8003752:	69eb      	ldr	r3, [r5, #28]
    FlagStatus       pwrclkchanged = RESET;
 8003754:	9100      	str	r1, [sp, #0]
    if(__HAL_RCC_PWR_IS_CLK_DISABLED())
 8003756:	4213      	tst	r3, r2
 8003758:	d108      	bne.n	800376c <HAL_RCC_OscConfig+0x228>
      __HAL_RCC_PWR_CLK_ENABLE();
 800375a:	69eb      	ldr	r3, [r5, #28]
 800375c:	4313      	orrs	r3, r2
 800375e:	61eb      	str	r3, [r5, #28]
 8003760:	69eb      	ldr	r3, [r5, #28]
 8003762:	4013      	ands	r3, r2
 8003764:	9303      	str	r3, [sp, #12]
 8003766:	9b03      	ldr	r3, [sp, #12]
      pwrclkchanged = SET;
 8003768:	2301      	movs	r3, #1
 800376a:	9300      	str	r3, [sp, #0]
    if(HAL_IS_BIT_CLR(PWR->CR, PWR_CR_DBP))
 800376c:	2780      	movs	r7, #128	@ 0x80
 800376e:	4e40      	ldr	r6, [pc, #256]	@ (8003870 <HAL_RCC_OscConfig+0x32c>)
 8003770:	007f      	lsls	r7, r7, #1
 8003772:	6833      	ldr	r3, [r6, #0]
 8003774:	423b      	tst	r3, r7
 8003776:	d015      	beq.n	80037a4 <HAL_RCC_OscConfig+0x260>
    __HAL_RCC_LSE_CONFIG(RCC_OscInitStruct->LSEState);
 8003778:	68a3      	ldr	r3, [r4, #8]
 800377a:	2b01      	cmp	r3, #1
 800377c:	d122      	bne.n	80037c4 <HAL_RCC_OscConfig+0x280>
 800377e:	6a2a      	ldr	r2, [r5, #32]
 8003780:	4313      	orrs	r3, r2
 8003782:	622b      	str	r3, [r5, #32]
      tickstart = HAL_GetTick();
 8003784:	f7ff fab0 	bl	8002ce8 <HAL_GetTick>
      while(__HAL_RCC_GET_FLAG(RCC_FLAG_LSERDY) == RESET)
 8003788:	2702      	movs	r7, #2
      tickstart = HAL_GetTick();
 800378a:	0006      	movs	r6, r0
      while(__HAL_RCC_GET_FLAG(RCC_FLAG_LSERDY) == RESET)
 800378c:	6a2b      	ldr	r3, [r5, #32]
 800378e:	423b      	tst	r3, r7
 8003790:	d03f      	beq.n	8003812 <HAL_RCC_OscConfig+0x2ce>
    if(pwrclkchanged == SET)
 8003792:	9b00      	ldr	r3, [sp, #0]
 8003794:	2b01      	cmp	r3, #1
 8003796:	d000      	beq.n	800379a <HAL_RCC_OscConfig+0x256>
 8003798:	e6eb      	b.n	8003572 <HAL_RCC_OscConfig+0x2e>
      __HAL_RCC_PWR_CLK_DISABLE();
 800379a:	69eb      	ldr	r3, [r5, #28]
 800379c:	4a35      	ldr	r2, [pc, #212]	@ (8003874 <HAL_RCC_OscConfig+0x330>)
 800379e:	4013      	ands	r3, r2
 80037a0:	61eb      	str	r3, [r5, #28]
 80037a2:	e6e6      	b.n	8003572 <HAL_RCC_OscConfig+0x2e>
      SET_BIT(PWR->CR, PWR_CR_DBP);
 80037a4:	6833      	ldr	r3, [r6, #0]
 80037a6:	433b      	orrs	r3, r7
 80037a8:	6033      	str	r3, [r6, #0]
      tickstart = HAL_GetTick();
 80037aa:	f7ff fa9d 	bl	8002ce8 <HAL_GetTick>
 80037ae:	9001      	str	r0, [sp, #4]
      while(HAL_IS_BIT_CLR(PWR->CR, PWR_CR_DBP))
 80037b0:	6833      	ldr	r3, [r6, #0]
 80037b2:	423b      	tst	r3, r7
 80037b4:	d1e0      	bne.n	8003778 <HAL_RCC_OscConfig+0x234>
        if((HAL_GetTick() - tickstart) > RCC_DBP_TIMEOUT_VALUE)
 80037b6:	f7ff fa97 	bl	8002ce8 <HAL_GetTick>
 80037ba:	9b01      	ldr	r3, [sp, #4]
 80037bc:	1ac0      	subs	r0, r0, r3
 80037be:	2864      	cmp	r0, #100	@ 0x64
 80037c0:	d9f6      	bls.n	80037b0 <HAL_RCC_OscConfig+0x26c>
 80037c2:	e72c      	b.n	800361e <HAL_RCC_OscConfig+0xda>
    __HAL_RCC_LSE_CONFIG(RCC_OscInitStruct->LSEState);
 80037c4:	2201      	movs	r2, #1
 80037c6:	2b00      	cmp	r3, #0
 80037c8:	d114      	bne.n	80037f4 <HAL_RCC_OscConfig+0x2b0>
 80037ca:	6a2b      	ldr	r3, [r5, #32]
      while(__HAL_RCC_GET_FLAG(RCC_FLAG_LSERDY) != RESET)
 80037cc:	2702      	movs	r7, #2
    __HAL_RCC_LSE_CONFIG(RCC_OscInitStruct->LSEState);
 80037ce:	4393      	bics	r3, r2
 80037d0:	622b      	str	r3, [r5, #32]
 80037d2:	6a2b      	ldr	r3, [r5, #32]
 80037d4:	3203      	adds	r2, #3
 80037d6:	4393      	bics	r3, r2
 80037d8:	622b      	str	r3, [r5, #32]
      tickstart = HAL_GetTick();
 80037da:	f7ff fa85 	bl	8002ce8 <HAL_GetTick>
 80037de:	0006      	movs	r6, r0
      while(__HAL_RCC_GET_FLAG(RCC_FLAG_LSERDY) != RESET)
 80037e0:	6a2b      	ldr	r3, [r5, #32]
 80037e2:	423b      	tst	r3, r7
 80037e4:	d0d5      	beq.n	8003792 <HAL_RCC_OscConfig+0x24e>
        if((HAL_GetTick() - tickstart ) > RCC_LSE_TIMEOUT_VALUE)
 80037e6:	f7ff fa7f 	bl	8002ce8 <HAL_GetTick>
 80037ea:	4b23      	ldr	r3, [pc, #140]	@ (8003878 <HAL_RCC_OscConfig+0x334>)
 80037ec:	1b80      	subs	r0, r0, r6
 80037ee:	4298      	cmp	r0, r3
 80037f0:	d9f6      	bls.n	80037e0 <HAL_RCC_OscConfig+0x29c>
 80037f2:	e714      	b.n	800361e <HAL_RCC_OscConfig+0xda>
    __HAL_RCC_LSE_CONFIG(RCC_OscInitStruct->LSEState);
 80037f4:	2b05      	cmp	r3, #5
 80037f6:	d105      	bne.n	8003804 <HAL_RCC_OscConfig+0x2c0>
 80037f8:	6a29      	ldr	r1, [r5, #32]
 80037fa:	3b01      	subs	r3, #1
 80037fc:	430b      	orrs	r3, r1
 80037fe:	622b      	str	r3, [r5, #32]
 8003800:	6a2b      	ldr	r3, [r5, #32]
 8003802:	e7bd      	b.n	8003780 <HAL_RCC_OscConfig+0x23c>
 8003804:	6a2b      	ldr	r3, [r5, #32]
 8003806:	4393      	bics	r3, r2
 8003808:	2204      	movs	r2, #4
 800380a:	622b      	str	r3, [r5, #32]
 800380c:	6a2b      	ldr	r3, [r5, #32]
 800380e:	4393      	bics	r3, r2
 8003810:	e7b7      	b.n	8003782 <HAL_RCC_OscConfig+0x23e>
        if((HAL_GetTick() - tickstart ) > RCC_LSE_TIMEOUT_VALUE)
 8003812:	f7ff fa69 	bl	8002ce8 <HAL_GetTick>
 8003816:	4b18      	ldr	r3, [pc, #96]	@ (8003878 <HAL_RCC_OscConfig+0x334>)
 8003818:	1b80      	subs	r0, r0, r6
 800381a:	4298      	cmp	r0, r3
 800381c:	d9b6      	bls.n	800378c <HAL_RCC_OscConfig+0x248>
 800381e:	e6fe      	b.n	800361e <HAL_RCC_OscConfig+0xda>
        if((HAL_GetTick() - tickstart) > HSI14_TIMEOUT_VALUE)
 8003820:	f7ff fa62 	bl	8002ce8 <HAL_GetTick>
 8003824:	1b80      	subs	r0, r0, r6
 8003826:	2802      	cmp	r0, #2
 8003828:	d800      	bhi.n	800382c <HAL_RCC_OscConfig+0x2e8>
 800382a:	e6b5      	b.n	8003598 <HAL_RCC_OscConfig+0x54>
 800382c:	e6f7      	b.n	800361e <HAL_RCC_OscConfig+0xda>
    else if(RCC_OscInitStruct->HSI14State == RCC_HSI14_ADC_CONTROL)
 800382e:	3205      	adds	r2, #5
 8003830:	d103      	bne.n	800383a <HAL_RCC_OscConfig+0x2f6>
      __HAL_RCC_HSI14ADC_ENABLE();
 8003832:	6b6a      	ldr	r2, [r5, #52]	@ 0x34
 8003834:	439a      	bics	r2, r3
 8003836:	636a      	str	r2, [r5, #52]	@ 0x34
 8003838:	e6b2      	b.n	80035a0 <HAL_RCC_OscConfig+0x5c>
      __HAL_RCC_HSI14ADC_DISABLE();
 800383a:	6b6a      	ldr	r2, [r5, #52]	@ 0x34
      while(__HAL_RCC_GET_FLAG(RCC_FLAG_HSI14RDY) != RESET)
 800383c:	2702      	movs	r7, #2
      __HAL_RCC_HSI14ADC_DISABLE();
 800383e:	4313      	orrs	r3, r2
      __HAL_RCC_HSI14_DISABLE();
 8003840:	2201      	movs	r2, #1
      __HAL_RCC_HSI14ADC_DISABLE();
 8003842:	636b      	str	r3, [r5, #52]	@ 0x34
      __HAL_RCC_HSI14_DISABLE();
 8003844:	6b6b      	ldr	r3, [r5, #52]	@ 0x34
 8003846:	4393      	bics	r3, r2
 8003848:	636b      	str	r3, [r5, #52]	@ 0x34
      tickstart = HAL_GetTick();
 800384a:	f7ff fa4d 	bl	8002ce8 <HAL_GetTick>
 800384e:	0006      	movs	r6, r0
      while(__HAL_RCC_GET_FLAG(RCC_FLAG_HSI14RDY) != RESET)
 8003850:	6b6b      	ldr	r3, [r5, #52]	@ 0x34
 8003852:	423b      	tst	r3, r7
 8003854:	d100      	bne.n	8003858 <HAL_RCC_OscConfig+0x314>
 8003856:	e6aa      	b.n	80035ae <HAL_RCC_OscConfig+0x6a>
        if((HAL_GetTick() - tickstart) > HSI14_TIMEOUT_VALUE)
 8003858:	f7ff fa46 	bl	8002ce8 <HAL_GetTick>
 800385c:	1b80      	subs	r0, r0, r6
 800385e:	2802      	cmp	r0, #2
 8003860:	d9f6      	bls.n	8003850 <HAL_RCC_OscConfig+0x30c>
 8003862:	e6dc      	b.n	800361e <HAL_RCC_OscConfig+0xda>
 8003864:	40021000 	.word	0x40021000
 8003868:	fffeffff 	.word	0xfffeffff
 800386c:	fffbffff 	.word	0xfffbffff
 8003870:	40007000 	.word	0x40007000
 8003874:	efffffff 	.word	0xefffffff
 8003878:	00001388 	.word	0x00001388
    if((__HAL_RCC_GET_SYSCLK_SOURCE() == RCC_SYSCLKSOURCE_STATUS_HSI48) ||
 800387c:	220c      	movs	r2, #12
 800387e:	4d55      	ldr	r5, [pc, #340]	@ (80039d4 <HAL_RCC_OscConfig+0x490>)
 8003880:	686b      	ldr	r3, [r5, #4]
 8003882:	4013      	ands	r3, r2
 8003884:	4293      	cmp	r3, r2
 8003886:	d009      	beq.n	800389c <HAL_RCC_OscConfig+0x358>
       ((__HAL_RCC_GET_SYSCLK_SOURCE() == RCC_SYSCLKSOURCE_STATUS_PLLCLK) && (__HAL_RCC_GET_PLL_OSCSOURCE() == RCC_PLLSOURCE_HSI48)))
 8003888:	686b      	ldr	r3, [r5, #4]
 800388a:	4013      	ands	r3, r2
    if((__HAL_RCC_GET_SYSCLK_SOURCE() == RCC_SYSCLKSOURCE_STATUS_HSI48) ||
 800388c:	2b08      	cmp	r3, #8
 800388e:	d10e      	bne.n	80038ae <HAL_RCC_OscConfig+0x36a>
       ((__HAL_RCC_GET_SYSCLK_SOURCE() == RCC_SYSCLKSOURCE_STATUS_PLLCLK) && (__HAL_RCC_GET_PLL_OSCSOURCE() == RCC_PLLSOURCE_HSI48)))
 8003890:	22c0      	movs	r2, #192	@ 0xc0
 8003892:	686b      	ldr	r3, [r5, #4]
 8003894:	0252      	lsls	r2, r2, #9
 8003896:	4013      	ands	r3, r2
 8003898:	4293      	cmp	r3, r2
 800389a:	d108      	bne.n	80038ae <HAL_RCC_OscConfig+0x36a>
      if((__HAL_RCC_GET_FLAG(RCC_FLAG_HSI48RDY) != RESET) && (RCC_OscInitStruct->HSI48State != RCC_HSI48_ON))
 800389c:	6b6b      	ldr	r3, [r5, #52]	@ 0x34
 800389e:	039b      	lsls	r3, r3, #14
 80038a0:	d400      	bmi.n	80038a4 <HAL_RCC_OscConfig+0x360>
 80038a2:	e688      	b.n	80035b6 <HAL_RCC_OscConfig+0x72>
 80038a4:	6a23      	ldr	r3, [r4, #32]
 80038a6:	2b01      	cmp	r3, #1
 80038a8:	d000      	beq.n	80038ac <HAL_RCC_OscConfig+0x368>
 80038aa:	e650      	b.n	800354e <HAL_RCC_OscConfig+0xa>
 80038ac:	e683      	b.n	80035b6 <HAL_RCC_OscConfig+0x72>
      if(RCC_OscInitStruct->HSI48State != RCC_HSI48_OFF)
 80038ae:	6a23      	ldr	r3, [r4, #32]
 80038b0:	2b00      	cmp	r3, #0
 80038b2:	d013      	beq.n	80038dc <HAL_RCC_OscConfig+0x398>
        __HAL_RCC_HSI48_ENABLE();
 80038b4:	2380      	movs	r3, #128	@ 0x80
 80038b6:	6b6a      	ldr	r2, [r5, #52]	@ 0x34
 80038b8:	025b      	lsls	r3, r3, #9
 80038ba:	4313      	orrs	r3, r2
 80038bc:	636b      	str	r3, [r5, #52]	@ 0x34
        tickstart = HAL_GetTick();
 80038be:	f7ff fa13 	bl	8002ce8 <HAL_GetTick>
        while(__HAL_RCC_GET_FLAG(RCC_FLAG_HSI48RDY) == RESET)
 80038c2:	2780      	movs	r7, #128	@ 0x80
        tickstart = HAL_GetTick();
 80038c4:	0006      	movs	r6, r0
        while(__HAL_RCC_GET_FLAG(RCC_FLAG_HSI48RDY) == RESET)
 80038c6:	02bf      	lsls	r7, r7, #10
 80038c8:	6b6b      	ldr	r3, [r5, #52]	@ 0x34
 80038ca:	423b      	tst	r3, r7
 80038cc:	d000      	beq.n	80038d0 <HAL_RCC_OscConfig+0x38c>
 80038ce:	e672      	b.n	80035b6 <HAL_RCC_OscConfig+0x72>
          if((HAL_GetTick() - tickstart) > HSI48_TIMEOUT_VALUE)
 80038d0:	f7ff fa0a 	bl	8002ce8 <HAL_GetTick>
 80038d4:	1b80      	subs	r0, r0, r6
 80038d6:	2802      	cmp	r0, #2
 80038d8:	d9f6      	bls.n	80038c8 <HAL_RCC_OscConfig+0x384>
 80038da:	e6a0      	b.n	800361e <HAL_RCC_OscConfig+0xda>
        __HAL_RCC_HSI48_DISABLE();
 80038dc:	6b6b      	ldr	r3, [r5, #52]	@ 0x34
 80038de:	4a3e      	ldr	r2, [pc, #248]	@ (80039d8 <HAL_RCC_OscConfig+0x494>)
        while(__HAL_RCC_GET_FLAG(RCC_FLAG_HSI48RDY) != RESET)
 80038e0:	2780      	movs	r7, #128	@ 0x80
        __HAL_RCC_HSI48_DISABLE();
 80038e2:	4013      	ands	r3, r2
 80038e4:	636b      	str	r3, [r5, #52]	@ 0x34
        tickstart = HAL_GetTick();
 80038e6:	f7ff f9ff 	bl	8002ce8 <HAL_GetTick>
 80038ea:	0006      	movs	r6, r0
        while(__HAL_RCC_GET_FLAG(RCC_FLAG_HSI48RDY) != RESET)
 80038ec:	02bf      	lsls	r7, r7, #10
 80038ee:	6b6b      	ldr	r3, [r5, #52]	@ 0x34
 80038f0:	423b      	tst	r3, r7
 80038f2:	d100      	bne.n	80038f6 <HAL_RCC_OscConfig+0x3b2>
 80038f4:	e65f      	b.n	80035b6 <HAL_RCC_OscConfig+0x72>
          if((HAL_GetTick() - tickstart) > HSI48_TIMEOUT_VALUE)
 80038f6:	f7ff f9f7 	bl	8002ce8 <HAL_GetTick>
 80038fa:	1b80      	subs	r0, r0, r6
 80038fc:	2802      	cmp	r0, #2
 80038fe:	d9f6      	bls.n	80038ee <HAL_RCC_OscConfig+0x3aa>
 8003900:	e68d      	b.n	800361e <HAL_RCC_OscConfig+0xda>
    if(__HAL_RCC_GET_SYSCLK_SOURCE() != RCC_SYSCLKSOURCE_STATUS_PLLCLK)
 8003902:	210c      	movs	r1, #12
 8003904:	4d33      	ldr	r5, [pc, #204]	@ (80039d4 <HAL_RCC_OscConfig+0x490>)
 8003906:	686a      	ldr	r2, [r5, #4]
 8003908:	400a      	ands	r2, r1
 800390a:	2a08      	cmp	r2, #8
 800390c:	d047      	beq.n	800399e <HAL_RCC_OscConfig+0x45a>
      if((RCC_OscInitStruct->PLL.PLLState) == RCC_PLL_ON)
 800390e:	4a33      	ldr	r2, [pc, #204]	@ (80039dc <HAL_RCC_OscConfig+0x498>)
 8003910:	2b02      	cmp	r3, #2
 8003912:	d132      	bne.n	800397a <HAL_RCC_OscConfig+0x436>
        __HAL_RCC_PLL_DISABLE();
 8003914:	682b      	ldr	r3, [r5, #0]
        while(__HAL_RCC_GET_FLAG(RCC_FLAG_PLLRDY)  != RESET)
 8003916:	2780      	movs	r7, #128	@ 0x80
        __HAL_RCC_PLL_DISABLE();
 8003918:	4013      	ands	r3, r2
 800391a:	602b      	str	r3, [r5, #0]
        tickstart = HAL_GetTick();
 800391c:	f7ff f9e4 	bl	8002ce8 <HAL_GetTick>
 8003920:	0006      	movs	r6, r0
        while(__HAL_RCC_GET_FLAG(RCC_FLAG_PLLRDY)  != RESET)
 8003922:	04bf      	lsls	r7, r7, #18
 8003924:	682b      	ldr	r3, [r5, #0]
 8003926:	423b      	tst	r3, r7
 8003928:	d121      	bne.n	800396e <HAL_RCC_OscConfig+0x42a>
        __HAL_RCC_PLL_CONFIG(RCC_OscInitStruct->PLL.PLLSource,
 800392a:	220f      	movs	r2, #15
 800392c:	6aeb      	ldr	r3, [r5, #44]	@ 0x2c
        while(__HAL_RCC_GET_FLAG(RCC_FLAG_PLLRDY)  == RESET)
 800392e:	2680      	movs	r6, #128	@ 0x80
        __HAL_RCC_PLL_CONFIG(RCC_OscInitStruct->PLL.PLLSource,
 8003930:	4393      	bics	r3, r2
 8003932:	6b22      	ldr	r2, [r4, #48]	@ 0x30
        while(__HAL_RCC_GET_FLAG(RCC_FLAG_PLLRDY)  == RESET)
 8003934:	04b6      	lsls	r6, r6, #18
        __HAL_RCC_PLL_CONFIG(RCC_OscInitStruct->PLL.PLLSource,
 8003936:	4313      	orrs	r3, r2
 8003938:	62eb      	str	r3, [r5, #44]	@ 0x2c
 800393a:	6aa1      	ldr	r1, [r4, #40]	@ 0x28
 800393c:	6ae3      	ldr	r3, [r4, #44]	@ 0x2c
 800393e:	686a      	ldr	r2, [r5, #4]
 8003940:	430b      	orrs	r3, r1
 8003942:	4927      	ldr	r1, [pc, #156]	@ (80039e0 <HAL_RCC_OscConfig+0x49c>)
 8003944:	400a      	ands	r2, r1
 8003946:	4313      	orrs	r3, r2
 8003948:	606b      	str	r3, [r5, #4]
        __HAL_RCC_PLL_ENABLE();
 800394a:	2380      	movs	r3, #128	@ 0x80
 800394c:	682a      	ldr	r2, [r5, #0]
 800394e:	045b      	lsls	r3, r3, #17
 8003950:	4313      	orrs	r3, r2
 8003952:	602b      	str	r3, [r5, #0]
        tickstart = HAL_GetTick();
 8003954:	f7ff f9c8 	bl	8002ce8 <HAL_GetTick>
 8003958:	0004      	movs	r4, r0
        while(__HAL_RCC_GET_FLAG(RCC_FLAG_PLLRDY)  == RESET)
 800395a:	682b      	ldr	r3, [r5, #0]
 800395c:	4233      	tst	r3, r6
 800395e:	d000      	beq.n	8003962 <HAL_RCC_OscConfig+0x41e>
 8003960:	e62d      	b.n	80035be <HAL_RCC_OscConfig+0x7a>
          if((HAL_GetTick() - tickstart ) > PLL_TIMEOUT_VALUE)
 8003962:	f7ff f9c1 	bl	8002ce8 <HAL_GetTick>
 8003966:	1b00      	subs	r0, r0, r4
 8003968:	2802      	cmp	r0, #2
 800396a:	d9f6      	bls.n	800395a <HAL_RCC_OscConfig+0x416>
 800396c:	e657      	b.n	800361e <HAL_RCC_OscConfig+0xda>
          if((HAL_GetTick() - tickstart ) > PLL_TIMEOUT_VALUE)
 800396e:	f7ff f9bb 	bl	8002ce8 <HAL_GetTick>
 8003972:	1b80      	subs	r0, r0, r6
 8003974:	2802      	cmp	r0, #2
 8003976:	d9d5      	bls.n	8003924 <HAL_RCC_OscConfig+0x3e0>
 8003978:	e651      	b.n	800361e <HAL_RCC_OscConfig+0xda>
        __HAL_RCC_PLL_DISABLE();
 800397a:	682b      	ldr	r3, [r5, #0]
        while(__HAL_RCC_GET_FLAG(RCC_FLAG_PLLRDY)  != RESET)
 800397c:	2680      	movs	r6, #128	@ 0x80
        __HAL_RCC_PLL_DISABLE();
 800397e:	4013      	ands	r3, r2
 8003980:	602b      	str	r3, [r5, #0]
        tickstart = HAL_GetTick();
 8003982:	f7ff f9b1 	bl	8002ce8 <HAL_GetTick>
 8003986:	0004      	movs	r4, r0
        while(__HAL_RCC_GET_FLAG(RCC_FLAG_PLLRDY)  != RESET)
 8003988:	04b6      	lsls	r6, r6, #18
 800398a:	682b      	ldr	r3, [r5, #0]
 800398c:	4233      	tst	r3, r6
 800398e:	d100      	bne.n	8003992 <HAL_RCC_OscConfig+0x44e>
 8003990:	e615      	b.n	80035be <HAL_RCC_OscConfig+0x7a>
          if((HAL_GetTick() - tickstart ) > PLL_TIMEOUT_VALUE)
 8003992:	f7ff f9a9 	bl	8002ce8 <HAL_GetTick>
 8003996:	1b00      	subs	r0, r0, r4
 8003998:	2802      	cmp	r0, #2
 800399a:	d9f6      	bls.n	800398a <HAL_RCC_OscConfig+0x446>
 800399c:	e63f      	b.n	800361e <HAL_RCC_OscConfig+0xda>
      if((RCC_OscInitStruct->PLL.PLLState) == RCC_PLL_OFF)
 800399e:	2b01      	cmp	r3, #1
 80039a0:	d100      	bne.n	80039a4 <HAL_RCC_OscConfig+0x460>
 80039a2:	e5d4      	b.n	800354e <HAL_RCC_OscConfig+0xa>
        if((READ_BIT(pll_config,  RCC_CFGR_PLLSRC)  != RCC_OscInitStruct->PLL.PLLSource) ||
 80039a4:	22c0      	movs	r2, #192	@ 0xc0
        pll_config  = RCC->CFGR;
 80039a6:	6868      	ldr	r0, [r5, #4]
        if((READ_BIT(pll_config,  RCC_CFGR_PLLSRC)  != RCC_OscInitStruct->PLL.PLLSource) ||
 80039a8:	6aa1      	ldr	r1, [r4, #40]	@ 0x28
 80039aa:	0252      	lsls	r2, r2, #9
        pll_config2 = RCC->CFGR2;
 80039ac:	6aeb      	ldr	r3, [r5, #44]	@ 0x2c
        if((READ_BIT(pll_config,  RCC_CFGR_PLLSRC)  != RCC_OscInitStruct->PLL.PLLSource) ||
 80039ae:	4002      	ands	r2, r0
 80039b0:	428a      	cmp	r2, r1
 80039b2:	d000      	beq.n	80039b6 <HAL_RCC_OscConfig+0x472>
 80039b4:	e5cb      	b.n	800354e <HAL_RCC_OscConfig+0xa>
           (READ_BIT(pll_config2, RCC_CFGR2_PREDIV) != RCC_OscInitStruct->PLL.PREDIV)    ||
 80039b6:	220f      	movs	r2, #15
 80039b8:	4013      	ands	r3, r2
        if((READ_BIT(pll_config,  RCC_CFGR_PLLSRC)  != RCC_OscInitStruct->PLL.PLLSource) ||
 80039ba:	6b22      	ldr	r2, [r4, #48]	@ 0x30
 80039bc:	4293      	cmp	r3, r2
 80039be:	d000      	beq.n	80039c2 <HAL_RCC_OscConfig+0x47e>
 80039c0:	e5c5      	b.n	800354e <HAL_RCC_OscConfig+0xa>
           (READ_BIT(pll_config,  RCC_CFGR_PLLMUL)  != RCC_OscInitStruct->PLL.PLLMUL))
 80039c2:	23f0      	movs	r3, #240	@ 0xf0
 80039c4:	039b      	lsls	r3, r3, #14
 80039c6:	4018      	ands	r0, r3
           (READ_BIT(pll_config2, RCC_CFGR2_PREDIV) != RCC_OscInitStruct->PLL.PREDIV)    ||
 80039c8:	6ae3      	ldr	r3, [r4, #44]	@ 0x2c
 80039ca:	1ac0      	subs	r0, r0, r3
 80039cc:	1e43      	subs	r3, r0, #1
 80039ce:	4198      	sbcs	r0, r3
 80039d0:	b2c0      	uxtb	r0, r0
 80039d2:	e5bd      	b.n	8003550 <HAL_RCC_OscConfig+0xc>
 80039d4:	40021000 	.word	0x40021000
 80039d8:	fffeffff 	.word	0xfffeffff
 80039dc:	feffffff 	.word	0xfeffffff
 80039e0:	ffc27fff 	.word	0xffc27fff

080039e4 <HAL_RCC_GetSysClockFreq>:
  uint32_t sysclockfreq = 0U;
  
  tmpreg = RCC->CFGR;
  
  /* Get SYSCLK source -------------------------------------------------------*/
  switch (tmpreg & RCC_CFGR_SWS)
 80039e4:	200c      	movs	r0, #12
{
 80039e6:	b570      	push	{r4, r5, r6, lr}
  tmpreg = RCC->CFGR;
 80039e8:	4d13      	ldr	r5, [pc, #76]	@ (8003a38 <HAL_RCC_GetSysClockFreq+0x54>)
 80039ea:	686b      	ldr	r3, [r5, #4]
  switch (tmpreg & RCC_CFGR_SWS)
 80039ec:	4018      	ands	r0, r3
 80039ee:	2808      	cmp	r0, #8
 80039f0:	d008      	beq.n	8003a04 <HAL_RCC_GetSysClockFreq+0x20>
  {
    case RCC_SYSCLKSOURCE_STATUS_HSE:  /* HSE used as system clock */
    {
      sysclockfreq = HSE_VALUE;
 80039f2:	380c      	subs	r0, #12
 80039f4:	4243      	negs	r3, r0
 80039f6:	4158      	adcs	r0, r3
 80039f8:	4b10      	ldr	r3, [pc, #64]	@ (8003a3c <HAL_RCC_GetSysClockFreq+0x58>)
 80039fa:	4240      	negs	r0, r0
 80039fc:	4018      	ands	r0, r3
 80039fe:	4b10      	ldr	r3, [pc, #64]	@ (8003a40 <HAL_RCC_GetSysClockFreq+0x5c>)
 8003a00:	18c0      	adds	r0, r0, r3
      sysclockfreq = HSI_VALUE;
      break;
    }
  }
  return sysclockfreq;
}
 8003a02:	bd70      	pop	{r4, r5, r6, pc}
      pllmul = aPLLMULFactorTable[(uint32_t)(tmpreg & RCC_CFGR_PLLMUL) >> RCC_CFGR_PLLMUL_BITNUMBER];
 8003a04:	200f      	movs	r0, #15
 8003a06:	490f      	ldr	r1, [pc, #60]	@ (8003a44 <HAL_RCC_GetSysClockFreq+0x60>)
 8003a08:	0c9a      	lsrs	r2, r3, #18
 8003a0a:	4002      	ands	r2, r0
 8003a0c:	5c8c      	ldrb	r4, [r1, r2]
      prediv = aPredivFactorTable[(uint32_t)(RCC->CFGR2 & RCC_CFGR2_PREDIV) >> RCC_CFGR2_PREDIV_BITNUMBER];
 8003a0e:	6aea      	ldr	r2, [r5, #44]	@ 0x2c
 8003a10:	490d      	ldr	r1, [pc, #52]	@ (8003a48 <HAL_RCC_GetSysClockFreq+0x64>)
 8003a12:	4002      	ands	r2, r0
 8003a14:	5c89      	ldrb	r1, [r1, r2]
      if ((tmpreg & RCC_CFGR_PLLSRC) == RCC_PLLSOURCE_HSE)
 8003a16:	22c0      	movs	r2, #192	@ 0xc0
 8003a18:	2080      	movs	r0, #128	@ 0x80
 8003a1a:	0252      	lsls	r2, r2, #9
 8003a1c:	4013      	ands	r3, r2
 8003a1e:	0240      	lsls	r0, r0, #9
 8003a20:	4283      	cmp	r3, r0
 8003a22:	d101      	bne.n	8003a28 <HAL_RCC_GetSysClockFreq+0x44>
        pllclk = (uint32_t)((uint64_t) HSI_VALUE / (uint64_t) (prediv)) * ((uint64_t) pllmul);
 8003a24:	4806      	ldr	r0, [pc, #24]	@ (8003a40 <HAL_RCC_GetSysClockFreq+0x5c>)
 8003a26:	e002      	b.n	8003a2e <HAL_RCC_GetSysClockFreq+0x4a>
      else if ((tmpreg & RCC_CFGR_PLLSRC) == RCC_PLLSOURCE_HSI48)
 8003a28:	4293      	cmp	r3, r2
 8003a2a:	d1fb      	bne.n	8003a24 <HAL_RCC_GetSysClockFreq+0x40>
        pllclk = (uint32_t)((uint64_t) HSI48_VALUE / (uint64_t) (prediv)) * ((uint64_t) pllmul);
 8003a2c:	4807      	ldr	r0, [pc, #28]	@ (8003a4c <HAL_RCC_GetSysClockFreq+0x68>)
        pllclk = (uint32_t)((uint64_t) HSI_VALUE / (uint64_t) (prediv)) * ((uint64_t) pllmul);
 8003a2e:	f7fc fb87 	bl	8000140 <__udivsi3>
 8003a32:	4360      	muls	r0, r4
 8003a34:	e7e5      	b.n	8003a02 <HAL_RCC_GetSysClockFreq+0x1e>
 8003a36:	46c0      	nop			@ (mov r8, r8)
 8003a38:	40021000 	.word	0x40021000
 8003a3c:	02625a00 	.word	0x02625a00
 8003a40:	007a1200 	.word	0x007a1200
 8003a44:	0800735c 	.word	0x0800735c
 8003a48:	0800734c 	.word	0x0800734c
 8003a4c:	02dc6c00 	.word	0x02dc6c00

08003a50 <HAL_RCC_ClockConfig>:
{
 8003a50:	b5f7      	push	{r0, r1, r2, r4, r5, r6, r7, lr}
 8003a52:	0004      	movs	r4, r0
 8003a54:	000f      	movs	r7, r1
  if(RCC_ClkInitStruct == NULL)
 8003a56:	2800      	cmp	r0, #0
 8003a58:	d101      	bne.n	8003a5e <HAL_RCC_ClockConfig+0xe>
    return HAL_ERROR;
 8003a5a:	2001      	movs	r0, #1
}
 8003a5c:	bdfe      	pop	{r1, r2, r3, r4, r5, r6, r7, pc}
  if(FLatency > __HAL_FLASH_GET_LATENCY())
 8003a5e:	2201      	movs	r2, #1
 8003a60:	4d3a      	ldr	r5, [pc, #232]	@ (8003b4c <HAL_RCC_ClockConfig+0xfc>)
 8003a62:	682b      	ldr	r3, [r5, #0]
 8003a64:	4013      	ands	r3, r2
 8003a66:	428b      	cmp	r3, r1
 8003a68:	d31c      	bcc.n	8003aa4 <HAL_RCC_ClockConfig+0x54>
  if(((RCC_ClkInitStruct->ClockType) & RCC_CLOCKTYPE_HCLK) == RCC_CLOCKTYPE_HCLK)
 8003a6a:	6822      	ldr	r2, [r4, #0]
 8003a6c:	0793      	lsls	r3, r2, #30
 8003a6e:	d422      	bmi.n	8003ab6 <HAL_RCC_ClockConfig+0x66>
  if(((RCC_ClkInitStruct->ClockType) & RCC_CLOCKTYPE_SYSCLK) == RCC_CLOCKTYPE_SYSCLK)
 8003a70:	07d2      	lsls	r2, r2, #31
 8003a72:	d42f      	bmi.n	8003ad4 <HAL_RCC_ClockConfig+0x84>
  if(FLatency < __HAL_FLASH_GET_LATENCY())
 8003a74:	2301      	movs	r3, #1
 8003a76:	682a      	ldr	r2, [r5, #0]
 8003a78:	401a      	ands	r2, r3
 8003a7a:	42ba      	cmp	r2, r7
 8003a7c:	d857      	bhi.n	8003b2e <HAL_RCC_ClockConfig+0xde>
  if(((RCC_ClkInitStruct->ClockType) & RCC_CLOCKTYPE_PCLK1) == RCC_CLOCKTYPE_PCLK1)
 8003a7e:	6823      	ldr	r3, [r4, #0]
 8003a80:	4d33      	ldr	r5, [pc, #204]	@ (8003b50 <HAL_RCC_ClockConfig+0x100>)
 8003a82:	075b      	lsls	r3, r3, #29
 8003a84:	d45a      	bmi.n	8003b3c <HAL_RCC_ClockConfig+0xec>
  SystemCoreClock = HAL_RCC_GetSysClockFreq() >> AHBPrescTable[(RCC->CFGR & RCC_CFGR_HPRE)>> RCC_CFGR_HPRE_BITNUMBER];
 8003a86:	f7ff ffad 	bl	80039e4 <HAL_RCC_GetSysClockFreq>
 8003a8a:	686b      	ldr	r3, [r5, #4]
 8003a8c:	4a31      	ldr	r2, [pc, #196]	@ (8003b54 <HAL_RCC_ClockConfig+0x104>)
 8003a8e:	061b      	lsls	r3, r3, #24
 8003a90:	0f1b      	lsrs	r3, r3, #28
 8003a92:	5cd3      	ldrb	r3, [r2, r3]
 8003a94:	4930      	ldr	r1, [pc, #192]	@ (8003b58 <HAL_RCC_ClockConfig+0x108>)
 8003a96:	40d8      	lsrs	r0, r3
 8003a98:	6008      	str	r0, [r1, #0]
  HAL_InitTick (TICK_INT_PRIORITY);
 8003a9a:	2000      	movs	r0, #0
 8003a9c:	f7ff f8e4 	bl	8002c68 <HAL_InitTick>
  return HAL_OK;
 8003aa0:	2000      	movs	r0, #0
 8003aa2:	e7db      	b.n	8003a5c <HAL_RCC_ClockConfig+0xc>
    __HAL_FLASH_SET_LATENCY(FLatency);
 8003aa4:	682b      	ldr	r3, [r5, #0]
 8003aa6:	4393      	bics	r3, r2
 8003aa8:	430b      	orrs	r3, r1
 8003aaa:	602b      	str	r3, [r5, #0]
    if(__HAL_FLASH_GET_LATENCY() != FLatency)
 8003aac:	682b      	ldr	r3, [r5, #0]
 8003aae:	4013      	ands	r3, r2
 8003ab0:	428b      	cmp	r3, r1
 8003ab2:	d1d2      	bne.n	8003a5a <HAL_RCC_ClockConfig+0xa>
 8003ab4:	e7d9      	b.n	8003a6a <HAL_RCC_ClockConfig+0x1a>
    if(((RCC_ClkInitStruct->ClockType) & RCC_CLOCKTYPE_PCLK1) == RCC_CLOCKTYPE_PCLK1)
 8003ab6:	4926      	ldr	r1, [pc, #152]	@ (8003b50 <HAL_RCC_ClockConfig+0x100>)
 8003ab8:	0753      	lsls	r3, r2, #29
 8003aba:	d504      	bpl.n	8003ac6 <HAL_RCC_ClockConfig+0x76>
      MODIFY_REG(RCC->CFGR, RCC_CFGR_PPRE, RCC_HCLK_DIV16);
 8003abc:	23e0      	movs	r3, #224	@ 0xe0
 8003abe:	6848      	ldr	r0, [r1, #4]
 8003ac0:	00db      	lsls	r3, r3, #3
 8003ac2:	4303      	orrs	r3, r0
 8003ac4:	604b      	str	r3, [r1, #4]
    MODIFY_REG(RCC->CFGR, RCC_CFGR_HPRE, RCC_ClkInitStruct->AHBCLKDivider);
 8003ac6:	20f0      	movs	r0, #240	@ 0xf0
 8003ac8:	684b      	ldr	r3, [r1, #4]
 8003aca:	4383      	bics	r3, r0
 8003acc:	68a0      	ldr	r0, [r4, #8]
 8003ace:	4303      	orrs	r3, r0
 8003ad0:	604b      	str	r3, [r1, #4]
 8003ad2:	e7cd      	b.n	8003a70 <HAL_RCC_ClockConfig+0x20>
    if(RCC_ClkInitStruct->SYSCLKSource == RCC_SYSCLKSOURCE_HSE)
 8003ad4:	6862      	ldr	r2, [r4, #4]
 8003ad6:	4e1e      	ldr	r6, [pc, #120]	@ (8003b50 <HAL_RCC_ClockConfig+0x100>)
 8003ad8:	2a01      	cmp	r2, #1
 8003ada:	d103      	bne.n	8003ae4 <HAL_RCC_ClockConfig+0x94>
      if(__HAL_RCC_GET_FLAG(RCC_FLAG_HSERDY) == RESET)
 8003adc:	6833      	ldr	r3, [r6, #0]
      if(__HAL_RCC_GET_FLAG(RCC_FLAG_HSI48RDY) == RESET)
 8003ade:	039b      	lsls	r3, r3, #14
 8003ae0:	d405      	bmi.n	8003aee <HAL_RCC_ClockConfig+0x9e>
 8003ae2:	e7ba      	b.n	8003a5a <HAL_RCC_ClockConfig+0xa>
    else if(RCC_ClkInitStruct->SYSCLKSource == RCC_SYSCLKSOURCE_PLLCLK)
 8003ae4:	2a02      	cmp	r2, #2
 8003ae6:	d11a      	bne.n	8003b1e <HAL_RCC_ClockConfig+0xce>
      if(__HAL_RCC_GET_FLAG(RCC_FLAG_PLLRDY) == RESET)
 8003ae8:	6833      	ldr	r3, [r6, #0]
 8003aea:	019b      	lsls	r3, r3, #6
 8003aec:	d5b5      	bpl.n	8003a5a <HAL_RCC_ClockConfig+0xa>
    __HAL_RCC_SYSCLK_CONFIG(RCC_ClkInitStruct->SYSCLKSource);
 8003aee:	2103      	movs	r1, #3
 8003af0:	6873      	ldr	r3, [r6, #4]
 8003af2:	438b      	bics	r3, r1
 8003af4:	4313      	orrs	r3, r2
 8003af6:	6073      	str	r3, [r6, #4]
    tickstart = HAL_GetTick();
 8003af8:	f7ff f8f6 	bl	8002ce8 <HAL_GetTick>
 8003afc:	9001      	str	r0, [sp, #4]
    while (__HAL_RCC_GET_SYSCLK_SOURCE() != (RCC_ClkInitStruct->SYSCLKSource << RCC_CFGR_SWS_Pos))
 8003afe:	230c      	movs	r3, #12
 8003b00:	6872      	ldr	r2, [r6, #4]
 8003b02:	401a      	ands	r2, r3
 8003b04:	6863      	ldr	r3, [r4, #4]
 8003b06:	009b      	lsls	r3, r3, #2
 8003b08:	429a      	cmp	r2, r3
 8003b0a:	d0b3      	beq.n	8003a74 <HAL_RCC_ClockConfig+0x24>
      if((HAL_GetTick() - tickstart ) > CLOCKSWITCH_TIMEOUT_VALUE)
 8003b0c:	f7ff f8ec 	bl	8002ce8 <HAL_GetTick>
 8003b10:	9b01      	ldr	r3, [sp, #4]
 8003b12:	1ac0      	subs	r0, r0, r3
 8003b14:	4b11      	ldr	r3, [pc, #68]	@ (8003b5c <HAL_RCC_ClockConfig+0x10c>)
 8003b16:	4298      	cmp	r0, r3
 8003b18:	d9f1      	bls.n	8003afe <HAL_RCC_ClockConfig+0xae>
        return HAL_TIMEOUT;
 8003b1a:	2003      	movs	r0, #3
 8003b1c:	e79e      	b.n	8003a5c <HAL_RCC_ClockConfig+0xc>
    else if(RCC_ClkInitStruct->SYSCLKSource == RCC_SYSCLKSOURCE_HSI48)
 8003b1e:	2a03      	cmp	r2, #3
 8003b20:	d101      	bne.n	8003b26 <HAL_RCC_ClockConfig+0xd6>
      if(__HAL_RCC_GET_FLAG(RCC_FLAG_HSI48RDY) == RESET)
 8003b22:	6b73      	ldr	r3, [r6, #52]	@ 0x34
 8003b24:	e7db      	b.n	8003ade <HAL_RCC_ClockConfig+0x8e>
      if(__HAL_RCC_GET_FLAG(RCC_FLAG_HSIRDY) == RESET)
 8003b26:	6833      	ldr	r3, [r6, #0]
 8003b28:	079b      	lsls	r3, r3, #30
 8003b2a:	d4e0      	bmi.n	8003aee <HAL_RCC_ClockConfig+0x9e>
 8003b2c:	e795      	b.n	8003a5a <HAL_RCC_ClockConfig+0xa>
    __HAL_FLASH_SET_LATENCY(FLatency);
 8003b2e:	682a      	ldr	r2, [r5, #0]
 8003b30:	439a      	bics	r2, r3
 8003b32:	602a      	str	r2, [r5, #0]
    if(__HAL_FLASH_GET_LATENCY() != FLatency)
 8003b34:	682a      	ldr	r2, [r5, #0]
 8003b36:	421a      	tst	r2, r3
 8003b38:	d0a1      	beq.n	8003a7e <HAL_RCC_ClockConfig+0x2e>
 8003b3a:	e78e      	b.n	8003a5a <HAL_RCC_ClockConfig+0xa>
    MODIFY_REG(RCC->CFGR, RCC_CFGR_PPRE, RCC_ClkInitStruct->APB1CLKDivider);
 8003b3c:	686b      	ldr	r3, [r5, #4]
 8003b3e:	4a08      	ldr	r2, [pc, #32]	@ (8003b60 <HAL_RCC_ClockConfig+0x110>)
 8003b40:	4013      	ands	r3, r2
 8003b42:	68e2      	ldr	r2, [r4, #12]
 8003b44:	4313      	orrs	r3, r2
 8003b46:	606b      	str	r3, [r5, #4]
 8003b48:	e79d      	b.n	8003a86 <HAL_RCC_ClockConfig+0x36>
 8003b4a:	46c0      	nop			@ (mov r8, r8)
 8003b4c:	40022000 	.word	0x40022000
 8003b50:	40021000 	.word	0x40021000
 8003b54:	0800733c 	.word	0x0800733c
 8003b58:	20000000 	.word	0x20000000
 8003b5c:	00001388 	.word	0x00001388
 8003b60:	fffff8ff 	.word	0xfffff8ff

08003b64 <HAL_RCC_GetPCLK1Freq>:
  * @retval PCLK1 frequency
  */
uint32_t HAL_RCC_GetPCLK1Freq(void)
{
  /* Get HCLK source and Compute PCLK1 frequency ---------------------------*/
  return (HAL_RCC_GetHCLKFreq() >> APBPrescTable[(RCC->CFGR & RCC_CFGR_PPRE) >> RCC_CFGR_PPRE_BITNUMBER]);
 8003b64:	4b04      	ldr	r3, [pc, #16]	@ (8003b78 <HAL_RCC_GetPCLK1Freq+0x14>)
  return SystemCoreClock;
 8003b66:	4a05      	ldr	r2, [pc, #20]	@ (8003b7c <HAL_RCC_GetPCLK1Freq+0x18>)
  return (HAL_RCC_GetHCLKFreq() >> APBPrescTable[(RCC->CFGR & RCC_CFGR_PPRE) >> RCC_CFGR_PPRE_BITNUMBER]);
 8003b68:	685b      	ldr	r3, [r3, #4]
 8003b6a:	4905      	ldr	r1, [pc, #20]	@ (8003b80 <HAL_RCC_GetPCLK1Freq+0x1c>)
 8003b6c:	055b      	lsls	r3, r3, #21
 8003b6e:	0f5b      	lsrs	r3, r3, #29
 8003b70:	5ccb      	ldrb	r3, [r1, r3]
 8003b72:	6810      	ldr	r0, [r2, #0]
 8003b74:	40d8      	lsrs	r0, r3
}    
 8003b76:	4770      	bx	lr
 8003b78:	40021000 	.word	0x40021000
 8003b7c:	20000000 	.word	0x20000000
 8003b80:	08007334 	.word	0x08007334

08003b84 <UART_EndRxTransfer>:
  * @brief  End ongoing Rx transfer on UART peripheral (following error detection or Reception completion).
  * @param  huart UART handle.
  * @retval None
  */
static void UART_EndRxTransfer(UART_HandleTypeDef *huart)
{
 8003b84:	b530      	push	{r4, r5, lr}
 */
__STATIC_FORCEINLINE uint32_t __get_PRIMASK(void)
{
  uint32_t result;

  __ASM volatile ("MRS %0, primask" : "=r" (result) :: "memory");
 8003b86:	f3ef 8410 	mrs	r4, PRIMASK
  \details Assigns the given value to the Priority Mask Register.
  \param [in]    priMask  Priority Mask
 */
__STATIC_FORCEINLINE void __set_PRIMASK(uint32_t priMask)
{
  __ASM volatile ("MSR primask, %0" : : "r" (priMask) : "memory");
 8003b8a:	2201      	movs	r2, #1
 8003b8c:	f382 8810 	msr	PRIMASK, r2
  /* Disable RXNE, PE and ERR (Frame error, noise error, overrun error) interrupts */
  ATOMIC_CLEAR_BIT(huart->Instance->CR1, (USART_CR1_RXNEIE | USART_CR1_PEIE));
 8003b90:	6801      	ldr	r1, [r0, #0]
 8003b92:	4d12      	ldr	r5, [pc, #72]	@ (8003bdc <UART_EndRxTransfer+0x58>)
 8003b94:	680b      	ldr	r3, [r1, #0]
 8003b96:	402b      	ands	r3, r5
 8003b98:	600b      	str	r3, [r1, #0]
 8003b9a:	f384 8810 	msr	PRIMASK, r4
  __ASM volatile ("MRS %0, primask" : "=r" (result) :: "memory");
 8003b9e:	f3ef 8410 	mrs	r4, PRIMASK
  __ASM volatile ("MSR primask, %0" : : "r" (priMask) : "memory");
 8003ba2:	f382 8810 	msr	PRIMASK, r2
  ATOMIC_CLEAR_BIT(huart->Instance->CR3, USART_CR3_EIE);
 8003ba6:	6801      	ldr	r1, [r0, #0]
 8003ba8:	688b      	ldr	r3, [r1, #8]
 8003baa:	4393      	bics	r3, r2
 8003bac:	608b      	str	r3, [r1, #8]
 8003bae:	f384 8810 	msr	PRIMASK, r4

  /* In case of reception waiting for IDLE event, disable also the IDLE IE interrupt source */
  if (huart->ReceptionType == HAL_UART_RECEPTION_TOIDLE)
 8003bb2:	6e03      	ldr	r3, [r0, #96]	@ 0x60
 8003bb4:	4293      	cmp	r3, r2
 8003bb6:	d10a      	bne.n	8003bce <UART_EndRxTransfer+0x4a>
  __ASM volatile ("MRS %0, primask" : "=r" (result) :: "memory");
 8003bb8:	f3ef 8110 	mrs	r1, PRIMASK
  __ASM volatile ("MSR primask, %0" : : "r" (priMask) : "memory");
 8003bbc:	f383 8810 	msr	PRIMASK, r3
  {
    ATOMIC_CLEAR_BIT(huart->Instance->CR1, USART_CR1_IDLEIE);
 8003bc0:	2410      	movs	r4, #16
 8003bc2:	6802      	ldr	r2, [r0, #0]
 8003bc4:	6813      	ldr	r3, [r2, #0]
 8003bc6:	43a3      	bics	r3, r4
 8003bc8:	6013      	str	r3, [r2, #0]
 8003bca:	f381 8810 	msr	PRIMASK, r1
  }

  /* At end of Rx process, restore huart->RxState to Ready */
  huart->RxState = HAL_UART_STATE_READY;
 8003bce:	2220      	movs	r2, #32
 8003bd0:	1d03      	adds	r3, r0, #4
 8003bd2:	67da      	str	r2, [r3, #124]	@ 0x7c
  huart->ReceptionType = HAL_UART_RECEPTION_STANDARD;
 8003bd4:	2300      	movs	r3, #0
 8003bd6:	6603      	str	r3, [r0, #96]	@ 0x60

  /* Reset RxIsr function pointer */
  huart->RxISR = NULL;
 8003bd8:	6683      	str	r3, [r0, #104]	@ 0x68
}
 8003bda:	bd30      	pop	{r4, r5, pc}
 8003bdc:	fffffedf 	.word	0xfffffedf

08003be0 <UART_SetConfig>:
{
 8003be0:	b570      	push	{r4, r5, r6, lr}
 8003be2:	0004      	movs	r4, r0
  tmpreg = (uint32_t)huart->Init.WordLength | huart->Init.Parity | huart->Init.Mode | huart->Init.OverSampling ;
 8003be4:	6925      	ldr	r5, [r4, #16]
 8003be6:	68a1      	ldr	r1, [r4, #8]
  MODIFY_REG(huart->Instance->CR1, USART_CR1_FIELDS, tmpreg);
 8003be8:	6803      	ldr	r3, [r0, #0]
  tmpreg = (uint32_t)huart->Init.WordLength | huart->Init.Parity | huart->Init.Mode | huart->Init.OverSampling ;
 8003bea:	4329      	orrs	r1, r5
 8003bec:	6965      	ldr	r5, [r4, #20]
 8003bee:	69c2      	ldr	r2, [r0, #28]
 8003bf0:	4329      	orrs	r1, r5
  MODIFY_REG(huart->Instance->CR1, USART_CR1_FIELDS, tmpreg);
 8003bf2:	6818      	ldr	r0, [r3, #0]
 8003bf4:	4d3d      	ldr	r5, [pc, #244]	@ (8003cec <UART_SetConfig+0x10c>)
  tmpreg = (uint32_t)huart->Init.WordLength | huart->Init.Parity | huart->Init.Mode | huart->Init.OverSampling ;
 8003bf6:	4311      	orrs	r1, r2
  MODIFY_REG(huart->Instance->CR1, USART_CR1_FIELDS, tmpreg);
 8003bf8:	4028      	ands	r0, r5
 8003bfa:	4301      	orrs	r1, r0
 8003bfc:	6019      	str	r1, [r3, #0]
  MODIFY_REG(huart->Instance->CR2, USART_CR2_STOP, huart->Init.StopBits);
 8003bfe:	6859      	ldr	r1, [r3, #4]
 8003c00:	483b      	ldr	r0, [pc, #236]	@ (8003cf0 <UART_SetConfig+0x110>)
  tmpreg |= huart->Init.OneBitSampling;
 8003c02:	6a25      	ldr	r5, [r4, #32]
  MODIFY_REG(huart->Instance->CR2, USART_CR2_STOP, huart->Init.StopBits);
 8003c04:	4001      	ands	r1, r0
 8003c06:	68e0      	ldr	r0, [r4, #12]
 8003c08:	4301      	orrs	r1, r0
 8003c0a:	6059      	str	r1, [r3, #4]
  tmpreg = (uint32_t)huart->Init.HwFlowCtl;
 8003c0c:	69a1      	ldr	r1, [r4, #24]
  MODIFY_REG(huart->Instance->CR3, USART_CR3_FIELDS, tmpreg);
 8003c0e:	6898      	ldr	r0, [r3, #8]
  tmpreg |= huart->Init.OneBitSampling;
 8003c10:	4329      	orrs	r1, r5
  MODIFY_REG(huart->Instance->CR3, USART_CR3_FIELDS, tmpreg);
 8003c12:	4d38      	ldr	r5, [pc, #224]	@ (8003cf4 <UART_SetConfig+0x114>)
 8003c14:	4028      	ands	r0, r5
 8003c16:	4301      	orrs	r1, r0
 8003c18:	6099      	str	r1, [r3, #8]
  UART_GETCLOCKSOURCE(huart, clocksource);
 8003c1a:	4937      	ldr	r1, [pc, #220]	@ (8003cf8 <UART_SetConfig+0x118>)
 8003c1c:	428b      	cmp	r3, r1
 8003c1e:	d115      	bne.n	8003c4c <UART_SetConfig+0x6c>
 8003c20:	2103      	movs	r1, #3
 8003c22:	4b36      	ldr	r3, [pc, #216]	@ (8003cfc <UART_SetConfig+0x11c>)
 8003c24:	6b1b      	ldr	r3, [r3, #48]	@ 0x30
 8003c26:	400b      	ands	r3, r1
 8003c28:	3b01      	subs	r3, #1
 8003c2a:	2b02      	cmp	r3, #2
 8003c2c:	d851      	bhi.n	8003cd2 <UART_SetConfig+0xf2>
 8003c2e:	4934      	ldr	r1, [pc, #208]	@ (8003d00 <UART_SetConfig+0x120>)
 8003c30:	5cc8      	ldrb	r0, [r1, r3]
  if (huart->Init.OverSampling == UART_OVERSAMPLING_8)
 8003c32:	2380      	movs	r3, #128	@ 0x80
 8003c34:	021b      	lsls	r3, r3, #8
 8003c36:	429a      	cmp	r2, r3
 8003c38:	d127      	bne.n	8003c8a <UART_SetConfig+0xaa>
    switch (clocksource)
 8003c3a:	2808      	cmp	r0, #8
 8003c3c:	d847      	bhi.n	8003cce <UART_SetConfig+0xee>
 8003c3e:	f7fc fa6b 	bl	8000118 <__gnu_thumb1_case_uqi>
 8003c42:	464c      	.short	0x464c
 8003c44:	460b460e 	.word	0x460b460e
 8003c48:	4646      	.short	0x4646
 8003c4a:	0f          	.byte	0x0f
 8003c4b:	00          	.byte	0x00
  UART_GETCLOCKSOURCE(huart, clocksource);
 8003c4c:	492d      	ldr	r1, [pc, #180]	@ (8003d04 <UART_SetConfig+0x124>)
 8003c4e:	185b      	adds	r3, r3, r1
 8003c50:	1e59      	subs	r1, r3, #1
 8003c52:	418b      	sbcs	r3, r1
 8003c54:	0118      	lsls	r0, r3, #4
 8003c56:	e7ec      	b.n	8003c32 <UART_SetConfig+0x52>
        pclk = HAL_RCC_GetSysClockFreq();
 8003c58:	f7ff fec4 	bl	80039e4 <HAL_RCC_GetSysClockFreq>
 8003c5c:	e03f      	b.n	8003cde <UART_SetConfig+0xfe>
    switch (clocksource)
 8003c5e:	4a2a      	ldr	r2, [pc, #168]	@ (8003d08 <UART_SetConfig+0x128>)
      usartdiv = (uint32_t)(UART_DIV_SAMPLING8(pclk, huart->Init.BaudRate));
 8003c60:	6861      	ldr	r1, [r4, #4]
 8003c62:	0052      	lsls	r2, r2, #1
 8003c64:	0848      	lsrs	r0, r1, #1
 8003c66:	1810      	adds	r0, r2, r0
 8003c68:	f7fc fa6a 	bl	8000140 <__udivsi3>
      if ((usartdiv >= UART_BRR_MIN) && (usartdiv <= UART_BRR_MAX))
 8003c6c:	0002      	movs	r2, r0
 8003c6e:	4b27      	ldr	r3, [pc, #156]	@ (8003d0c <UART_SetConfig+0x12c>)
 8003c70:	3a10      	subs	r2, #16
 8003c72:	429a      	cmp	r2, r3
 8003c74:	d82b      	bhi.n	8003cce <UART_SetConfig+0xee>
        brrtemp = (uint16_t)(usartdiv & 0xFFF0U);
 8003c76:	230f      	movs	r3, #15
 8003c78:	0002      	movs	r2, r0
        brrtemp |= (uint16_t)((usartdiv & (uint16_t)0x000FU) >> 1U);
 8003c7a:	0700      	lsls	r0, r0, #28
        brrtemp = (uint16_t)(usartdiv & 0xFFF0U);
 8003c7c:	439a      	bics	r2, r3
 8003c7e:	b293      	uxth	r3, r2
        brrtemp |= (uint16_t)((usartdiv & (uint16_t)0x000FU) >> 1U);
 8003c80:	0f40      	lsrs	r0, r0, #29
        huart->Instance->BRR = brrtemp;
 8003c82:	6822      	ldr	r2, [r4, #0]
 8003c84:	4303      	orrs	r3, r0
 8003c86:	60d3      	str	r3, [r2, #12]
 8003c88:	e02b      	b.n	8003ce2 <UART_SetConfig+0x102>
    switch (clocksource)
 8003c8a:	2808      	cmp	r0, #8
 8003c8c:	d81f      	bhi.n	8003cce <UART_SetConfig+0xee>
 8003c8e:	f7fc fa43 	bl	8000118 <__gnu_thumb1_case_uqi>
 8003c92:	1e13      	.short	0x1e13
 8003c94:	1e181e05 	.word	0x1e181e05
 8003c98:	1e1e      	.short	0x1e1e
 8003c9a:	1b          	.byte	0x1b
 8003c9b:	00          	.byte	0x00
        pclk = (uint32_t) HSI_VALUE;
 8003c9c:	481a      	ldr	r0, [pc, #104]	@ (8003d08 <UART_SetConfig+0x128>)
      usartdiv = (uint32_t)(UART_DIV_SAMPLING16(pclk, huart->Init.BaudRate));
 8003c9e:	6861      	ldr	r1, [r4, #4]
 8003ca0:	084b      	lsrs	r3, r1, #1
 8003ca2:	1818      	adds	r0, r3, r0
 8003ca4:	f7fc fa4c 	bl	8000140 <__udivsi3>
      if ((usartdiv >= UART_BRR_MIN) && (usartdiv <= UART_BRR_MAX))
 8003ca8:	0002      	movs	r2, r0
 8003caa:	4b18      	ldr	r3, [pc, #96]	@ (8003d0c <UART_SetConfig+0x12c>)
 8003cac:	3a10      	subs	r2, #16
 8003cae:	429a      	cmp	r2, r3
 8003cb0:	d80d      	bhi.n	8003cce <UART_SetConfig+0xee>
        huart->Instance->BRR = (uint16_t)usartdiv;
 8003cb2:	6823      	ldr	r3, [r4, #0]
 8003cb4:	60d8      	str	r0, [r3, #12]
 8003cb6:	e014      	b.n	8003ce2 <UART_SetConfig+0x102>
        pclk = HAL_RCC_GetPCLK1Freq();
 8003cb8:	f7ff ff54 	bl	8003b64 <HAL_RCC_GetPCLK1Freq>
    if (pclk != 0U)
 8003cbc:	2800      	cmp	r0, #0
 8003cbe:	d010      	beq.n	8003ce2 <UART_SetConfig+0x102>
 8003cc0:	e7ed      	b.n	8003c9e <UART_SetConfig+0xbe>
        pclk = HAL_RCC_GetSysClockFreq();
 8003cc2:	f7ff fe8f 	bl	80039e4 <HAL_RCC_GetSysClockFreq>
        break;
 8003cc6:	e7f9      	b.n	8003cbc <UART_SetConfig+0xdc>
    switch (clocksource)
 8003cc8:	2080      	movs	r0, #128	@ 0x80
 8003cca:	0200      	lsls	r0, r0, #8
 8003ccc:	e7e7      	b.n	8003c9e <UART_SetConfig+0xbe>
        ret = HAL_ERROR;
 8003cce:	2001      	movs	r0, #1
 8003cd0:	e008      	b.n	8003ce4 <UART_SetConfig+0x104>
  if (huart->Init.OverSampling == UART_OVERSAMPLING_8)
 8003cd2:	2380      	movs	r3, #128	@ 0x80
 8003cd4:	021b      	lsls	r3, r3, #8
 8003cd6:	429a      	cmp	r2, r3
 8003cd8:	d1ee      	bne.n	8003cb8 <UART_SetConfig+0xd8>
        pclk = HAL_RCC_GetPCLK1Freq();
 8003cda:	f7ff ff43 	bl	8003b64 <HAL_RCC_GetPCLK1Freq>
        pclk = HAL_RCC_GetSysClockFreq();
 8003cde:	1e02      	subs	r2, r0, #0
    if (pclk != 0U)
 8003ce0:	d1be      	bne.n	8003c60 <UART_SetConfig+0x80>
        pclk = (uint32_t) HSI_VALUE;
 8003ce2:	2000      	movs	r0, #0
  huart->RxISR = NULL;
 8003ce4:	2300      	movs	r3, #0
 8003ce6:	66a3      	str	r3, [r4, #104]	@ 0x68
  huart->TxISR = NULL;
 8003ce8:	66e3      	str	r3, [r4, #108]	@ 0x6c
}
 8003cea:	bd70      	pop	{r4, r5, r6, pc}
 8003cec:	efff69f3 	.word	0xefff69f3
 8003cf0:	ffffcfff 	.word	0xffffcfff
 8003cf4:	fffff4ff 	.word	0xfffff4ff
 8003cf8:	40013800 	.word	0x40013800
 8003cfc:	40021000 	.word	0x40021000
 8003d00:	0800736c 	.word	0x0800736c
 8003d04:	bfffbc00 	.word	0xbfffbc00
 8003d08:	007a1200 	.word	0x007a1200
 8003d0c:	0000ffef 	.word	0x0000ffef

08003d10 <UART_AdvFeatureConfig>:
  if (HAL_IS_BIT_SET(huart->AdvancedInit.AdvFeatureInit, UART_ADVFEATURE_SWAP_INIT))
 8003d10:	6a43      	ldr	r3, [r0, #36]	@ 0x24
{
 8003d12:	b530      	push	{r4, r5, lr}
  if (HAL_IS_BIT_SET(huart->AdvancedInit.AdvFeatureInit, UART_ADVFEATURE_SWAP_INIT))
 8003d14:	071a      	lsls	r2, r3, #28
 8003d16:	d506      	bpl.n	8003d26 <UART_AdvFeatureConfig+0x16>
    MODIFY_REG(huart->Instance->CR2, USART_CR2_SWAP, huart->AdvancedInit.Swap);
 8003d18:	6801      	ldr	r1, [r0, #0]
 8003d1a:	4c28      	ldr	r4, [pc, #160]	@ (8003dbc <UART_AdvFeatureConfig+0xac>)
 8003d1c:	684a      	ldr	r2, [r1, #4]
 8003d1e:	4022      	ands	r2, r4
 8003d20:	6b44      	ldr	r4, [r0, #52]	@ 0x34
 8003d22:	4322      	orrs	r2, r4
 8003d24:	604a      	str	r2, [r1, #4]
  if (HAL_IS_BIT_SET(huart->AdvancedInit.AdvFeatureInit, UART_ADVFEATURE_TXINVERT_INIT))
 8003d26:	07da      	lsls	r2, r3, #31
 8003d28:	d506      	bpl.n	8003d38 <UART_AdvFeatureConfig+0x28>
    MODIFY_REG(huart->Instance->CR2, USART_CR2_TXINV, huart->AdvancedInit.TxPinLevelInvert);
 8003d2a:	6801      	ldr	r1, [r0, #0]
 8003d2c:	4c24      	ldr	r4, [pc, #144]	@ (8003dc0 <UART_AdvFeatureConfig+0xb0>)
 8003d2e:	684a      	ldr	r2, [r1, #4]
 8003d30:	4022      	ands	r2, r4
 8003d32:	6a84      	ldr	r4, [r0, #40]	@ 0x28
 8003d34:	4322      	orrs	r2, r4
 8003d36:	604a      	str	r2, [r1, #4]
  if (HAL_IS_BIT_SET(huart->AdvancedInit.AdvFeatureInit, UART_ADVFEATURE_RXINVERT_INIT))
 8003d38:	079a      	lsls	r2, r3, #30
 8003d3a:	d506      	bpl.n	8003d4a <UART_AdvFeatureConfig+0x3a>
    MODIFY_REG(huart->Instance->CR2, USART_CR2_RXINV, huart->AdvancedInit.RxPinLevelInvert);
 8003d3c:	6801      	ldr	r1, [r0, #0]
 8003d3e:	4c21      	ldr	r4, [pc, #132]	@ (8003dc4 <UART_AdvFeatureConfig+0xb4>)
 8003d40:	684a      	ldr	r2, [r1, #4]
 8003d42:	4022      	ands	r2, r4
 8003d44:	6ac4      	ldr	r4, [r0, #44]	@ 0x2c
 8003d46:	4322      	orrs	r2, r4
 8003d48:	604a      	str	r2, [r1, #4]
  if (HAL_IS_BIT_SET(huart->AdvancedInit.AdvFeatureInit, UART_ADVFEATURE_DATAINVERT_INIT))
 8003d4a:	075a      	lsls	r2, r3, #29
 8003d4c:	d506      	bpl.n	8003d5c <UART_AdvFeatureConfig+0x4c>
    MODIFY_REG(huart->Instance->CR2, USART_CR2_DATAINV, huart->AdvancedInit.DataInvert);
 8003d4e:	6801      	ldr	r1, [r0, #0]
 8003d50:	4c1d      	ldr	r4, [pc, #116]	@ (8003dc8 <UART_AdvFeatureConfig+0xb8>)
 8003d52:	684a      	ldr	r2, [r1, #4]
 8003d54:	4022      	ands	r2, r4
 8003d56:	6b04      	ldr	r4, [r0, #48]	@ 0x30
 8003d58:	4322      	orrs	r2, r4
 8003d5a:	604a      	str	r2, [r1, #4]
  if (HAL_IS_BIT_SET(huart->AdvancedInit.AdvFeatureInit, UART_ADVFEATURE_RXOVERRUNDISABLE_INIT))
 8003d5c:	06da      	lsls	r2, r3, #27
 8003d5e:	d506      	bpl.n	8003d6e <UART_AdvFeatureConfig+0x5e>
    MODIFY_REG(huart->Instance->CR3, USART_CR3_OVRDIS, huart->AdvancedInit.OverrunDisable);
 8003d60:	6801      	ldr	r1, [r0, #0]
 8003d62:	4c1a      	ldr	r4, [pc, #104]	@ (8003dcc <UART_AdvFeatureConfig+0xbc>)
 8003d64:	688a      	ldr	r2, [r1, #8]
 8003d66:	4022      	ands	r2, r4
 8003d68:	6b84      	ldr	r4, [r0, #56]	@ 0x38
 8003d6a:	4322      	orrs	r2, r4
 8003d6c:	608a      	str	r2, [r1, #8]
  if (HAL_IS_BIT_SET(huart->AdvancedInit.AdvFeatureInit, UART_ADVFEATURE_DMADISABLEONERROR_INIT))
 8003d6e:	069a      	lsls	r2, r3, #26
 8003d70:	d506      	bpl.n	8003d80 <UART_AdvFeatureConfig+0x70>
    MODIFY_REG(huart->Instance->CR3, USART_CR3_DDRE, huart->AdvancedInit.DMADisableonRxError);
 8003d72:	6801      	ldr	r1, [r0, #0]
 8003d74:	4c16      	ldr	r4, [pc, #88]	@ (8003dd0 <UART_AdvFeatureConfig+0xc0>)
 8003d76:	688a      	ldr	r2, [r1, #8]
 8003d78:	4022      	ands	r2, r4
 8003d7a:	6bc4      	ldr	r4, [r0, #60]	@ 0x3c
 8003d7c:	4322      	orrs	r2, r4
 8003d7e:	608a      	str	r2, [r1, #8]
  if (HAL_IS_BIT_SET(huart->AdvancedInit.AdvFeatureInit, UART_ADVFEATURE_AUTOBAUDRATE_INIT))
 8003d80:	065a      	lsls	r2, r3, #25
 8003d82:	d510      	bpl.n	8003da6 <UART_AdvFeatureConfig+0x96>
    MODIFY_REG(huart->Instance->CR2, USART_CR2_ABREN, huart->AdvancedInit.AutoBaudRateEnable);
 8003d84:	6801      	ldr	r1, [r0, #0]
 8003d86:	4d13      	ldr	r5, [pc, #76]	@ (8003dd4 <UART_AdvFeatureConfig+0xc4>)
 8003d88:	684a      	ldr	r2, [r1, #4]
 8003d8a:	6c04      	ldr	r4, [r0, #64]	@ 0x40
 8003d8c:	402a      	ands	r2, r5
 8003d8e:	4322      	orrs	r2, r4
 8003d90:	604a      	str	r2, [r1, #4]
    if (huart->AdvancedInit.AutoBaudRateEnable == UART_ADVFEATURE_AUTOBAUDRATE_ENABLE)
 8003d92:	2280      	movs	r2, #128	@ 0x80
 8003d94:	0352      	lsls	r2, r2, #13
 8003d96:	4294      	cmp	r4, r2
 8003d98:	d105      	bne.n	8003da6 <UART_AdvFeatureConfig+0x96>
      MODIFY_REG(huart->Instance->CR2, USART_CR2_ABRMODE, huart->AdvancedInit.AutoBaudRateMode);
 8003d9a:	684a      	ldr	r2, [r1, #4]
 8003d9c:	4c0e      	ldr	r4, [pc, #56]	@ (8003dd8 <UART_AdvFeatureConfig+0xc8>)
 8003d9e:	4022      	ands	r2, r4
 8003da0:	6c44      	ldr	r4, [r0, #68]	@ 0x44
 8003da2:	4322      	orrs	r2, r4
 8003da4:	604a      	str	r2, [r1, #4]
  if (HAL_IS_BIT_SET(huart->AdvancedInit.AdvFeatureInit, UART_ADVFEATURE_MSBFIRST_INIT))
 8003da6:	061b      	lsls	r3, r3, #24
 8003da8:	d506      	bpl.n	8003db8 <UART_AdvFeatureConfig+0xa8>
    MODIFY_REG(huart->Instance->CR2, USART_CR2_MSBFIRST, huart->AdvancedInit.MSBFirst);
 8003daa:	6802      	ldr	r2, [r0, #0]
 8003dac:	490b      	ldr	r1, [pc, #44]	@ (8003ddc <UART_AdvFeatureConfig+0xcc>)
 8003dae:	6853      	ldr	r3, [r2, #4]
 8003db0:	400b      	ands	r3, r1
 8003db2:	6c81      	ldr	r1, [r0, #72]	@ 0x48
 8003db4:	430b      	orrs	r3, r1
 8003db6:	6053      	str	r3, [r2, #4]
}
 8003db8:	bd30      	pop	{r4, r5, pc}
 8003dba:	46c0      	nop			@ (mov r8, r8)
 8003dbc:	ffff7fff 	.word	0xffff7fff
 8003dc0:	fffdffff 	.word	0xfffdffff
 8003dc4:	fffeffff 	.word	0xfffeffff
 8003dc8:	fffbffff 	.word	0xfffbffff
 8003dcc:	ffffefff 	.word	0xffffefff
 8003dd0:	ffffdfff 	.word	0xffffdfff
 8003dd4:	ffefffff 	.word	0xffefffff
 8003dd8:	ff9fffff 	.word	0xff9fffff
 8003ddc:	fff7ffff 	.word	0xfff7ffff

08003de0 <UART_WaitOnFlagUntilTimeout>:
{
 8003de0:	b5f7      	push	{r0, r1, r2, r4, r5, r6, r7, lr}
 8003de2:	0004      	movs	r4, r0
 8003de4:	000d      	movs	r5, r1
 8003de6:	0017      	movs	r7, r2
 8003de8:	9300      	str	r3, [sp, #0]
  while ((__HAL_UART_GET_FLAG(huart, Flag) ? SET : RESET) == Status)
 8003dea:	6822      	ldr	r2, [r4, #0]
 8003dec:	69d3      	ldr	r3, [r2, #28]
 8003dee:	402b      	ands	r3, r5
 8003df0:	1b5b      	subs	r3, r3, r5
 8003df2:	4259      	negs	r1, r3
 8003df4:	414b      	adcs	r3, r1
 8003df6:	42bb      	cmp	r3, r7
 8003df8:	d001      	beq.n	8003dfe <UART_WaitOnFlagUntilTimeout+0x1e>
  return HAL_OK;
 8003dfa:	2000      	movs	r0, #0
 8003dfc:	e025      	b.n	8003e4a <UART_WaitOnFlagUntilTimeout+0x6a>
    if (Timeout != HAL_MAX_DELAY)
 8003dfe:	9b08      	ldr	r3, [sp, #32]
 8003e00:	3301      	adds	r3, #1
 8003e02:	d0f3      	beq.n	8003dec <UART_WaitOnFlagUntilTimeout+0xc>
      if (((HAL_GetTick() - Tickstart) > Timeout) || (Timeout == 0U))
 8003e04:	f7fe ff70 	bl	8002ce8 <HAL_GetTick>
 8003e08:	9b00      	ldr	r3, [sp, #0]
 8003e0a:	1ac0      	subs	r0, r0, r3
 8003e0c:	9b08      	ldr	r3, [sp, #32]
 8003e0e:	4298      	cmp	r0, r3
 8003e10:	d82c      	bhi.n	8003e6c <UART_WaitOnFlagUntilTimeout+0x8c>
 8003e12:	2b00      	cmp	r3, #0
 8003e14:	d02a      	beq.n	8003e6c <UART_WaitOnFlagUntilTimeout+0x8c>
      if ((READ_BIT(huart->Instance->CR1, USART_CR1_RE) != 0U) && (Flag != UART_FLAG_TXE) && (Flag != UART_FLAG_TC))
 8003e16:	6823      	ldr	r3, [r4, #0]
 8003e18:	681a      	ldr	r2, [r3, #0]
 8003e1a:	0752      	lsls	r2, r2, #29
 8003e1c:	d5e5      	bpl.n	8003dea <UART_WaitOnFlagUntilTimeout+0xa>
 8003e1e:	002a      	movs	r2, r5
 8003e20:	2140      	movs	r1, #64	@ 0x40
 8003e22:	3a40      	subs	r2, #64	@ 0x40
 8003e24:	438a      	bics	r2, r1
 8003e26:	d0e0      	beq.n	8003dea <UART_WaitOnFlagUntilTimeout+0xa>
        if (__HAL_UART_GET_FLAG(huart, UART_FLAG_ORE) == SET)
 8003e28:	69da      	ldr	r2, [r3, #28]
 8003e2a:	2608      	movs	r6, #8
 8003e2c:	0011      	movs	r1, r2
 8003e2e:	4031      	ands	r1, r6
 8003e30:	9101      	str	r1, [sp, #4]
 8003e32:	4232      	tst	r2, r6
 8003e34:	d00a      	beq.n	8003e4c <UART_WaitOnFlagUntilTimeout+0x6c>
          UART_EndRxTransfer(huart);
 8003e36:	0020      	movs	r0, r4
          __HAL_UART_CLEAR_FLAG(huart, UART_CLEAR_OREF);
 8003e38:	621e      	str	r6, [r3, #32]
          UART_EndRxTransfer(huart);
 8003e3a:	f7ff fea3 	bl	8003b84 <UART_EndRxTransfer>
          huart->ErrorCode = HAL_UART_ERROR_ORE;
 8003e3e:	19a3      	adds	r3, r4, r6
 8003e40:	67de      	str	r6, [r3, #124]	@ 0x7c
          __HAL_UNLOCK(huart);
 8003e42:	2300      	movs	r3, #0
          return HAL_ERROR;
 8003e44:	2001      	movs	r0, #1
          __HAL_UNLOCK(huart);
 8003e46:	3478      	adds	r4, #120	@ 0x78
 8003e48:	7023      	strb	r3, [r4, #0]
}
 8003e4a:	bdfe      	pop	{r1, r2, r3, r4, r5, r6, r7, pc}
        if (__HAL_UART_GET_FLAG(huart, UART_FLAG_RTOF) == SET)
 8003e4c:	2280      	movs	r2, #128	@ 0x80
 8003e4e:	69d9      	ldr	r1, [r3, #28]
 8003e50:	0112      	lsls	r2, r2, #4
 8003e52:	4211      	tst	r1, r2
 8003e54:	d0c9      	beq.n	8003dea <UART_WaitOnFlagUntilTimeout+0xa>
          __HAL_UART_CLEAR_FLAG(huart, UART_CLEAR_RTOF);
 8003e56:	621a      	str	r2, [r3, #32]
          UART_EndRxTransfer(huart);
 8003e58:	0020      	movs	r0, r4
 8003e5a:	f7ff fe93 	bl	8003b84 <UART_EndRxTransfer>
          huart->ErrorCode = HAL_UART_ERROR_RTO;
 8003e5e:	0023      	movs	r3, r4
 8003e60:	2220      	movs	r2, #32
 8003e62:	3308      	adds	r3, #8
 8003e64:	67da      	str	r2, [r3, #124]	@ 0x7c
          __HAL_UNLOCK(huart);
 8003e66:	9b01      	ldr	r3, [sp, #4]
 8003e68:	3478      	adds	r4, #120	@ 0x78
 8003e6a:	7023      	strb	r3, [r4, #0]
        return HAL_TIMEOUT;
 8003e6c:	2003      	movs	r0, #3
 8003e6e:	e7ec      	b.n	8003e4a <UART_WaitOnFlagUntilTimeout+0x6a>

08003e70 <HAL_UART_Transmit>:
{
 8003e70:	b5f0      	push	{r4, r5, r6, r7, lr}
 8003e72:	b087      	sub	sp, #28
 8003e74:	9305      	str	r3, [sp, #20]
  if (huart->gState == HAL_UART_STATE_READY)
 8003e76:	6fc3      	ldr	r3, [r0, #124]	@ 0x7c
{
 8003e78:	0004      	movs	r4, r0
 8003e7a:	000d      	movs	r5, r1
 8003e7c:	0017      	movs	r7, r2
    return HAL_BUSY;
 8003e7e:	2002      	movs	r0, #2
  if (huart->gState == HAL_UART_STATE_READY)
 8003e80:	2b20      	cmp	r3, #32
 8003e82:	d138      	bne.n	8003ef6 <HAL_UART_Transmit+0x86>
      return  HAL_ERROR;
 8003e84:	3801      	subs	r0, #1
    if ((pData == NULL) || (Size == 0U))
 8003e86:	2900      	cmp	r1, #0
 8003e88:	d035      	beq.n	8003ef6 <HAL_UART_Transmit+0x86>
 8003e8a:	2a00      	cmp	r2, #0
 8003e8c:	d033      	beq.n	8003ef6 <HAL_UART_Transmit+0x86>
    if ((huart->Init.WordLength == UART_WORDLENGTH_9B) && (huart->Init.Parity == UART_PARITY_NONE))
 8003e8e:	2380      	movs	r3, #128	@ 0x80
 8003e90:	68a2      	ldr	r2, [r4, #8]
 8003e92:	015b      	lsls	r3, r3, #5
 8003e94:	429a      	cmp	r2, r3
 8003e96:	d104      	bne.n	8003ea2 <HAL_UART_Transmit+0x32>
 8003e98:	6923      	ldr	r3, [r4, #16]
 8003e9a:	2b00      	cmp	r3, #0
 8003e9c:	d101      	bne.n	8003ea2 <HAL_UART_Transmit+0x32>
      if ((((uint32_t)pData) & 1U) != 0U)
 8003e9e:	4201      	tst	r1, r0
 8003ea0:	d129      	bne.n	8003ef6 <HAL_UART_Transmit+0x86>
    huart->ErrorCode = HAL_UART_ERROR_NONE;
 8003ea2:	0023      	movs	r3, r4
 8003ea4:	2600      	movs	r6, #0
 8003ea6:	3308      	adds	r3, #8
 8003ea8:	67de      	str	r6, [r3, #124]	@ 0x7c
    huart->gState = HAL_UART_STATE_BUSY_TX;
 8003eaa:	2321      	movs	r3, #33	@ 0x21
 8003eac:	67e3      	str	r3, [r4, #124]	@ 0x7c
    tickstart = HAL_GetTick();
 8003eae:	f7fe ff1b 	bl	8002ce8 <HAL_GetTick>
    huart->TxXferSize  = Size;
 8003eb2:	0023      	movs	r3, r4
 8003eb4:	3350      	adds	r3, #80	@ 0x50
 8003eb6:	801f      	strh	r7, [r3, #0]
    huart->TxXferCount = Size;
 8003eb8:	3302      	adds	r3, #2
 8003eba:	9303      	str	r3, [sp, #12]
 8003ebc:	801f      	strh	r7, [r3, #0]
    if ((huart->Init.WordLength == UART_WORDLENGTH_9B) && (huart->Init.Parity == UART_PARITY_NONE))
 8003ebe:	2380      	movs	r3, #128	@ 0x80
 8003ec0:	68a2      	ldr	r2, [r4, #8]
    tickstart = HAL_GetTick();
 8003ec2:	9004      	str	r0, [sp, #16]
    if ((huart->Init.WordLength == UART_WORDLENGTH_9B) && (huart->Init.Parity == UART_PARITY_NONE))
 8003ec4:	015b      	lsls	r3, r3, #5
 8003ec6:	429a      	cmp	r2, r3
 8003ec8:	d104      	bne.n	8003ed4 <HAL_UART_Transmit+0x64>
 8003eca:	6923      	ldr	r3, [r4, #16]
 8003ecc:	42b3      	cmp	r3, r6
 8003ece:	d101      	bne.n	8003ed4 <HAL_UART_Transmit+0x64>
 8003ed0:	002e      	movs	r6, r5
      pdata8bits  = NULL;
 8003ed2:	001d      	movs	r5, r3
    while (huart->TxXferCount > 0U)
 8003ed4:	0023      	movs	r3, r4
 8003ed6:	3352      	adds	r3, #82	@ 0x52
 8003ed8:	881b      	ldrh	r3, [r3, #0]
 8003eda:	b29a      	uxth	r2, r3
 8003edc:	2b00      	cmp	r3, #0
 8003ede:	d10c      	bne.n	8003efa <HAL_UART_Transmit+0x8a>
    if (UART_WaitOnFlagUntilTimeout(huart, UART_FLAG_TC, RESET, tickstart, Timeout) != HAL_OK)
 8003ee0:	9b05      	ldr	r3, [sp, #20]
 8003ee2:	2140      	movs	r1, #64	@ 0x40
 8003ee4:	9300      	str	r3, [sp, #0]
 8003ee6:	0020      	movs	r0, r4
 8003ee8:	9b04      	ldr	r3, [sp, #16]
 8003eea:	f7ff ff79 	bl	8003de0 <UART_WaitOnFlagUntilTimeout>
 8003eee:	2320      	movs	r3, #32
      huart->gState = HAL_UART_STATE_READY;
 8003ef0:	67e3      	str	r3, [r4, #124]	@ 0x7c
    if (UART_WaitOnFlagUntilTimeout(huart, UART_FLAG_TC, RESET, tickstart, Timeout) != HAL_OK)
 8003ef2:	2800      	cmp	r0, #0
 8003ef4:	d10d      	bne.n	8003f12 <HAL_UART_Transmit+0xa2>
}
 8003ef6:	b007      	add	sp, #28
 8003ef8:	bdf0      	pop	{r4, r5, r6, r7, pc}
      if (UART_WaitOnFlagUntilTimeout(huart, UART_FLAG_TXE, RESET, tickstart, Timeout) != HAL_OK)
 8003efa:	9b05      	ldr	r3, [sp, #20]
 8003efc:	2200      	movs	r2, #0
 8003efe:	9300      	str	r3, [sp, #0]
 8003f00:	2180      	movs	r1, #128	@ 0x80
 8003f02:	0020      	movs	r0, r4
 8003f04:	9b04      	ldr	r3, [sp, #16]
 8003f06:	f7ff ff6b 	bl	8003de0 <UART_WaitOnFlagUntilTimeout>
 8003f0a:	2800      	cmp	r0, #0
 8003f0c:	d003      	beq.n	8003f16 <HAL_UART_Transmit+0xa6>
        huart->gState = HAL_UART_STATE_READY;
 8003f0e:	2320      	movs	r3, #32
 8003f10:	67e3      	str	r3, [r4, #124]	@ 0x7c
        return HAL_TIMEOUT;
 8003f12:	2003      	movs	r0, #3
 8003f14:	e7ef      	b.n	8003ef6 <HAL_UART_Transmit+0x86>
        huart->Instance->TDR = (uint16_t)(*pdata16bits & 0x01FFU);
 8003f16:	6822      	ldr	r2, [r4, #0]
      if (pdata8bits == NULL)
 8003f18:	2d00      	cmp	r5, #0
 8003f1a:	d10b      	bne.n	8003f34 <HAL_UART_Transmit+0xc4>
        huart->Instance->TDR = (uint16_t)(*pdata16bits & 0x01FFU);
 8003f1c:	8833      	ldrh	r3, [r6, #0]
        pdata16bits++;
 8003f1e:	3602      	adds	r6, #2
        huart->Instance->TDR = (uint16_t)(*pdata16bits & 0x01FFU);
 8003f20:	05db      	lsls	r3, r3, #23
 8003f22:	0ddb      	lsrs	r3, r3, #23
 8003f24:	8513      	strh	r3, [r2, #40]	@ 0x28
      huart->TxXferCount--;
 8003f26:	9b03      	ldr	r3, [sp, #12]
 8003f28:	9a03      	ldr	r2, [sp, #12]
 8003f2a:	881b      	ldrh	r3, [r3, #0]
 8003f2c:	3b01      	subs	r3, #1
 8003f2e:	b29b      	uxth	r3, r3
 8003f30:	8013      	strh	r3, [r2, #0]
 8003f32:	e7cf      	b.n	8003ed4 <HAL_UART_Transmit+0x64>
        huart->Instance->TDR = (uint8_t)(*pdata8bits & 0xFFU);
 8003f34:	782b      	ldrb	r3, [r5, #0]
        pdata8bits++;
 8003f36:	3501      	adds	r5, #1
        huart->Instance->TDR = (uint8_t)(*pdata8bits & 0xFFU);
 8003f38:	8513      	strh	r3, [r2, #40]	@ 0x28
        pdata8bits++;
 8003f3a:	e7f4      	b.n	8003f26 <HAL_UART_Transmit+0xb6>

08003f3c <UART_CheckIdleState>:
  huart->ErrorCode = HAL_UART_ERROR_NONE;
 8003f3c:	0003      	movs	r3, r0
{
 8003f3e:	b573      	push	{r0, r1, r4, r5, r6, lr}
  huart->ErrorCode = HAL_UART_ERROR_NONE;
 8003f40:	2500      	movs	r5, #0
{
 8003f42:	0004      	movs	r4, r0
  huart->ErrorCode = HAL_UART_ERROR_NONE;
 8003f44:	3308      	adds	r3, #8
 8003f46:	67dd      	str	r5, [r3, #124]	@ 0x7c
  tickstart = HAL_GetTick();
 8003f48:	f7fe fece 	bl	8002ce8 <HAL_GetTick>
  if ((huart->Instance->CR1 & USART_CR1_TE) == USART_CR1_TE)
 8003f4c:	6823      	ldr	r3, [r4, #0]
  tickstart = HAL_GetTick();
 8003f4e:	0006      	movs	r6, r0
  if ((huart->Instance->CR1 & USART_CR1_TE) == USART_CR1_TE)
 8003f50:	681b      	ldr	r3, [r3, #0]
 8003f52:	071b      	lsls	r3, r3, #28
 8003f54:	d51d      	bpl.n	8003f92 <UART_CheckIdleState+0x56>
    if (UART_WaitOnFlagUntilTimeout(huart, USART_ISR_TEACK, RESET, tickstart, HAL_UART_TIMEOUT_VALUE) != HAL_OK)
 8003f56:	2180      	movs	r1, #128	@ 0x80
 8003f58:	4b26      	ldr	r3, [pc, #152]	@ (8003ff4 <UART_CheckIdleState+0xb8>)
 8003f5a:	002a      	movs	r2, r5
 8003f5c:	9300      	str	r3, [sp, #0]
 8003f5e:	0389      	lsls	r1, r1, #14
 8003f60:	0003      	movs	r3, r0
 8003f62:	0020      	movs	r0, r4
 8003f64:	f7ff ff3c 	bl	8003de0 <UART_WaitOnFlagUntilTimeout>
 8003f68:	42a8      	cmp	r0, r5
 8003f6a:	d012      	beq.n	8003f92 <UART_CheckIdleState+0x56>
  __ASM volatile ("MRS %0, primask" : "=r" (result) :: "memory");
 8003f6c:	f3ef 8110 	mrs	r1, PRIMASK
  __ASM volatile ("MSR primask, %0" : : "r" (priMask) : "memory");
 8003f70:	2301      	movs	r3, #1
 8003f72:	f383 8810 	msr	PRIMASK, r3
      ATOMIC_CLEAR_BIT(huart->Instance->CR1, (USART_CR1_TXEIE));
 8003f76:	2080      	movs	r0, #128	@ 0x80
 8003f78:	6822      	ldr	r2, [r4, #0]
 8003f7a:	6813      	ldr	r3, [r2, #0]
 8003f7c:	4383      	bics	r3, r0
 8003f7e:	6013      	str	r3, [r2, #0]
 8003f80:	f381 8810 	msr	PRIMASK, r1
      huart->gState = HAL_UART_STATE_READY;
 8003f84:	2320      	movs	r3, #32
 8003f86:	67e3      	str	r3, [r4, #124]	@ 0x7c
      return HAL_TIMEOUT;
 8003f88:	2003      	movs	r0, #3
      __HAL_UNLOCK(huart);
 8003f8a:	2300      	movs	r3, #0
 8003f8c:	3478      	adds	r4, #120	@ 0x78
 8003f8e:	7023      	strb	r3, [r4, #0]
}
 8003f90:	bd76      	pop	{r1, r2, r4, r5, r6, pc}
  if ((huart->Instance->CR1 & USART_CR1_RE) == USART_CR1_RE)
 8003f92:	0025      	movs	r5, r4
 8003f94:	cd08      	ldmia	r5!, {r3}
 8003f96:	681b      	ldr	r3, [r3, #0]
 8003f98:	075b      	lsls	r3, r3, #29
 8003f9a:	d523      	bpl.n	8003fe4 <UART_CheckIdleState+0xa8>
    if (UART_WaitOnFlagUntilTimeout(huart, USART_ISR_REACK, RESET, tickstart, HAL_UART_TIMEOUT_VALUE) != HAL_OK)
 8003f9c:	2180      	movs	r1, #128	@ 0x80
 8003f9e:	4b15      	ldr	r3, [pc, #84]	@ (8003ff4 <UART_CheckIdleState+0xb8>)
 8003fa0:	2200      	movs	r2, #0
 8003fa2:	9300      	str	r3, [sp, #0]
 8003fa4:	0020      	movs	r0, r4
 8003fa6:	0033      	movs	r3, r6
 8003fa8:	03c9      	lsls	r1, r1, #15
 8003faa:	f7ff ff19 	bl	8003de0 <UART_WaitOnFlagUntilTimeout>
 8003fae:	2800      	cmp	r0, #0
 8003fb0:	d018      	beq.n	8003fe4 <UART_CheckIdleState+0xa8>
  __ASM volatile ("MRS %0, primask" : "=r" (result) :: "memory");
 8003fb2:	f3ef 8010 	mrs	r0, PRIMASK
  __ASM volatile ("MSR primask, %0" : : "r" (priMask) : "memory");
 8003fb6:	2201      	movs	r2, #1
 8003fb8:	f382 8810 	msr	PRIMASK, r2
      ATOMIC_CLEAR_BIT(huart->Instance->CR1, (USART_CR1_RXNEIE | USART_CR1_PEIE));
 8003fbc:	6821      	ldr	r1, [r4, #0]
 8003fbe:	4e0e      	ldr	r6, [pc, #56]	@ (8003ff8 <UART_CheckIdleState+0xbc>)
 8003fc0:	680b      	ldr	r3, [r1, #0]
 8003fc2:	4033      	ands	r3, r6
 8003fc4:	600b      	str	r3, [r1, #0]
 8003fc6:	f380 8810 	msr	PRIMASK, r0
  __ASM volatile ("MRS %0, primask" : "=r" (result) :: "memory");
 8003fca:	f3ef 8010 	mrs	r0, PRIMASK
  __ASM volatile ("MSR primask, %0" : : "r" (priMask) : "memory");
 8003fce:	f382 8810 	msr	PRIMASK, r2
      ATOMIC_CLEAR_BIT(huart->Instance->CR3, USART_CR3_EIE);
 8003fd2:	6821      	ldr	r1, [r4, #0]
 8003fd4:	688b      	ldr	r3, [r1, #8]
 8003fd6:	4393      	bics	r3, r2
 8003fd8:	608b      	str	r3, [r1, #8]
 8003fda:	f380 8810 	msr	PRIMASK, r0
      huart->RxState = HAL_UART_STATE_READY;
 8003fde:	2320      	movs	r3, #32
 8003fe0:	67eb      	str	r3, [r5, #124]	@ 0x7c
      return HAL_TIMEOUT;
 8003fe2:	e7d1      	b.n	8003f88 <UART_CheckIdleState+0x4c>
  huart->gState = HAL_UART_STATE_READY;
 8003fe4:	2320      	movs	r3, #32
  huart->ReceptionType = HAL_UART_RECEPTION_STANDARD;
 8003fe6:	2000      	movs	r0, #0
  huart->gState = HAL_UART_STATE_READY;
 8003fe8:	67e3      	str	r3, [r4, #124]	@ 0x7c
  huart->RxState = HAL_UART_STATE_READY;
 8003fea:	67eb      	str	r3, [r5, #124]	@ 0x7c
  huart->ReceptionType = HAL_UART_RECEPTION_STANDARD;
 8003fec:	6620      	str	r0, [r4, #96]	@ 0x60
  huart->RxEventType = HAL_UART_RXEVENT_TC;
 8003fee:	6660      	str	r0, [r4, #100]	@ 0x64
  return HAL_OK;
 8003ff0:	e7cb      	b.n	8003f8a <UART_CheckIdleState+0x4e>
 8003ff2:	46c0      	nop			@ (mov r8, r8)
 8003ff4:	01ffffff 	.word	0x01ffffff
 8003ff8:	fffffedf 	.word	0xfffffedf

08003ffc <HAL_UART_Init>:
{
 8003ffc:	b510      	push	{r4, lr}
 8003ffe:	1e04      	subs	r4, r0, #0
  if (huart == NULL)
 8004000:	d101      	bne.n	8004006 <HAL_UART_Init+0xa>
    return HAL_ERROR;
 8004002:	2001      	movs	r0, #1
}
 8004004:	bd10      	pop	{r4, pc}
  if (huart->gState == HAL_UART_STATE_RESET)
 8004006:	6fc3      	ldr	r3, [r0, #124]	@ 0x7c
 8004008:	2b00      	cmp	r3, #0
 800400a:	d104      	bne.n	8004016 <HAL_UART_Init+0x1a>
    huart->Lock = HAL_UNLOCKED;
 800400c:	0002      	movs	r2, r0
 800400e:	3278      	adds	r2, #120	@ 0x78
 8004010:	7013      	strb	r3, [r2, #0]
    HAL_UART_MspInit(huart);
 8004012:	f7fe fd4f 	bl	8002ab4 <HAL_UART_MspInit>
  huart->gState = HAL_UART_STATE_BUSY;
 8004016:	2324      	movs	r3, #36	@ 0x24
  __HAL_UART_DISABLE(huart);
 8004018:	2101      	movs	r1, #1
 800401a:	6822      	ldr	r2, [r4, #0]
  huart->gState = HAL_UART_STATE_BUSY;
 800401c:	67e3      	str	r3, [r4, #124]	@ 0x7c
  __HAL_UART_DISABLE(huart);
 800401e:	6813      	ldr	r3, [r2, #0]
 8004020:	438b      	bics	r3, r1
 8004022:	6013      	str	r3, [r2, #0]
  if (huart->AdvancedInit.AdvFeatureInit != UART_ADVFEATURE_NO_INIT)
 8004024:	6a63      	ldr	r3, [r4, #36]	@ 0x24
 8004026:	2b00      	cmp	r3, #0
 8004028:	d002      	beq.n	8004030 <HAL_UART_Init+0x34>
    UART_AdvFeatureConfig(huart);
 800402a:	0020      	movs	r0, r4
 800402c:	f7ff fe70 	bl	8003d10 <UART_AdvFeatureConfig>
  if (UART_SetConfig(huart) == HAL_ERROR)
 8004030:	0020      	movs	r0, r4
 8004032:	f7ff fdd5 	bl	8003be0 <UART_SetConfig>
 8004036:	2801      	cmp	r0, #1
 8004038:	d0e3      	beq.n	8004002 <HAL_UART_Init+0x6>
  CLEAR_BIT(huart->Instance->CR2, (USART_CR2_LINEN | USART_CR2_CLKEN));
 800403a:	6823      	ldr	r3, [r4, #0]
 800403c:	4907      	ldr	r1, [pc, #28]	@ (800405c <HAL_UART_Init+0x60>)
 800403e:	685a      	ldr	r2, [r3, #4]
  return (UART_CheckIdleState(huart));
 8004040:	0020      	movs	r0, r4
  CLEAR_BIT(huart->Instance->CR2, (USART_CR2_LINEN | USART_CR2_CLKEN));
 8004042:	400a      	ands	r2, r1
  CLEAR_BIT(huart->Instance->CR3, (USART_CR3_SCEN | USART_CR3_HDSEL | USART_CR3_IREN));
 8004044:	212a      	movs	r1, #42	@ 0x2a
  CLEAR_BIT(huart->Instance->CR2, (USART_CR2_LINEN | USART_CR2_CLKEN));
 8004046:	605a      	str	r2, [r3, #4]
  CLEAR_BIT(huart->Instance->CR3, (USART_CR3_SCEN | USART_CR3_HDSEL | USART_CR3_IREN));
 8004048:	689a      	ldr	r2, [r3, #8]
 800404a:	438a      	bics	r2, r1
 800404c:	609a      	str	r2, [r3, #8]
  __HAL_UART_ENABLE(huart);
 800404e:	2201      	movs	r2, #1
 8004050:	6819      	ldr	r1, [r3, #0]
 8004052:	430a      	orrs	r2, r1
 8004054:	601a      	str	r2, [r3, #0]
  return (UART_CheckIdleState(huart));
 8004056:	f7ff ff71 	bl	8003f3c <UART_CheckIdleState>
 800405a:	e7d3      	b.n	8004004 <HAL_UART_Init+0x8>
 800405c:	ffffb7ff 	.word	0xffffb7ff

08004060 <__cvt>:
 8004060:	b5f0      	push	{r4, r5, r6, r7, lr}
 8004062:	001f      	movs	r7, r3
 8004064:	2300      	movs	r3, #0
 8004066:	0016      	movs	r6, r2
 8004068:	b08b      	sub	sp, #44	@ 0x2c
 800406a:	429f      	cmp	r7, r3
 800406c:	da04      	bge.n	8004078 <__cvt+0x18>
 800406e:	2180      	movs	r1, #128	@ 0x80
 8004070:	0609      	lsls	r1, r1, #24
 8004072:	187b      	adds	r3, r7, r1
 8004074:	001f      	movs	r7, r3
 8004076:	232d      	movs	r3, #45	@ 0x2d
 8004078:	9a12      	ldr	r2, [sp, #72]	@ 0x48
 800407a:	9d14      	ldr	r5, [sp, #80]	@ 0x50
 800407c:	7013      	strb	r3, [r2, #0]
 800407e:	2320      	movs	r3, #32
 8004080:	2203      	movs	r2, #3
 8004082:	439d      	bics	r5, r3
 8004084:	2d46      	cmp	r5, #70	@ 0x46
 8004086:	d007      	beq.n	8004098 <__cvt+0x38>
 8004088:	002b      	movs	r3, r5
 800408a:	3b45      	subs	r3, #69	@ 0x45
 800408c:	4259      	negs	r1, r3
 800408e:	414b      	adcs	r3, r1
 8004090:	9910      	ldr	r1, [sp, #64]	@ 0x40
 8004092:	3a01      	subs	r2, #1
 8004094:	18cb      	adds	r3, r1, r3
 8004096:	9310      	str	r3, [sp, #64]	@ 0x40
 8004098:	ab09      	add	r3, sp, #36	@ 0x24
 800409a:	9304      	str	r3, [sp, #16]
 800409c:	ab08      	add	r3, sp, #32
 800409e:	9303      	str	r3, [sp, #12]
 80040a0:	9b13      	ldr	r3, [sp, #76]	@ 0x4c
 80040a2:	9200      	str	r2, [sp, #0]
 80040a4:	9302      	str	r3, [sp, #8]
 80040a6:	9b10      	ldr	r3, [sp, #64]	@ 0x40
 80040a8:	0032      	movs	r2, r6
 80040aa:	9301      	str	r3, [sp, #4]
 80040ac:	003b      	movs	r3, r7
 80040ae:	f000 fdef 	bl	8004c90 <_dtoa_r>
 80040b2:	0004      	movs	r4, r0
 80040b4:	2d47      	cmp	r5, #71	@ 0x47
 80040b6:	d11b      	bne.n	80040f0 <__cvt+0x90>
 80040b8:	9b11      	ldr	r3, [sp, #68]	@ 0x44
 80040ba:	07db      	lsls	r3, r3, #31
 80040bc:	d511      	bpl.n	80040e2 <__cvt+0x82>
 80040be:	9b10      	ldr	r3, [sp, #64]	@ 0x40
 80040c0:	18c3      	adds	r3, r0, r3
 80040c2:	9307      	str	r3, [sp, #28]
 80040c4:	2200      	movs	r2, #0
 80040c6:	2300      	movs	r3, #0
 80040c8:	0030      	movs	r0, r6
 80040ca:	0039      	movs	r1, r7
 80040cc:	f7fc f9be 	bl	800044c <__aeabi_dcmpeq>
 80040d0:	2800      	cmp	r0, #0
 80040d2:	d001      	beq.n	80040d8 <__cvt+0x78>
 80040d4:	9b07      	ldr	r3, [sp, #28]
 80040d6:	9309      	str	r3, [sp, #36]	@ 0x24
 80040d8:	2230      	movs	r2, #48	@ 0x30
 80040da:	9b09      	ldr	r3, [sp, #36]	@ 0x24
 80040dc:	9907      	ldr	r1, [sp, #28]
 80040de:	428b      	cmp	r3, r1
 80040e0:	d320      	bcc.n	8004124 <__cvt+0xc4>
 80040e2:	0020      	movs	r0, r4
 80040e4:	9b09      	ldr	r3, [sp, #36]	@ 0x24
 80040e6:	9a15      	ldr	r2, [sp, #84]	@ 0x54
 80040e8:	1b1b      	subs	r3, r3, r4
 80040ea:	6013      	str	r3, [r2, #0]
 80040ec:	b00b      	add	sp, #44	@ 0x2c
 80040ee:	bdf0      	pop	{r4, r5, r6, r7, pc}
 80040f0:	9b10      	ldr	r3, [sp, #64]	@ 0x40
 80040f2:	18c3      	adds	r3, r0, r3
 80040f4:	9307      	str	r3, [sp, #28]
 80040f6:	2d46      	cmp	r5, #70	@ 0x46
 80040f8:	d1e4      	bne.n	80040c4 <__cvt+0x64>
 80040fa:	7803      	ldrb	r3, [r0, #0]
 80040fc:	2b30      	cmp	r3, #48	@ 0x30
 80040fe:	d10c      	bne.n	800411a <__cvt+0xba>
 8004100:	2200      	movs	r2, #0
 8004102:	2300      	movs	r3, #0
 8004104:	0030      	movs	r0, r6
 8004106:	0039      	movs	r1, r7
 8004108:	f7fc f9a0 	bl	800044c <__aeabi_dcmpeq>
 800410c:	2800      	cmp	r0, #0
 800410e:	d104      	bne.n	800411a <__cvt+0xba>
 8004110:	2301      	movs	r3, #1
 8004112:	9a10      	ldr	r2, [sp, #64]	@ 0x40
 8004114:	1a9b      	subs	r3, r3, r2
 8004116:	9a13      	ldr	r2, [sp, #76]	@ 0x4c
 8004118:	6013      	str	r3, [r2, #0]
 800411a:	9b13      	ldr	r3, [sp, #76]	@ 0x4c
 800411c:	9a07      	ldr	r2, [sp, #28]
 800411e:	681b      	ldr	r3, [r3, #0]
 8004120:	18d3      	adds	r3, r2, r3
 8004122:	e7ce      	b.n	80040c2 <__cvt+0x62>
 8004124:	1c59      	adds	r1, r3, #1
 8004126:	9109      	str	r1, [sp, #36]	@ 0x24
 8004128:	701a      	strb	r2, [r3, #0]
 800412a:	e7d6      	b.n	80040da <__cvt+0x7a>

0800412c <__exponent>:
 800412c:	b5f0      	push	{r4, r5, r6, r7, lr}
 800412e:	232b      	movs	r3, #43	@ 0x2b
 8004130:	0005      	movs	r5, r0
 8004132:	000c      	movs	r4, r1
 8004134:	b085      	sub	sp, #20
 8004136:	7002      	strb	r2, [r0, #0]
 8004138:	2900      	cmp	r1, #0
 800413a:	da01      	bge.n	8004140 <__exponent+0x14>
 800413c:	424c      	negs	r4, r1
 800413e:	3302      	adds	r3, #2
 8004140:	706b      	strb	r3, [r5, #1]
 8004142:	2c09      	cmp	r4, #9
 8004144:	dd2c      	ble.n	80041a0 <__exponent+0x74>
 8004146:	ab02      	add	r3, sp, #8
 8004148:	1dde      	adds	r6, r3, #7
 800414a:	0020      	movs	r0, r4
 800414c:	210a      	movs	r1, #10
 800414e:	f7fc f967 	bl	8000420 <__aeabi_idivmod>
 8004152:	0037      	movs	r7, r6
 8004154:	3130      	adds	r1, #48	@ 0x30
 8004156:	3e01      	subs	r6, #1
 8004158:	0020      	movs	r0, r4
 800415a:	7031      	strb	r1, [r6, #0]
 800415c:	210a      	movs	r1, #10
 800415e:	9401      	str	r4, [sp, #4]
 8004160:	f7fc f878 	bl	8000254 <__divsi3>
 8004164:	9b01      	ldr	r3, [sp, #4]
 8004166:	0004      	movs	r4, r0
 8004168:	2b63      	cmp	r3, #99	@ 0x63
 800416a:	dcee      	bgt.n	800414a <__exponent+0x1e>
 800416c:	1eba      	subs	r2, r7, #2
 800416e:	1ca8      	adds	r0, r5, #2
 8004170:	0001      	movs	r1, r0
 8004172:	0013      	movs	r3, r2
 8004174:	3430      	adds	r4, #48	@ 0x30
 8004176:	7014      	strb	r4, [r2, #0]
 8004178:	ac02      	add	r4, sp, #8
 800417a:	3407      	adds	r4, #7
 800417c:	429c      	cmp	r4, r3
 800417e:	d80a      	bhi.n	8004196 <__exponent+0x6a>
 8004180:	2300      	movs	r3, #0
 8004182:	42a2      	cmp	r2, r4
 8004184:	d803      	bhi.n	800418e <__exponent+0x62>
 8004186:	3309      	adds	r3, #9
 8004188:	aa02      	add	r2, sp, #8
 800418a:	189b      	adds	r3, r3, r2
 800418c:	1bdb      	subs	r3, r3, r7
 800418e:	18c0      	adds	r0, r0, r3
 8004190:	1b40      	subs	r0, r0, r5
 8004192:	b005      	add	sp, #20
 8004194:	bdf0      	pop	{r4, r5, r6, r7, pc}
 8004196:	781c      	ldrb	r4, [r3, #0]
 8004198:	3301      	adds	r3, #1
 800419a:	700c      	strb	r4, [r1, #0]
 800419c:	3101      	adds	r1, #1
 800419e:	e7eb      	b.n	8004178 <__exponent+0x4c>
 80041a0:	2330      	movs	r3, #48	@ 0x30
 80041a2:	18e4      	adds	r4, r4, r3
 80041a4:	70ab      	strb	r3, [r5, #2]
 80041a6:	1d28      	adds	r0, r5, #4
 80041a8:	70ec      	strb	r4, [r5, #3]
 80041aa:	e7f1      	b.n	8004190 <__exponent+0x64>

080041ac <_printf_float>:
 80041ac:	b5f0      	push	{r4, r5, r6, r7, lr}
 80041ae:	b097      	sub	sp, #92	@ 0x5c
 80041b0:	000d      	movs	r5, r1
 80041b2:	920a      	str	r2, [sp, #40]	@ 0x28
 80041b4:	9c1c      	ldr	r4, [sp, #112]	@ 0x70
 80041b6:	930b      	str	r3, [sp, #44]	@ 0x2c
 80041b8:	9009      	str	r0, [sp, #36]	@ 0x24
 80041ba:	f000 fc9f 	bl	8004afc <_localeconv_r>
 80041be:	6803      	ldr	r3, [r0, #0]
 80041c0:	0018      	movs	r0, r3
 80041c2:	930d      	str	r3, [sp, #52]	@ 0x34
 80041c4:	f7fb ffa0 	bl	8000108 <strlen>
 80041c8:	2300      	movs	r3, #0
 80041ca:	900f      	str	r0, [sp, #60]	@ 0x3c
 80041cc:	9314      	str	r3, [sp, #80]	@ 0x50
 80041ce:	7e2b      	ldrb	r3, [r5, #24]
 80041d0:	2207      	movs	r2, #7
 80041d2:	930c      	str	r3, [sp, #48]	@ 0x30
 80041d4:	682b      	ldr	r3, [r5, #0]
 80041d6:	930e      	str	r3, [sp, #56]	@ 0x38
 80041d8:	990e      	ldr	r1, [sp, #56]	@ 0x38
 80041da:	6823      	ldr	r3, [r4, #0]
 80041dc:	05c9      	lsls	r1, r1, #23
 80041de:	d545      	bpl.n	800426c <_printf_float+0xc0>
 80041e0:	189b      	adds	r3, r3, r2
 80041e2:	4393      	bics	r3, r2
 80041e4:	001a      	movs	r2, r3
 80041e6:	3208      	adds	r2, #8
 80041e8:	6022      	str	r2, [r4, #0]
 80041ea:	2201      	movs	r2, #1
 80041ec:	681e      	ldr	r6, [r3, #0]
 80041ee:	685f      	ldr	r7, [r3, #4]
 80041f0:	007b      	lsls	r3, r7, #1
 80041f2:	085b      	lsrs	r3, r3, #1
 80041f4:	9311      	str	r3, [sp, #68]	@ 0x44
 80041f6:	9610      	str	r6, [sp, #64]	@ 0x40
 80041f8:	64ae      	str	r6, [r5, #72]	@ 0x48
 80041fa:	64ef      	str	r7, [r5, #76]	@ 0x4c
 80041fc:	9810      	ldr	r0, [sp, #64]	@ 0x40
 80041fe:	9911      	ldr	r1, [sp, #68]	@ 0x44
 8004200:	4ba7      	ldr	r3, [pc, #668]	@ (80044a0 <_printf_float+0x2f4>)
 8004202:	4252      	negs	r2, r2
 8004204:	f7fe f8be 	bl	8002384 <__aeabi_dcmpun>
 8004208:	2800      	cmp	r0, #0
 800420a:	d131      	bne.n	8004270 <_printf_float+0xc4>
 800420c:	9810      	ldr	r0, [sp, #64]	@ 0x40
 800420e:	9911      	ldr	r1, [sp, #68]	@ 0x44
 8004210:	2201      	movs	r2, #1
 8004212:	4ba3      	ldr	r3, [pc, #652]	@ (80044a0 <_printf_float+0x2f4>)
 8004214:	4252      	negs	r2, r2
 8004216:	f7fc f929 	bl	800046c <__aeabi_dcmple>
 800421a:	2800      	cmp	r0, #0
 800421c:	d128      	bne.n	8004270 <_printf_float+0xc4>
 800421e:	2200      	movs	r2, #0
 8004220:	2300      	movs	r3, #0
 8004222:	0030      	movs	r0, r6
 8004224:	0039      	movs	r1, r7
 8004226:	f7fc f917 	bl	8000458 <__aeabi_dcmplt>
 800422a:	2800      	cmp	r0, #0
 800422c:	d003      	beq.n	8004236 <_printf_float+0x8a>
 800422e:	002b      	movs	r3, r5
 8004230:	222d      	movs	r2, #45	@ 0x2d
 8004232:	3343      	adds	r3, #67	@ 0x43
 8004234:	701a      	strb	r2, [r3, #0]
 8004236:	9b0c      	ldr	r3, [sp, #48]	@ 0x30
 8004238:	4f9a      	ldr	r7, [pc, #616]	@ (80044a4 <_printf_float+0x2f8>)
 800423a:	2b47      	cmp	r3, #71	@ 0x47
 800423c:	d900      	bls.n	8004240 <_printf_float+0x94>
 800423e:	4f9a      	ldr	r7, [pc, #616]	@ (80044a8 <_printf_float+0x2fc>)
 8004240:	2303      	movs	r3, #3
 8004242:	2400      	movs	r4, #0
 8004244:	9a0e      	ldr	r2, [sp, #56]	@ 0x38
 8004246:	612b      	str	r3, [r5, #16]
 8004248:	3301      	adds	r3, #1
 800424a:	439a      	bics	r2, r3
 800424c:	602a      	str	r2, [r5, #0]
 800424e:	9b0b      	ldr	r3, [sp, #44]	@ 0x2c
 8004250:	0029      	movs	r1, r5
 8004252:	9300      	str	r3, [sp, #0]
 8004254:	9809      	ldr	r0, [sp, #36]	@ 0x24
 8004256:	9b0a      	ldr	r3, [sp, #40]	@ 0x28
 8004258:	aa15      	add	r2, sp, #84	@ 0x54
 800425a:	f000 f9e5 	bl	8004628 <_printf_common>
 800425e:	3001      	adds	r0, #1
 8004260:	d000      	beq.n	8004264 <_printf_float+0xb8>
 8004262:	e09f      	b.n	80043a4 <_printf_float+0x1f8>
 8004264:	2001      	movs	r0, #1
 8004266:	4240      	negs	r0, r0
 8004268:	b017      	add	sp, #92	@ 0x5c
 800426a:	bdf0      	pop	{r4, r5, r6, r7, pc}
 800426c:	3307      	adds	r3, #7
 800426e:	e7b8      	b.n	80041e2 <_printf_float+0x36>
 8004270:	0032      	movs	r2, r6
 8004272:	003b      	movs	r3, r7
 8004274:	0030      	movs	r0, r6
 8004276:	0039      	movs	r1, r7
 8004278:	f7fe f884 	bl	8002384 <__aeabi_dcmpun>
 800427c:	2800      	cmp	r0, #0
 800427e:	d00b      	beq.n	8004298 <_printf_float+0xec>
 8004280:	2f00      	cmp	r7, #0
 8004282:	da03      	bge.n	800428c <_printf_float+0xe0>
 8004284:	002b      	movs	r3, r5
 8004286:	222d      	movs	r2, #45	@ 0x2d
 8004288:	3343      	adds	r3, #67	@ 0x43
 800428a:	701a      	strb	r2, [r3, #0]
 800428c:	9b0c      	ldr	r3, [sp, #48]	@ 0x30
 800428e:	4f87      	ldr	r7, [pc, #540]	@ (80044ac <_printf_float+0x300>)
 8004290:	2b47      	cmp	r3, #71	@ 0x47
 8004292:	d9d5      	bls.n	8004240 <_printf_float+0x94>
 8004294:	4f86      	ldr	r7, [pc, #536]	@ (80044b0 <_printf_float+0x304>)
 8004296:	e7d3      	b.n	8004240 <_printf_float+0x94>
 8004298:	2220      	movs	r2, #32
 800429a:	9c0c      	ldr	r4, [sp, #48]	@ 0x30
 800429c:	686b      	ldr	r3, [r5, #4]
 800429e:	4394      	bics	r4, r2
 80042a0:	1c5a      	adds	r2, r3, #1
 80042a2:	d146      	bne.n	8004332 <_printf_float+0x186>
 80042a4:	3307      	adds	r3, #7
 80042a6:	606b      	str	r3, [r5, #4]
 80042a8:	2380      	movs	r3, #128	@ 0x80
 80042aa:	9a0e      	ldr	r2, [sp, #56]	@ 0x38
 80042ac:	00db      	lsls	r3, r3, #3
 80042ae:	4313      	orrs	r3, r2
 80042b0:	2200      	movs	r2, #0
 80042b2:	602b      	str	r3, [r5, #0]
 80042b4:	9206      	str	r2, [sp, #24]
 80042b6:	aa14      	add	r2, sp, #80	@ 0x50
 80042b8:	9205      	str	r2, [sp, #20]
 80042ba:	9a0c      	ldr	r2, [sp, #48]	@ 0x30
 80042bc:	a90a      	add	r1, sp, #40	@ 0x28
 80042be:	9204      	str	r2, [sp, #16]
 80042c0:	aa13      	add	r2, sp, #76	@ 0x4c
 80042c2:	9203      	str	r2, [sp, #12]
 80042c4:	2223      	movs	r2, #35	@ 0x23
 80042c6:	1852      	adds	r2, r2, r1
 80042c8:	9202      	str	r2, [sp, #8]
 80042ca:	9301      	str	r3, [sp, #4]
 80042cc:	686b      	ldr	r3, [r5, #4]
 80042ce:	0032      	movs	r2, r6
 80042d0:	9300      	str	r3, [sp, #0]
 80042d2:	9809      	ldr	r0, [sp, #36]	@ 0x24
 80042d4:	003b      	movs	r3, r7
 80042d6:	f7ff fec3 	bl	8004060 <__cvt>
 80042da:	9a13      	ldr	r2, [sp, #76]	@ 0x4c
 80042dc:	0007      	movs	r7, r0
 80042de:	2c47      	cmp	r4, #71	@ 0x47
 80042e0:	d12d      	bne.n	800433e <_printf_float+0x192>
 80042e2:	1cd3      	adds	r3, r2, #3
 80042e4:	db02      	blt.n	80042ec <_printf_float+0x140>
 80042e6:	686b      	ldr	r3, [r5, #4]
 80042e8:	429a      	cmp	r2, r3
 80042ea:	dd48      	ble.n	800437e <_printf_float+0x1d2>
 80042ec:	9b0c      	ldr	r3, [sp, #48]	@ 0x30
 80042ee:	9913      	ldr	r1, [sp, #76]	@ 0x4c
 80042f0:	3b02      	subs	r3, #2
 80042f2:	b2db      	uxtb	r3, r3
 80042f4:	930c      	str	r3, [sp, #48]	@ 0x30
 80042f6:	0028      	movs	r0, r5
 80042f8:	9a0c      	ldr	r2, [sp, #48]	@ 0x30
 80042fa:	3901      	subs	r1, #1
 80042fc:	3050      	adds	r0, #80	@ 0x50
 80042fe:	9113      	str	r1, [sp, #76]	@ 0x4c
 8004300:	f7ff ff14 	bl	800412c <__exponent>
 8004304:	9a14      	ldr	r2, [sp, #80]	@ 0x50
 8004306:	0004      	movs	r4, r0
 8004308:	1813      	adds	r3, r2, r0
 800430a:	612b      	str	r3, [r5, #16]
 800430c:	2a01      	cmp	r2, #1
 800430e:	dc02      	bgt.n	8004316 <_printf_float+0x16a>
 8004310:	682a      	ldr	r2, [r5, #0]
 8004312:	07d2      	lsls	r2, r2, #31
 8004314:	d501      	bpl.n	800431a <_printf_float+0x16e>
 8004316:	3301      	adds	r3, #1
 8004318:	612b      	str	r3, [r5, #16]
 800431a:	2323      	movs	r3, #35	@ 0x23
 800431c:	aa0a      	add	r2, sp, #40	@ 0x28
 800431e:	189b      	adds	r3, r3, r2
 8004320:	781b      	ldrb	r3, [r3, #0]
 8004322:	2b00      	cmp	r3, #0
 8004324:	d100      	bne.n	8004328 <_printf_float+0x17c>
 8004326:	e792      	b.n	800424e <_printf_float+0xa2>
 8004328:	002b      	movs	r3, r5
 800432a:	222d      	movs	r2, #45	@ 0x2d
 800432c:	3343      	adds	r3, #67	@ 0x43
 800432e:	701a      	strb	r2, [r3, #0]
 8004330:	e78d      	b.n	800424e <_printf_float+0xa2>
 8004332:	2c47      	cmp	r4, #71	@ 0x47
 8004334:	d1b8      	bne.n	80042a8 <_printf_float+0xfc>
 8004336:	2b00      	cmp	r3, #0
 8004338:	d1b6      	bne.n	80042a8 <_printf_float+0xfc>
 800433a:	3301      	adds	r3, #1
 800433c:	e7b3      	b.n	80042a6 <_printf_float+0xfa>
 800433e:	9b0c      	ldr	r3, [sp, #48]	@ 0x30
 8004340:	0011      	movs	r1, r2
 8004342:	2b65      	cmp	r3, #101	@ 0x65
 8004344:	d9d7      	bls.n	80042f6 <_printf_float+0x14a>
 8004346:	9b0c      	ldr	r3, [sp, #48]	@ 0x30
 8004348:	2b66      	cmp	r3, #102	@ 0x66
 800434a:	d11a      	bne.n	8004382 <_printf_float+0x1d6>
 800434c:	686b      	ldr	r3, [r5, #4]
 800434e:	2a00      	cmp	r2, #0
 8004350:	dd09      	ble.n	8004366 <_printf_float+0x1ba>
 8004352:	612a      	str	r2, [r5, #16]
 8004354:	2b00      	cmp	r3, #0
 8004356:	d102      	bne.n	800435e <_printf_float+0x1b2>
 8004358:	6829      	ldr	r1, [r5, #0]
 800435a:	07c9      	lsls	r1, r1, #31
 800435c:	d50b      	bpl.n	8004376 <_printf_float+0x1ca>
 800435e:	3301      	adds	r3, #1
 8004360:	189b      	adds	r3, r3, r2
 8004362:	612b      	str	r3, [r5, #16]
 8004364:	e007      	b.n	8004376 <_printf_float+0x1ca>
 8004366:	2b00      	cmp	r3, #0
 8004368:	d103      	bne.n	8004372 <_printf_float+0x1c6>
 800436a:	2201      	movs	r2, #1
 800436c:	6829      	ldr	r1, [r5, #0]
 800436e:	4211      	tst	r1, r2
 8004370:	d000      	beq.n	8004374 <_printf_float+0x1c8>
 8004372:	1c9a      	adds	r2, r3, #2
 8004374:	612a      	str	r2, [r5, #16]
 8004376:	9b13      	ldr	r3, [sp, #76]	@ 0x4c
 8004378:	2400      	movs	r4, #0
 800437a:	65ab      	str	r3, [r5, #88]	@ 0x58
 800437c:	e7cd      	b.n	800431a <_printf_float+0x16e>
 800437e:	2367      	movs	r3, #103	@ 0x67
 8004380:	930c      	str	r3, [sp, #48]	@ 0x30
 8004382:	9913      	ldr	r1, [sp, #76]	@ 0x4c
 8004384:	9b14      	ldr	r3, [sp, #80]	@ 0x50
 8004386:	4299      	cmp	r1, r3
 8004388:	db06      	blt.n	8004398 <_printf_float+0x1ec>
 800438a:	682b      	ldr	r3, [r5, #0]
 800438c:	6129      	str	r1, [r5, #16]
 800438e:	07db      	lsls	r3, r3, #31
 8004390:	d5f1      	bpl.n	8004376 <_printf_float+0x1ca>
 8004392:	3101      	adds	r1, #1
 8004394:	6129      	str	r1, [r5, #16]
 8004396:	e7ee      	b.n	8004376 <_printf_float+0x1ca>
 8004398:	2201      	movs	r2, #1
 800439a:	2900      	cmp	r1, #0
 800439c:	dce0      	bgt.n	8004360 <_printf_float+0x1b4>
 800439e:	1892      	adds	r2, r2, r2
 80043a0:	1a52      	subs	r2, r2, r1
 80043a2:	e7dd      	b.n	8004360 <_printf_float+0x1b4>
 80043a4:	682a      	ldr	r2, [r5, #0]
 80043a6:	0553      	lsls	r3, r2, #21
 80043a8:	d408      	bmi.n	80043bc <_printf_float+0x210>
 80043aa:	692b      	ldr	r3, [r5, #16]
 80043ac:	003a      	movs	r2, r7
 80043ae:	990a      	ldr	r1, [sp, #40]	@ 0x28
 80043b0:	9809      	ldr	r0, [sp, #36]	@ 0x24
 80043b2:	9c0b      	ldr	r4, [sp, #44]	@ 0x2c
 80043b4:	47a0      	blx	r4
 80043b6:	3001      	adds	r0, #1
 80043b8:	d129      	bne.n	800440e <_printf_float+0x262>
 80043ba:	e753      	b.n	8004264 <_printf_float+0xb8>
 80043bc:	9b0c      	ldr	r3, [sp, #48]	@ 0x30
 80043be:	2b65      	cmp	r3, #101	@ 0x65
 80043c0:	d800      	bhi.n	80043c4 <_printf_float+0x218>
 80043c2:	e0da      	b.n	800457a <_printf_float+0x3ce>
 80043c4:	6ca8      	ldr	r0, [r5, #72]	@ 0x48
 80043c6:	6ce9      	ldr	r1, [r5, #76]	@ 0x4c
 80043c8:	2200      	movs	r2, #0
 80043ca:	2300      	movs	r3, #0
 80043cc:	f7fc f83e 	bl	800044c <__aeabi_dcmpeq>
 80043d0:	2800      	cmp	r0, #0
 80043d2:	d033      	beq.n	800443c <_printf_float+0x290>
 80043d4:	2301      	movs	r3, #1
 80043d6:	4a37      	ldr	r2, [pc, #220]	@ (80044b4 <_printf_float+0x308>)
 80043d8:	990a      	ldr	r1, [sp, #40]	@ 0x28
 80043da:	9809      	ldr	r0, [sp, #36]	@ 0x24
 80043dc:	9c0b      	ldr	r4, [sp, #44]	@ 0x2c
 80043de:	47a0      	blx	r4
 80043e0:	3001      	adds	r0, #1
 80043e2:	d100      	bne.n	80043e6 <_printf_float+0x23a>
 80043e4:	e73e      	b.n	8004264 <_printf_float+0xb8>
 80043e6:	9e14      	ldr	r6, [sp, #80]	@ 0x50
 80043e8:	9b13      	ldr	r3, [sp, #76]	@ 0x4c
 80043ea:	42b3      	cmp	r3, r6
 80043ec:	db02      	blt.n	80043f4 <_printf_float+0x248>
 80043ee:	682b      	ldr	r3, [r5, #0]
 80043f0:	07db      	lsls	r3, r3, #31
 80043f2:	d50c      	bpl.n	800440e <_printf_float+0x262>
 80043f4:	9c0b      	ldr	r4, [sp, #44]	@ 0x2c
 80043f6:	9b0f      	ldr	r3, [sp, #60]	@ 0x3c
 80043f8:	9a0d      	ldr	r2, [sp, #52]	@ 0x34
 80043fa:	990a      	ldr	r1, [sp, #40]	@ 0x28
 80043fc:	9809      	ldr	r0, [sp, #36]	@ 0x24
 80043fe:	47a0      	blx	r4
 8004400:	2400      	movs	r4, #0
 8004402:	3001      	adds	r0, #1
 8004404:	d100      	bne.n	8004408 <_printf_float+0x25c>
 8004406:	e72d      	b.n	8004264 <_printf_float+0xb8>
 8004408:	1e73      	subs	r3, r6, #1
 800440a:	42a3      	cmp	r3, r4
 800440c:	dc0a      	bgt.n	8004424 <_printf_float+0x278>
 800440e:	682b      	ldr	r3, [r5, #0]
 8004410:	079b      	lsls	r3, r3, #30
 8004412:	d500      	bpl.n	8004416 <_printf_float+0x26a>
 8004414:	e105      	b.n	8004622 <_printf_float+0x476>
 8004416:	9b15      	ldr	r3, [sp, #84]	@ 0x54
 8004418:	68e8      	ldr	r0, [r5, #12]
 800441a:	4298      	cmp	r0, r3
 800441c:	db00      	blt.n	8004420 <_printf_float+0x274>
 800441e:	e723      	b.n	8004268 <_printf_float+0xbc>
 8004420:	0018      	movs	r0, r3
 8004422:	e721      	b.n	8004268 <_printf_float+0xbc>
 8004424:	002a      	movs	r2, r5
 8004426:	2301      	movs	r3, #1
 8004428:	990a      	ldr	r1, [sp, #40]	@ 0x28
 800442a:	9809      	ldr	r0, [sp, #36]	@ 0x24
 800442c:	9f0b      	ldr	r7, [sp, #44]	@ 0x2c
 800442e:	321a      	adds	r2, #26
 8004430:	47b8      	blx	r7
 8004432:	3001      	adds	r0, #1
 8004434:	d100      	bne.n	8004438 <_printf_float+0x28c>
 8004436:	e715      	b.n	8004264 <_printf_float+0xb8>
 8004438:	3401      	adds	r4, #1
 800443a:	e7e5      	b.n	8004408 <_printf_float+0x25c>
 800443c:	9b13      	ldr	r3, [sp, #76]	@ 0x4c
 800443e:	2b00      	cmp	r3, #0
 8004440:	dc3a      	bgt.n	80044b8 <_printf_float+0x30c>
 8004442:	2301      	movs	r3, #1
 8004444:	4a1b      	ldr	r2, [pc, #108]	@ (80044b4 <_printf_float+0x308>)
 8004446:	990a      	ldr	r1, [sp, #40]	@ 0x28
 8004448:	9809      	ldr	r0, [sp, #36]	@ 0x24
 800444a:	9c0b      	ldr	r4, [sp, #44]	@ 0x2c
 800444c:	47a0      	blx	r4
 800444e:	3001      	adds	r0, #1
 8004450:	d100      	bne.n	8004454 <_printf_float+0x2a8>
 8004452:	e707      	b.n	8004264 <_printf_float+0xb8>
 8004454:	9e14      	ldr	r6, [sp, #80]	@ 0x50
 8004456:	9b13      	ldr	r3, [sp, #76]	@ 0x4c
 8004458:	4333      	orrs	r3, r6
 800445a:	d102      	bne.n	8004462 <_printf_float+0x2b6>
 800445c:	682b      	ldr	r3, [r5, #0]
 800445e:	07db      	lsls	r3, r3, #31
 8004460:	d5d5      	bpl.n	800440e <_printf_float+0x262>
 8004462:	9b0f      	ldr	r3, [sp, #60]	@ 0x3c
 8004464:	9a0d      	ldr	r2, [sp, #52]	@ 0x34
 8004466:	990a      	ldr	r1, [sp, #40]	@ 0x28
 8004468:	9809      	ldr	r0, [sp, #36]	@ 0x24
 800446a:	9c0b      	ldr	r4, [sp, #44]	@ 0x2c
 800446c:	47a0      	blx	r4
 800446e:	2300      	movs	r3, #0
 8004470:	3001      	adds	r0, #1
 8004472:	d100      	bne.n	8004476 <_printf_float+0x2ca>
 8004474:	e6f6      	b.n	8004264 <_printf_float+0xb8>
 8004476:	930c      	str	r3, [sp, #48]	@ 0x30
 8004478:	9b13      	ldr	r3, [sp, #76]	@ 0x4c
 800447a:	9a0c      	ldr	r2, [sp, #48]	@ 0x30
 800447c:	425b      	negs	r3, r3
 800447e:	4293      	cmp	r3, r2
 8004480:	dc01      	bgt.n	8004486 <_printf_float+0x2da>
 8004482:	0033      	movs	r3, r6
 8004484:	e792      	b.n	80043ac <_printf_float+0x200>
 8004486:	002a      	movs	r2, r5
 8004488:	2301      	movs	r3, #1
 800448a:	990a      	ldr	r1, [sp, #40]	@ 0x28
 800448c:	9809      	ldr	r0, [sp, #36]	@ 0x24
 800448e:	9c0b      	ldr	r4, [sp, #44]	@ 0x2c
 8004490:	321a      	adds	r2, #26
 8004492:	47a0      	blx	r4
 8004494:	3001      	adds	r0, #1
 8004496:	d100      	bne.n	800449a <_printf_float+0x2ee>
 8004498:	e6e4      	b.n	8004264 <_printf_float+0xb8>
 800449a:	9b0c      	ldr	r3, [sp, #48]	@ 0x30
 800449c:	3301      	adds	r3, #1
 800449e:	e7ea      	b.n	8004476 <_printf_float+0x2ca>
 80044a0:	7fefffff 	.word	0x7fefffff
 80044a4:	0800736f 	.word	0x0800736f
 80044a8:	08007373 	.word	0x08007373
 80044ac:	08007377 	.word	0x08007377
 80044b0:	0800737b 	.word	0x0800737b
 80044b4:	0800737f 	.word	0x0800737f
 80044b8:	9b14      	ldr	r3, [sp, #80]	@ 0x50
 80044ba:	6dae      	ldr	r6, [r5, #88]	@ 0x58
 80044bc:	930c      	str	r3, [sp, #48]	@ 0x30
 80044be:	429e      	cmp	r6, r3
 80044c0:	dd00      	ble.n	80044c4 <_printf_float+0x318>
 80044c2:	001e      	movs	r6, r3
 80044c4:	2e00      	cmp	r6, #0
 80044c6:	dc31      	bgt.n	800452c <_printf_float+0x380>
 80044c8:	43f3      	mvns	r3, r6
 80044ca:	2400      	movs	r4, #0
 80044cc:	17db      	asrs	r3, r3, #31
 80044ce:	4033      	ands	r3, r6
 80044d0:	930e      	str	r3, [sp, #56]	@ 0x38
 80044d2:	6dae      	ldr	r6, [r5, #88]	@ 0x58
 80044d4:	9b0e      	ldr	r3, [sp, #56]	@ 0x38
 80044d6:	1af3      	subs	r3, r6, r3
 80044d8:	42a3      	cmp	r3, r4
 80044da:	dc30      	bgt.n	800453e <_printf_float+0x392>
 80044dc:	9b13      	ldr	r3, [sp, #76]	@ 0x4c
 80044de:	9a0c      	ldr	r2, [sp, #48]	@ 0x30
 80044e0:	429a      	cmp	r2, r3
 80044e2:	dc38      	bgt.n	8004556 <_printf_float+0x3aa>
 80044e4:	682b      	ldr	r3, [r5, #0]
 80044e6:	07db      	lsls	r3, r3, #31
 80044e8:	d435      	bmi.n	8004556 <_printf_float+0x3aa>
 80044ea:	9c13      	ldr	r4, [sp, #76]	@ 0x4c
 80044ec:	9b0c      	ldr	r3, [sp, #48]	@ 0x30
 80044ee:	9a0c      	ldr	r2, [sp, #48]	@ 0x30
 80044f0:	1b9b      	subs	r3, r3, r6
 80044f2:	1b14      	subs	r4, r2, r4
 80044f4:	429c      	cmp	r4, r3
 80044f6:	dd00      	ble.n	80044fa <_printf_float+0x34e>
 80044f8:	001c      	movs	r4, r3
 80044fa:	2c00      	cmp	r4, #0
 80044fc:	dc34      	bgt.n	8004568 <_printf_float+0x3bc>
 80044fe:	43e3      	mvns	r3, r4
 8004500:	2600      	movs	r6, #0
 8004502:	17db      	asrs	r3, r3, #31
 8004504:	401c      	ands	r4, r3
 8004506:	9b13      	ldr	r3, [sp, #76]	@ 0x4c
 8004508:	9a0c      	ldr	r2, [sp, #48]	@ 0x30
 800450a:	1ad3      	subs	r3, r2, r3
 800450c:	1b1b      	subs	r3, r3, r4
 800450e:	42b3      	cmp	r3, r6
 8004510:	dc00      	bgt.n	8004514 <_printf_float+0x368>
 8004512:	e77c      	b.n	800440e <_printf_float+0x262>
 8004514:	002a      	movs	r2, r5
 8004516:	2301      	movs	r3, #1
 8004518:	990a      	ldr	r1, [sp, #40]	@ 0x28
 800451a:	9809      	ldr	r0, [sp, #36]	@ 0x24
 800451c:	9f0b      	ldr	r7, [sp, #44]	@ 0x2c
 800451e:	321a      	adds	r2, #26
 8004520:	47b8      	blx	r7
 8004522:	3001      	adds	r0, #1
 8004524:	d100      	bne.n	8004528 <_printf_float+0x37c>
 8004526:	e69d      	b.n	8004264 <_printf_float+0xb8>
 8004528:	3601      	adds	r6, #1
 800452a:	e7ec      	b.n	8004506 <_printf_float+0x35a>
 800452c:	0033      	movs	r3, r6
 800452e:	003a      	movs	r2, r7
 8004530:	990a      	ldr	r1, [sp, #40]	@ 0x28
 8004532:	9809      	ldr	r0, [sp, #36]	@ 0x24
 8004534:	9c0b      	ldr	r4, [sp, #44]	@ 0x2c
 8004536:	47a0      	blx	r4
 8004538:	3001      	adds	r0, #1
 800453a:	d1c5      	bne.n	80044c8 <_printf_float+0x31c>
 800453c:	e692      	b.n	8004264 <_printf_float+0xb8>
 800453e:	002a      	movs	r2, r5
 8004540:	2301      	movs	r3, #1
 8004542:	990a      	ldr	r1, [sp, #40]	@ 0x28
 8004544:	9809      	ldr	r0, [sp, #36]	@ 0x24
 8004546:	9e0b      	ldr	r6, [sp, #44]	@ 0x2c
 8004548:	321a      	adds	r2, #26
 800454a:	47b0      	blx	r6
 800454c:	3001      	adds	r0, #1
 800454e:	d100      	bne.n	8004552 <_printf_float+0x3a6>
 8004550:	e688      	b.n	8004264 <_printf_float+0xb8>
 8004552:	3401      	adds	r4, #1
 8004554:	e7bd      	b.n	80044d2 <_printf_float+0x326>
 8004556:	9b0f      	ldr	r3, [sp, #60]	@ 0x3c
 8004558:	9a0d      	ldr	r2, [sp, #52]	@ 0x34
 800455a:	990a      	ldr	r1, [sp, #40]	@ 0x28
 800455c:	9809      	ldr	r0, [sp, #36]	@ 0x24
 800455e:	9c0b      	ldr	r4, [sp, #44]	@ 0x2c
 8004560:	47a0      	blx	r4
 8004562:	3001      	adds	r0, #1
 8004564:	d1c1      	bne.n	80044ea <_printf_float+0x33e>
 8004566:	e67d      	b.n	8004264 <_printf_float+0xb8>
 8004568:	19ba      	adds	r2, r7, r6
 800456a:	0023      	movs	r3, r4
 800456c:	990a      	ldr	r1, [sp, #40]	@ 0x28
 800456e:	9809      	ldr	r0, [sp, #36]	@ 0x24
 8004570:	9e0b      	ldr	r6, [sp, #44]	@ 0x2c
 8004572:	47b0      	blx	r6
 8004574:	3001      	adds	r0, #1
 8004576:	d1c2      	bne.n	80044fe <_printf_float+0x352>
 8004578:	e674      	b.n	8004264 <_printf_float+0xb8>
 800457a:	9b14      	ldr	r3, [sp, #80]	@ 0x50
 800457c:	930c      	str	r3, [sp, #48]	@ 0x30
 800457e:	2b01      	cmp	r3, #1
 8004580:	dc02      	bgt.n	8004588 <_printf_float+0x3dc>
 8004582:	2301      	movs	r3, #1
 8004584:	421a      	tst	r2, r3
 8004586:	d039      	beq.n	80045fc <_printf_float+0x450>
 8004588:	2301      	movs	r3, #1
 800458a:	003a      	movs	r2, r7
 800458c:	990a      	ldr	r1, [sp, #40]	@ 0x28
 800458e:	9809      	ldr	r0, [sp, #36]	@ 0x24
 8004590:	9e0b      	ldr	r6, [sp, #44]	@ 0x2c
 8004592:	47b0      	blx	r6
 8004594:	3001      	adds	r0, #1
 8004596:	d100      	bne.n	800459a <_printf_float+0x3ee>
 8004598:	e664      	b.n	8004264 <_printf_float+0xb8>
 800459a:	9b0f      	ldr	r3, [sp, #60]	@ 0x3c
 800459c:	9a0d      	ldr	r2, [sp, #52]	@ 0x34
 800459e:	990a      	ldr	r1, [sp, #40]	@ 0x28
 80045a0:	9809      	ldr	r0, [sp, #36]	@ 0x24
 80045a2:	9e0b      	ldr	r6, [sp, #44]	@ 0x2c
 80045a4:	47b0      	blx	r6
 80045a6:	3001      	adds	r0, #1
 80045a8:	d100      	bne.n	80045ac <_printf_float+0x400>
 80045aa:	e65b      	b.n	8004264 <_printf_float+0xb8>
 80045ac:	6ca8      	ldr	r0, [r5, #72]	@ 0x48
 80045ae:	6ce9      	ldr	r1, [r5, #76]	@ 0x4c
 80045b0:	9b0c      	ldr	r3, [sp, #48]	@ 0x30
 80045b2:	2200      	movs	r2, #0
 80045b4:	3b01      	subs	r3, #1
 80045b6:	930c      	str	r3, [sp, #48]	@ 0x30
 80045b8:	2300      	movs	r3, #0
 80045ba:	f7fb ff47 	bl	800044c <__aeabi_dcmpeq>
 80045be:	2800      	cmp	r0, #0
 80045c0:	d11a      	bne.n	80045f8 <_printf_float+0x44c>
 80045c2:	9b0c      	ldr	r3, [sp, #48]	@ 0x30
 80045c4:	1c7a      	adds	r2, r7, #1
 80045c6:	990a      	ldr	r1, [sp, #40]	@ 0x28
 80045c8:	9809      	ldr	r0, [sp, #36]	@ 0x24
 80045ca:	9e0b      	ldr	r6, [sp, #44]	@ 0x2c
 80045cc:	47b0      	blx	r6
 80045ce:	3001      	adds	r0, #1
 80045d0:	d10e      	bne.n	80045f0 <_printf_float+0x444>
 80045d2:	e647      	b.n	8004264 <_printf_float+0xb8>
 80045d4:	002a      	movs	r2, r5
 80045d6:	2301      	movs	r3, #1
 80045d8:	990a      	ldr	r1, [sp, #40]	@ 0x28
 80045da:	9809      	ldr	r0, [sp, #36]	@ 0x24
 80045dc:	9f0b      	ldr	r7, [sp, #44]	@ 0x2c
 80045de:	321a      	adds	r2, #26
 80045e0:	47b8      	blx	r7
 80045e2:	3001      	adds	r0, #1
 80045e4:	d100      	bne.n	80045e8 <_printf_float+0x43c>
 80045e6:	e63d      	b.n	8004264 <_printf_float+0xb8>
 80045e8:	3601      	adds	r6, #1
 80045ea:	9b0c      	ldr	r3, [sp, #48]	@ 0x30
 80045ec:	429e      	cmp	r6, r3
 80045ee:	dbf1      	blt.n	80045d4 <_printf_float+0x428>
 80045f0:	002a      	movs	r2, r5
 80045f2:	0023      	movs	r3, r4
 80045f4:	3250      	adds	r2, #80	@ 0x50
 80045f6:	e6da      	b.n	80043ae <_printf_float+0x202>
 80045f8:	2600      	movs	r6, #0
 80045fa:	e7f6      	b.n	80045ea <_printf_float+0x43e>
 80045fc:	003a      	movs	r2, r7
 80045fe:	e7e2      	b.n	80045c6 <_printf_float+0x41a>
 8004600:	002a      	movs	r2, r5
 8004602:	2301      	movs	r3, #1
 8004604:	990a      	ldr	r1, [sp, #40]	@ 0x28
 8004606:	9809      	ldr	r0, [sp, #36]	@ 0x24
 8004608:	9e0b      	ldr	r6, [sp, #44]	@ 0x2c
 800460a:	3219      	adds	r2, #25
 800460c:	47b0      	blx	r6
 800460e:	3001      	adds	r0, #1
 8004610:	d100      	bne.n	8004614 <_printf_float+0x468>
 8004612:	e627      	b.n	8004264 <_printf_float+0xb8>
 8004614:	3401      	adds	r4, #1
 8004616:	68eb      	ldr	r3, [r5, #12]
 8004618:	9a15      	ldr	r2, [sp, #84]	@ 0x54
 800461a:	1a9b      	subs	r3, r3, r2
 800461c:	42a3      	cmp	r3, r4
 800461e:	dcef      	bgt.n	8004600 <_printf_float+0x454>
 8004620:	e6f9      	b.n	8004416 <_printf_float+0x26a>
 8004622:	2400      	movs	r4, #0
 8004624:	e7f7      	b.n	8004616 <_printf_float+0x46a>
 8004626:	46c0      	nop			@ (mov r8, r8)

08004628 <_printf_common>:
 8004628:	b5f7      	push	{r0, r1, r2, r4, r5, r6, r7, lr}
 800462a:	0016      	movs	r6, r2
 800462c:	9301      	str	r3, [sp, #4]
 800462e:	688a      	ldr	r2, [r1, #8]
 8004630:	690b      	ldr	r3, [r1, #16]
 8004632:	000c      	movs	r4, r1
 8004634:	9000      	str	r0, [sp, #0]
 8004636:	4293      	cmp	r3, r2
 8004638:	da00      	bge.n	800463c <_printf_common+0x14>
 800463a:	0013      	movs	r3, r2
 800463c:	0022      	movs	r2, r4
 800463e:	6033      	str	r3, [r6, #0]
 8004640:	3243      	adds	r2, #67	@ 0x43
 8004642:	7812      	ldrb	r2, [r2, #0]
 8004644:	2a00      	cmp	r2, #0
 8004646:	d001      	beq.n	800464c <_printf_common+0x24>
 8004648:	3301      	adds	r3, #1
 800464a:	6033      	str	r3, [r6, #0]
 800464c:	6823      	ldr	r3, [r4, #0]
 800464e:	069b      	lsls	r3, r3, #26
 8004650:	d502      	bpl.n	8004658 <_printf_common+0x30>
 8004652:	6833      	ldr	r3, [r6, #0]
 8004654:	3302      	adds	r3, #2
 8004656:	6033      	str	r3, [r6, #0]
 8004658:	6822      	ldr	r2, [r4, #0]
 800465a:	2306      	movs	r3, #6
 800465c:	0015      	movs	r5, r2
 800465e:	401d      	ands	r5, r3
 8004660:	421a      	tst	r2, r3
 8004662:	d027      	beq.n	80046b4 <_printf_common+0x8c>
 8004664:	0023      	movs	r3, r4
 8004666:	3343      	adds	r3, #67	@ 0x43
 8004668:	781b      	ldrb	r3, [r3, #0]
 800466a:	1e5a      	subs	r2, r3, #1
 800466c:	4193      	sbcs	r3, r2
 800466e:	6822      	ldr	r2, [r4, #0]
 8004670:	0692      	lsls	r2, r2, #26
 8004672:	d430      	bmi.n	80046d6 <_printf_common+0xae>
 8004674:	0022      	movs	r2, r4
 8004676:	9901      	ldr	r1, [sp, #4]
 8004678:	9800      	ldr	r0, [sp, #0]
 800467a:	9d08      	ldr	r5, [sp, #32]
 800467c:	3243      	adds	r2, #67	@ 0x43
 800467e:	47a8      	blx	r5
 8004680:	3001      	adds	r0, #1
 8004682:	d025      	beq.n	80046d0 <_printf_common+0xa8>
 8004684:	2206      	movs	r2, #6
 8004686:	6823      	ldr	r3, [r4, #0]
 8004688:	2500      	movs	r5, #0
 800468a:	4013      	ands	r3, r2
 800468c:	2b04      	cmp	r3, #4
 800468e:	d105      	bne.n	800469c <_printf_common+0x74>
 8004690:	6833      	ldr	r3, [r6, #0]
 8004692:	68e5      	ldr	r5, [r4, #12]
 8004694:	1aed      	subs	r5, r5, r3
 8004696:	43eb      	mvns	r3, r5
 8004698:	17db      	asrs	r3, r3, #31
 800469a:	401d      	ands	r5, r3
 800469c:	68a3      	ldr	r3, [r4, #8]
 800469e:	6922      	ldr	r2, [r4, #16]
 80046a0:	4293      	cmp	r3, r2
 80046a2:	dd01      	ble.n	80046a8 <_printf_common+0x80>
 80046a4:	1a9b      	subs	r3, r3, r2
 80046a6:	18ed      	adds	r5, r5, r3
 80046a8:	2600      	movs	r6, #0
 80046aa:	42b5      	cmp	r5, r6
 80046ac:	d120      	bne.n	80046f0 <_printf_common+0xc8>
 80046ae:	2000      	movs	r0, #0
 80046b0:	e010      	b.n	80046d4 <_printf_common+0xac>
 80046b2:	3501      	adds	r5, #1
 80046b4:	68e3      	ldr	r3, [r4, #12]
 80046b6:	6832      	ldr	r2, [r6, #0]
 80046b8:	1a9b      	subs	r3, r3, r2
 80046ba:	42ab      	cmp	r3, r5
 80046bc:	ddd2      	ble.n	8004664 <_printf_common+0x3c>
 80046be:	0022      	movs	r2, r4
 80046c0:	2301      	movs	r3, #1
 80046c2:	9901      	ldr	r1, [sp, #4]
 80046c4:	9800      	ldr	r0, [sp, #0]
 80046c6:	9f08      	ldr	r7, [sp, #32]
 80046c8:	3219      	adds	r2, #25
 80046ca:	47b8      	blx	r7
 80046cc:	3001      	adds	r0, #1
 80046ce:	d1f0      	bne.n	80046b2 <_printf_common+0x8a>
 80046d0:	2001      	movs	r0, #1
 80046d2:	4240      	negs	r0, r0
 80046d4:	bdfe      	pop	{r1, r2, r3, r4, r5, r6, r7, pc}
 80046d6:	2030      	movs	r0, #48	@ 0x30
 80046d8:	18e1      	adds	r1, r4, r3
 80046da:	3143      	adds	r1, #67	@ 0x43
 80046dc:	7008      	strb	r0, [r1, #0]
 80046de:	0021      	movs	r1, r4
 80046e0:	1c5a      	adds	r2, r3, #1
 80046e2:	3145      	adds	r1, #69	@ 0x45
 80046e4:	7809      	ldrb	r1, [r1, #0]
 80046e6:	18a2      	adds	r2, r4, r2
 80046e8:	3243      	adds	r2, #67	@ 0x43
 80046ea:	3302      	adds	r3, #2
 80046ec:	7011      	strb	r1, [r2, #0]
 80046ee:	e7c1      	b.n	8004674 <_printf_common+0x4c>
 80046f0:	0022      	movs	r2, r4
 80046f2:	2301      	movs	r3, #1
 80046f4:	9901      	ldr	r1, [sp, #4]
 80046f6:	9800      	ldr	r0, [sp, #0]
 80046f8:	9f08      	ldr	r7, [sp, #32]
 80046fa:	321a      	adds	r2, #26
 80046fc:	47b8      	blx	r7
 80046fe:	3001      	adds	r0, #1
 8004700:	d0e6      	beq.n	80046d0 <_printf_common+0xa8>
 8004702:	3601      	adds	r6, #1
 8004704:	e7d1      	b.n	80046aa <_printf_common+0x82>
	...

08004708 <_printf_i>:
 8004708:	b5f0      	push	{r4, r5, r6, r7, lr}
 800470a:	b08b      	sub	sp, #44	@ 0x2c
 800470c:	9206      	str	r2, [sp, #24]
 800470e:	000a      	movs	r2, r1
 8004710:	3243      	adds	r2, #67	@ 0x43
 8004712:	9307      	str	r3, [sp, #28]
 8004714:	9005      	str	r0, [sp, #20]
 8004716:	9203      	str	r2, [sp, #12]
 8004718:	7e0a      	ldrb	r2, [r1, #24]
 800471a:	000c      	movs	r4, r1
 800471c:	9b10      	ldr	r3, [sp, #64]	@ 0x40
 800471e:	2a78      	cmp	r2, #120	@ 0x78
 8004720:	d809      	bhi.n	8004736 <_printf_i+0x2e>
 8004722:	2a62      	cmp	r2, #98	@ 0x62
 8004724:	d80b      	bhi.n	800473e <_printf_i+0x36>
 8004726:	2a00      	cmp	r2, #0
 8004728:	d100      	bne.n	800472c <_printf_i+0x24>
 800472a:	e0bc      	b.n	80048a6 <_printf_i+0x19e>
 800472c:	497b      	ldr	r1, [pc, #492]	@ (800491c <_printf_i+0x214>)
 800472e:	9104      	str	r1, [sp, #16]
 8004730:	2a58      	cmp	r2, #88	@ 0x58
 8004732:	d100      	bne.n	8004736 <_printf_i+0x2e>
 8004734:	e090      	b.n	8004858 <_printf_i+0x150>
 8004736:	0025      	movs	r5, r4
 8004738:	3542      	adds	r5, #66	@ 0x42
 800473a:	702a      	strb	r2, [r5, #0]
 800473c:	e022      	b.n	8004784 <_printf_i+0x7c>
 800473e:	0010      	movs	r0, r2
 8004740:	3863      	subs	r0, #99	@ 0x63
 8004742:	2815      	cmp	r0, #21
 8004744:	d8f7      	bhi.n	8004736 <_printf_i+0x2e>
 8004746:	f7fb fcf1 	bl	800012c <__gnu_thumb1_case_shi>
 800474a:	0016      	.short	0x0016
 800474c:	fff6001f 	.word	0xfff6001f
 8004750:	fff6fff6 	.word	0xfff6fff6
 8004754:	001ffff6 	.word	0x001ffff6
 8004758:	fff6fff6 	.word	0xfff6fff6
 800475c:	fff6fff6 	.word	0xfff6fff6
 8004760:	003600a1 	.word	0x003600a1
 8004764:	fff60080 	.word	0xfff60080
 8004768:	00b2fff6 	.word	0x00b2fff6
 800476c:	0036fff6 	.word	0x0036fff6
 8004770:	fff6fff6 	.word	0xfff6fff6
 8004774:	0084      	.short	0x0084
 8004776:	0025      	movs	r5, r4
 8004778:	681a      	ldr	r2, [r3, #0]
 800477a:	3542      	adds	r5, #66	@ 0x42
 800477c:	1d11      	adds	r1, r2, #4
 800477e:	6019      	str	r1, [r3, #0]
 8004780:	6813      	ldr	r3, [r2, #0]
 8004782:	702b      	strb	r3, [r5, #0]
 8004784:	2301      	movs	r3, #1
 8004786:	e0a0      	b.n	80048ca <_printf_i+0x1c2>
 8004788:	6818      	ldr	r0, [r3, #0]
 800478a:	6809      	ldr	r1, [r1, #0]
 800478c:	1d02      	adds	r2, r0, #4
 800478e:	060d      	lsls	r5, r1, #24
 8004790:	d50b      	bpl.n	80047aa <_printf_i+0xa2>
 8004792:	6806      	ldr	r6, [r0, #0]
 8004794:	601a      	str	r2, [r3, #0]
 8004796:	2e00      	cmp	r6, #0
 8004798:	da03      	bge.n	80047a2 <_printf_i+0x9a>
 800479a:	232d      	movs	r3, #45	@ 0x2d
 800479c:	9a03      	ldr	r2, [sp, #12]
 800479e:	4276      	negs	r6, r6
 80047a0:	7013      	strb	r3, [r2, #0]
 80047a2:	4b5e      	ldr	r3, [pc, #376]	@ (800491c <_printf_i+0x214>)
 80047a4:	270a      	movs	r7, #10
 80047a6:	9304      	str	r3, [sp, #16]
 80047a8:	e018      	b.n	80047dc <_printf_i+0xd4>
 80047aa:	6806      	ldr	r6, [r0, #0]
 80047ac:	601a      	str	r2, [r3, #0]
 80047ae:	0649      	lsls	r1, r1, #25
 80047b0:	d5f1      	bpl.n	8004796 <_printf_i+0x8e>
 80047b2:	b236      	sxth	r6, r6
 80047b4:	e7ef      	b.n	8004796 <_printf_i+0x8e>
 80047b6:	6808      	ldr	r0, [r1, #0]
 80047b8:	6819      	ldr	r1, [r3, #0]
 80047ba:	c940      	ldmia	r1!, {r6}
 80047bc:	0605      	lsls	r5, r0, #24
 80047be:	d402      	bmi.n	80047c6 <_printf_i+0xbe>
 80047c0:	0640      	lsls	r0, r0, #25
 80047c2:	d500      	bpl.n	80047c6 <_printf_i+0xbe>
 80047c4:	b2b6      	uxth	r6, r6
 80047c6:	6019      	str	r1, [r3, #0]
 80047c8:	4b54      	ldr	r3, [pc, #336]	@ (800491c <_printf_i+0x214>)
 80047ca:	270a      	movs	r7, #10
 80047cc:	9304      	str	r3, [sp, #16]
 80047ce:	2a6f      	cmp	r2, #111	@ 0x6f
 80047d0:	d100      	bne.n	80047d4 <_printf_i+0xcc>
 80047d2:	3f02      	subs	r7, #2
 80047d4:	0023      	movs	r3, r4
 80047d6:	2200      	movs	r2, #0
 80047d8:	3343      	adds	r3, #67	@ 0x43
 80047da:	701a      	strb	r2, [r3, #0]
 80047dc:	6863      	ldr	r3, [r4, #4]
 80047de:	60a3      	str	r3, [r4, #8]
 80047e0:	2b00      	cmp	r3, #0
 80047e2:	db03      	blt.n	80047ec <_printf_i+0xe4>
 80047e4:	2104      	movs	r1, #4
 80047e6:	6822      	ldr	r2, [r4, #0]
 80047e8:	438a      	bics	r2, r1
 80047ea:	6022      	str	r2, [r4, #0]
 80047ec:	2e00      	cmp	r6, #0
 80047ee:	d102      	bne.n	80047f6 <_printf_i+0xee>
 80047f0:	9d03      	ldr	r5, [sp, #12]
 80047f2:	2b00      	cmp	r3, #0
 80047f4:	d00c      	beq.n	8004810 <_printf_i+0x108>
 80047f6:	9d03      	ldr	r5, [sp, #12]
 80047f8:	0030      	movs	r0, r6
 80047fa:	0039      	movs	r1, r7
 80047fc:	f7fb fd26 	bl	800024c <__aeabi_uidivmod>
 8004800:	9b04      	ldr	r3, [sp, #16]
 8004802:	3d01      	subs	r5, #1
 8004804:	5c5b      	ldrb	r3, [r3, r1]
 8004806:	702b      	strb	r3, [r5, #0]
 8004808:	0033      	movs	r3, r6
 800480a:	0006      	movs	r6, r0
 800480c:	429f      	cmp	r7, r3
 800480e:	d9f3      	bls.n	80047f8 <_printf_i+0xf0>
 8004810:	2f08      	cmp	r7, #8
 8004812:	d109      	bne.n	8004828 <_printf_i+0x120>
 8004814:	6823      	ldr	r3, [r4, #0]
 8004816:	07db      	lsls	r3, r3, #31
 8004818:	d506      	bpl.n	8004828 <_printf_i+0x120>
 800481a:	6862      	ldr	r2, [r4, #4]
 800481c:	6923      	ldr	r3, [r4, #16]
 800481e:	429a      	cmp	r2, r3
 8004820:	dc02      	bgt.n	8004828 <_printf_i+0x120>
 8004822:	2330      	movs	r3, #48	@ 0x30
 8004824:	3d01      	subs	r5, #1
 8004826:	702b      	strb	r3, [r5, #0]
 8004828:	9b03      	ldr	r3, [sp, #12]
 800482a:	1b5b      	subs	r3, r3, r5
 800482c:	6123      	str	r3, [r4, #16]
 800482e:	9b07      	ldr	r3, [sp, #28]
 8004830:	0021      	movs	r1, r4
 8004832:	9300      	str	r3, [sp, #0]
 8004834:	9805      	ldr	r0, [sp, #20]
 8004836:	9b06      	ldr	r3, [sp, #24]
 8004838:	aa09      	add	r2, sp, #36	@ 0x24
 800483a:	f7ff fef5 	bl	8004628 <_printf_common>
 800483e:	3001      	adds	r0, #1
 8004840:	d148      	bne.n	80048d4 <_printf_i+0x1cc>
 8004842:	2001      	movs	r0, #1
 8004844:	4240      	negs	r0, r0
 8004846:	b00b      	add	sp, #44	@ 0x2c
 8004848:	bdf0      	pop	{r4, r5, r6, r7, pc}
 800484a:	2220      	movs	r2, #32
 800484c:	6809      	ldr	r1, [r1, #0]
 800484e:	430a      	orrs	r2, r1
 8004850:	6022      	str	r2, [r4, #0]
 8004852:	2278      	movs	r2, #120	@ 0x78
 8004854:	4932      	ldr	r1, [pc, #200]	@ (8004920 <_printf_i+0x218>)
 8004856:	9104      	str	r1, [sp, #16]
 8004858:	0021      	movs	r1, r4
 800485a:	3145      	adds	r1, #69	@ 0x45
 800485c:	700a      	strb	r2, [r1, #0]
 800485e:	6819      	ldr	r1, [r3, #0]
 8004860:	6822      	ldr	r2, [r4, #0]
 8004862:	c940      	ldmia	r1!, {r6}
 8004864:	0610      	lsls	r0, r2, #24
 8004866:	d402      	bmi.n	800486e <_printf_i+0x166>
 8004868:	0650      	lsls	r0, r2, #25
 800486a:	d500      	bpl.n	800486e <_printf_i+0x166>
 800486c:	b2b6      	uxth	r6, r6
 800486e:	6019      	str	r1, [r3, #0]
 8004870:	07d3      	lsls	r3, r2, #31
 8004872:	d502      	bpl.n	800487a <_printf_i+0x172>
 8004874:	2320      	movs	r3, #32
 8004876:	4313      	orrs	r3, r2
 8004878:	6023      	str	r3, [r4, #0]
 800487a:	2e00      	cmp	r6, #0
 800487c:	d001      	beq.n	8004882 <_printf_i+0x17a>
 800487e:	2710      	movs	r7, #16
 8004880:	e7a8      	b.n	80047d4 <_printf_i+0xcc>
 8004882:	2220      	movs	r2, #32
 8004884:	6823      	ldr	r3, [r4, #0]
 8004886:	4393      	bics	r3, r2
 8004888:	6023      	str	r3, [r4, #0]
 800488a:	e7f8      	b.n	800487e <_printf_i+0x176>
 800488c:	681a      	ldr	r2, [r3, #0]
 800488e:	680d      	ldr	r5, [r1, #0]
 8004890:	1d10      	adds	r0, r2, #4
 8004892:	6949      	ldr	r1, [r1, #20]
 8004894:	6018      	str	r0, [r3, #0]
 8004896:	6813      	ldr	r3, [r2, #0]
 8004898:	062e      	lsls	r6, r5, #24
 800489a:	d501      	bpl.n	80048a0 <_printf_i+0x198>
 800489c:	6019      	str	r1, [r3, #0]
 800489e:	e002      	b.n	80048a6 <_printf_i+0x19e>
 80048a0:	066d      	lsls	r5, r5, #25
 80048a2:	d5fb      	bpl.n	800489c <_printf_i+0x194>
 80048a4:	8019      	strh	r1, [r3, #0]
 80048a6:	2300      	movs	r3, #0
 80048a8:	9d03      	ldr	r5, [sp, #12]
 80048aa:	6123      	str	r3, [r4, #16]
 80048ac:	e7bf      	b.n	800482e <_printf_i+0x126>
 80048ae:	681a      	ldr	r2, [r3, #0]
 80048b0:	1d11      	adds	r1, r2, #4
 80048b2:	6019      	str	r1, [r3, #0]
 80048b4:	6815      	ldr	r5, [r2, #0]
 80048b6:	2100      	movs	r1, #0
 80048b8:	0028      	movs	r0, r5
 80048ba:	6862      	ldr	r2, [r4, #4]
 80048bc:	f000 f94f 	bl	8004b5e <memchr>
 80048c0:	2800      	cmp	r0, #0
 80048c2:	d001      	beq.n	80048c8 <_printf_i+0x1c0>
 80048c4:	1b40      	subs	r0, r0, r5
 80048c6:	6060      	str	r0, [r4, #4]
 80048c8:	6863      	ldr	r3, [r4, #4]
 80048ca:	6123      	str	r3, [r4, #16]
 80048cc:	2300      	movs	r3, #0
 80048ce:	9a03      	ldr	r2, [sp, #12]
 80048d0:	7013      	strb	r3, [r2, #0]
 80048d2:	e7ac      	b.n	800482e <_printf_i+0x126>
 80048d4:	002a      	movs	r2, r5
 80048d6:	6923      	ldr	r3, [r4, #16]
 80048d8:	9906      	ldr	r1, [sp, #24]
 80048da:	9805      	ldr	r0, [sp, #20]
 80048dc:	9d07      	ldr	r5, [sp, #28]
 80048de:	47a8      	blx	r5
 80048e0:	3001      	adds	r0, #1
 80048e2:	d0ae      	beq.n	8004842 <_printf_i+0x13a>
 80048e4:	6823      	ldr	r3, [r4, #0]
 80048e6:	079b      	lsls	r3, r3, #30
 80048e8:	d415      	bmi.n	8004916 <_printf_i+0x20e>
 80048ea:	9b09      	ldr	r3, [sp, #36]	@ 0x24
 80048ec:	68e0      	ldr	r0, [r4, #12]
 80048ee:	4298      	cmp	r0, r3
 80048f0:	daa9      	bge.n	8004846 <_printf_i+0x13e>
 80048f2:	0018      	movs	r0, r3
 80048f4:	e7a7      	b.n	8004846 <_printf_i+0x13e>
 80048f6:	0022      	movs	r2, r4
 80048f8:	2301      	movs	r3, #1
 80048fa:	9906      	ldr	r1, [sp, #24]
 80048fc:	9805      	ldr	r0, [sp, #20]
 80048fe:	9e07      	ldr	r6, [sp, #28]
 8004900:	3219      	adds	r2, #25
 8004902:	47b0      	blx	r6
 8004904:	3001      	adds	r0, #1
 8004906:	d09c      	beq.n	8004842 <_printf_i+0x13a>
 8004908:	3501      	adds	r5, #1
 800490a:	68e3      	ldr	r3, [r4, #12]
 800490c:	9a09      	ldr	r2, [sp, #36]	@ 0x24
 800490e:	1a9b      	subs	r3, r3, r2
 8004910:	42ab      	cmp	r3, r5
 8004912:	dcf0      	bgt.n	80048f6 <_printf_i+0x1ee>
 8004914:	e7e9      	b.n	80048ea <_printf_i+0x1e2>
 8004916:	2500      	movs	r5, #0
 8004918:	e7f7      	b.n	800490a <_printf_i+0x202>
 800491a:	46c0      	nop			@ (mov r8, r8)
 800491c:	08007381 	.word	0x08007381
 8004920:	08007392 	.word	0x08007392

08004924 <siprintf>:
 8004924:	b40e      	push	{r1, r2, r3}
 8004926:	b500      	push	{lr}
 8004928:	490b      	ldr	r1, [pc, #44]	@ (8004958 <siprintf+0x34>)
 800492a:	b09c      	sub	sp, #112	@ 0x70
 800492c:	ab1d      	add	r3, sp, #116	@ 0x74
 800492e:	9002      	str	r0, [sp, #8]
 8004930:	9006      	str	r0, [sp, #24]
 8004932:	9107      	str	r1, [sp, #28]
 8004934:	9104      	str	r1, [sp, #16]
 8004936:	4809      	ldr	r0, [pc, #36]	@ (800495c <siprintf+0x38>)
 8004938:	4909      	ldr	r1, [pc, #36]	@ (8004960 <siprintf+0x3c>)
 800493a:	cb04      	ldmia	r3!, {r2}
 800493c:	9105      	str	r1, [sp, #20]
 800493e:	6800      	ldr	r0, [r0, #0]
 8004940:	a902      	add	r1, sp, #8
 8004942:	9301      	str	r3, [sp, #4]
 8004944:	f000 fff8 	bl	8005938 <_svfiprintf_r>
 8004948:	2200      	movs	r2, #0
 800494a:	9b02      	ldr	r3, [sp, #8]
 800494c:	701a      	strb	r2, [r3, #0]
 800494e:	b01c      	add	sp, #112	@ 0x70
 8004950:	bc08      	pop	{r3}
 8004952:	b003      	add	sp, #12
 8004954:	4718      	bx	r3
 8004956:	46c0      	nop			@ (mov r8, r8)
 8004958:	7fffffff 	.word	0x7fffffff
 800495c:	20000018 	.word	0x20000018
 8004960:	ffff0208 	.word	0xffff0208

08004964 <std>:
 8004964:	2300      	movs	r3, #0
 8004966:	b510      	push	{r4, lr}
 8004968:	0004      	movs	r4, r0
 800496a:	6003      	str	r3, [r0, #0]
 800496c:	6043      	str	r3, [r0, #4]
 800496e:	6083      	str	r3, [r0, #8]
 8004970:	8181      	strh	r1, [r0, #12]
 8004972:	6643      	str	r3, [r0, #100]	@ 0x64
 8004974:	81c2      	strh	r2, [r0, #14]
 8004976:	6103      	str	r3, [r0, #16]
 8004978:	6143      	str	r3, [r0, #20]
 800497a:	6183      	str	r3, [r0, #24]
 800497c:	0019      	movs	r1, r3
 800497e:	2208      	movs	r2, #8
 8004980:	305c      	adds	r0, #92	@ 0x5c
 8004982:	f000 f8b3 	bl	8004aec <memset>
 8004986:	4b0b      	ldr	r3, [pc, #44]	@ (80049b4 <std+0x50>)
 8004988:	6224      	str	r4, [r4, #32]
 800498a:	6263      	str	r3, [r4, #36]	@ 0x24
 800498c:	4b0a      	ldr	r3, [pc, #40]	@ (80049b8 <std+0x54>)
 800498e:	62a3      	str	r3, [r4, #40]	@ 0x28
 8004990:	4b0a      	ldr	r3, [pc, #40]	@ (80049bc <std+0x58>)
 8004992:	62e3      	str	r3, [r4, #44]	@ 0x2c
 8004994:	4b0a      	ldr	r3, [pc, #40]	@ (80049c0 <std+0x5c>)
 8004996:	6323      	str	r3, [r4, #48]	@ 0x30
 8004998:	4b0a      	ldr	r3, [pc, #40]	@ (80049c4 <std+0x60>)
 800499a:	429c      	cmp	r4, r3
 800499c:	d005      	beq.n	80049aa <std+0x46>
 800499e:	4b0a      	ldr	r3, [pc, #40]	@ (80049c8 <std+0x64>)
 80049a0:	429c      	cmp	r4, r3
 80049a2:	d002      	beq.n	80049aa <std+0x46>
 80049a4:	4b09      	ldr	r3, [pc, #36]	@ (80049cc <std+0x68>)
 80049a6:	429c      	cmp	r4, r3
 80049a8:	d103      	bne.n	80049b2 <std+0x4e>
 80049aa:	0020      	movs	r0, r4
 80049ac:	3058      	adds	r0, #88	@ 0x58
 80049ae:	f000 f8d3 	bl	8004b58 <__retarget_lock_init_recursive>
 80049b2:	bd10      	pop	{r4, pc}
 80049b4:	08006559 	.word	0x08006559
 80049b8:	08006581 	.word	0x08006581
 80049bc:	080065b9 	.word	0x080065b9
 80049c0:	080065e5 	.word	0x080065e5
 80049c4:	200003cc 	.word	0x200003cc
 80049c8:	20000434 	.word	0x20000434
 80049cc:	2000049c 	.word	0x2000049c

080049d0 <stdio_exit_handler>:
 80049d0:	b510      	push	{r4, lr}
 80049d2:	4a03      	ldr	r2, [pc, #12]	@ (80049e0 <stdio_exit_handler+0x10>)
 80049d4:	4903      	ldr	r1, [pc, #12]	@ (80049e4 <stdio_exit_handler+0x14>)
 80049d6:	4804      	ldr	r0, [pc, #16]	@ (80049e8 <stdio_exit_handler+0x18>)
 80049d8:	f000 f86c 	bl	8004ab4 <_fwalk_sglue>
 80049dc:	bd10      	pop	{r4, pc}
 80049de:	46c0      	nop			@ (mov r8, r8)
 80049e0:	2000000c 	.word	0x2000000c
 80049e4:	08005d99 	.word	0x08005d99
 80049e8:	2000001c 	.word	0x2000001c

080049ec <cleanup_stdio>:
 80049ec:	6841      	ldr	r1, [r0, #4]
 80049ee:	4b0b      	ldr	r3, [pc, #44]	@ (8004a1c <cleanup_stdio+0x30>)
 80049f0:	b510      	push	{r4, lr}
 80049f2:	0004      	movs	r4, r0
 80049f4:	4299      	cmp	r1, r3
 80049f6:	d001      	beq.n	80049fc <cleanup_stdio+0x10>
 80049f8:	f001 f9ce 	bl	8005d98 <_fflush_r>
 80049fc:	68a1      	ldr	r1, [r4, #8]
 80049fe:	4b08      	ldr	r3, [pc, #32]	@ (8004a20 <cleanup_stdio+0x34>)
 8004a00:	4299      	cmp	r1, r3
 8004a02:	d002      	beq.n	8004a0a <cleanup_stdio+0x1e>
 8004a04:	0020      	movs	r0, r4
 8004a06:	f001 f9c7 	bl	8005d98 <_fflush_r>
 8004a0a:	68e1      	ldr	r1, [r4, #12]
 8004a0c:	4b05      	ldr	r3, [pc, #20]	@ (8004a24 <cleanup_stdio+0x38>)
 8004a0e:	4299      	cmp	r1, r3
 8004a10:	d002      	beq.n	8004a18 <cleanup_stdio+0x2c>
 8004a12:	0020      	movs	r0, r4
 8004a14:	f001 f9c0 	bl	8005d98 <_fflush_r>
 8004a18:	bd10      	pop	{r4, pc}
 8004a1a:	46c0      	nop			@ (mov r8, r8)
 8004a1c:	200003cc 	.word	0x200003cc
 8004a20:	20000434 	.word	0x20000434
 8004a24:	2000049c 	.word	0x2000049c

08004a28 <global_stdio_init.part.0>:
 8004a28:	b510      	push	{r4, lr}
 8004a2a:	4b09      	ldr	r3, [pc, #36]	@ (8004a50 <global_stdio_init.part.0+0x28>)
 8004a2c:	4a09      	ldr	r2, [pc, #36]	@ (8004a54 <global_stdio_init.part.0+0x2c>)
 8004a2e:	2104      	movs	r1, #4
 8004a30:	601a      	str	r2, [r3, #0]
 8004a32:	4809      	ldr	r0, [pc, #36]	@ (8004a58 <global_stdio_init.part.0+0x30>)
 8004a34:	2200      	movs	r2, #0
 8004a36:	f7ff ff95 	bl	8004964 <std>
 8004a3a:	2201      	movs	r2, #1
 8004a3c:	2109      	movs	r1, #9
 8004a3e:	4807      	ldr	r0, [pc, #28]	@ (8004a5c <global_stdio_init.part.0+0x34>)
 8004a40:	f7ff ff90 	bl	8004964 <std>
 8004a44:	2202      	movs	r2, #2
 8004a46:	2112      	movs	r1, #18
 8004a48:	4805      	ldr	r0, [pc, #20]	@ (8004a60 <global_stdio_init.part.0+0x38>)
 8004a4a:	f7ff ff8b 	bl	8004964 <std>
 8004a4e:	bd10      	pop	{r4, pc}
 8004a50:	20000504 	.word	0x20000504
 8004a54:	080049d1 	.word	0x080049d1
 8004a58:	200003cc 	.word	0x200003cc
 8004a5c:	20000434 	.word	0x20000434
 8004a60:	2000049c 	.word	0x2000049c

08004a64 <__sfp_lock_acquire>:
 8004a64:	b510      	push	{r4, lr}
 8004a66:	4802      	ldr	r0, [pc, #8]	@ (8004a70 <__sfp_lock_acquire+0xc>)
 8004a68:	f000 f877 	bl	8004b5a <__retarget_lock_acquire_recursive>
 8004a6c:	bd10      	pop	{r4, pc}
 8004a6e:	46c0      	nop			@ (mov r8, r8)
 8004a70:	20000509 	.word	0x20000509

08004a74 <__sfp_lock_release>:
 8004a74:	b510      	push	{r4, lr}
 8004a76:	4802      	ldr	r0, [pc, #8]	@ (8004a80 <__sfp_lock_release+0xc>)
 8004a78:	f000 f870 	bl	8004b5c <__retarget_lock_release_recursive>
 8004a7c:	bd10      	pop	{r4, pc}
 8004a7e:	46c0      	nop			@ (mov r8, r8)
 8004a80:	20000509 	.word	0x20000509

08004a84 <__sinit>:
 8004a84:	b510      	push	{r4, lr}
 8004a86:	0004      	movs	r4, r0
 8004a88:	f7ff ffec 	bl	8004a64 <__sfp_lock_acquire>
 8004a8c:	6a23      	ldr	r3, [r4, #32]
 8004a8e:	2b00      	cmp	r3, #0
 8004a90:	d002      	beq.n	8004a98 <__sinit+0x14>
 8004a92:	f7ff ffef 	bl	8004a74 <__sfp_lock_release>
 8004a96:	bd10      	pop	{r4, pc}
 8004a98:	4b04      	ldr	r3, [pc, #16]	@ (8004aac <__sinit+0x28>)
 8004a9a:	6223      	str	r3, [r4, #32]
 8004a9c:	4b04      	ldr	r3, [pc, #16]	@ (8004ab0 <__sinit+0x2c>)
 8004a9e:	681b      	ldr	r3, [r3, #0]
 8004aa0:	2b00      	cmp	r3, #0
 8004aa2:	d1f6      	bne.n	8004a92 <__sinit+0xe>
 8004aa4:	f7ff ffc0 	bl	8004a28 <global_stdio_init.part.0>
 8004aa8:	e7f3      	b.n	8004a92 <__sinit+0xe>
 8004aaa:	46c0      	nop			@ (mov r8, r8)
 8004aac:	080049ed 	.word	0x080049ed
 8004ab0:	20000504 	.word	0x20000504

08004ab4 <_fwalk_sglue>:
 8004ab4:	b5f7      	push	{r0, r1, r2, r4, r5, r6, r7, lr}
 8004ab6:	0014      	movs	r4, r2
 8004ab8:	2600      	movs	r6, #0
 8004aba:	9000      	str	r0, [sp, #0]
 8004abc:	9101      	str	r1, [sp, #4]
 8004abe:	68a5      	ldr	r5, [r4, #8]
 8004ac0:	6867      	ldr	r7, [r4, #4]
 8004ac2:	3f01      	subs	r7, #1
 8004ac4:	d504      	bpl.n	8004ad0 <_fwalk_sglue+0x1c>
 8004ac6:	6824      	ldr	r4, [r4, #0]
 8004ac8:	2c00      	cmp	r4, #0
 8004aca:	d1f8      	bne.n	8004abe <_fwalk_sglue+0xa>
 8004acc:	0030      	movs	r0, r6
 8004ace:	bdfe      	pop	{r1, r2, r3, r4, r5, r6, r7, pc}
 8004ad0:	89ab      	ldrh	r3, [r5, #12]
 8004ad2:	2b01      	cmp	r3, #1
 8004ad4:	d908      	bls.n	8004ae8 <_fwalk_sglue+0x34>
 8004ad6:	220e      	movs	r2, #14
 8004ad8:	5eab      	ldrsh	r3, [r5, r2]
 8004ada:	3301      	adds	r3, #1
 8004adc:	d004      	beq.n	8004ae8 <_fwalk_sglue+0x34>
 8004ade:	0029      	movs	r1, r5
 8004ae0:	9800      	ldr	r0, [sp, #0]
 8004ae2:	9b01      	ldr	r3, [sp, #4]
 8004ae4:	4798      	blx	r3
 8004ae6:	4306      	orrs	r6, r0
 8004ae8:	3568      	adds	r5, #104	@ 0x68
 8004aea:	e7ea      	b.n	8004ac2 <_fwalk_sglue+0xe>

08004aec <memset>:
 8004aec:	0003      	movs	r3, r0
 8004aee:	1882      	adds	r2, r0, r2
 8004af0:	4293      	cmp	r3, r2
 8004af2:	d100      	bne.n	8004af6 <memset+0xa>
 8004af4:	4770      	bx	lr
 8004af6:	7019      	strb	r1, [r3, #0]
 8004af8:	3301      	adds	r3, #1
 8004afa:	e7f9      	b.n	8004af0 <memset+0x4>

08004afc <_localeconv_r>:
 8004afc:	4800      	ldr	r0, [pc, #0]	@ (8004b00 <_localeconv_r+0x4>)
 8004afe:	4770      	bx	lr
 8004b00:	20000158 	.word	0x20000158

08004b04 <__errno>:
 8004b04:	4b01      	ldr	r3, [pc, #4]	@ (8004b0c <__errno+0x8>)
 8004b06:	6818      	ldr	r0, [r3, #0]
 8004b08:	4770      	bx	lr
 8004b0a:	46c0      	nop			@ (mov r8, r8)
 8004b0c:	20000018 	.word	0x20000018

08004b10 <__libc_init_array>:
 8004b10:	b570      	push	{r4, r5, r6, lr}
 8004b12:	2600      	movs	r6, #0
 8004b14:	4c0c      	ldr	r4, [pc, #48]	@ (8004b48 <__libc_init_array+0x38>)
 8004b16:	4d0d      	ldr	r5, [pc, #52]	@ (8004b4c <__libc_init_array+0x3c>)
 8004b18:	1b64      	subs	r4, r4, r5
 8004b1a:	10a4      	asrs	r4, r4, #2
 8004b1c:	42a6      	cmp	r6, r4
 8004b1e:	d109      	bne.n	8004b34 <__libc_init_array+0x24>
 8004b20:	2600      	movs	r6, #0
 8004b22:	f002 fb91 	bl	8007248 <_init>
 8004b26:	4c0a      	ldr	r4, [pc, #40]	@ (8004b50 <__libc_init_array+0x40>)
 8004b28:	4d0a      	ldr	r5, [pc, #40]	@ (8004b54 <__libc_init_array+0x44>)
 8004b2a:	1b64      	subs	r4, r4, r5
 8004b2c:	10a4      	asrs	r4, r4, #2
 8004b2e:	42a6      	cmp	r6, r4
 8004b30:	d105      	bne.n	8004b3e <__libc_init_array+0x2e>
 8004b32:	bd70      	pop	{r4, r5, r6, pc}
 8004b34:	00b3      	lsls	r3, r6, #2
 8004b36:	58eb      	ldr	r3, [r5, r3]
 8004b38:	4798      	blx	r3
 8004b3a:	3601      	adds	r6, #1
 8004b3c:	e7ee      	b.n	8004b1c <__libc_init_array+0xc>
 8004b3e:	00b3      	lsls	r3, r6, #2
 8004b40:	58eb      	ldr	r3, [r5, r3]
 8004b42:	4798      	blx	r3
 8004b44:	3601      	adds	r6, #1
 8004b46:	e7f2      	b.n	8004b2e <__libc_init_array+0x1e>
 8004b48:	080076e0 	.word	0x080076e0
 8004b4c:	080076e0 	.word	0x080076e0
 8004b50:	080076e4 	.word	0x080076e4
 8004b54:	080076e0 	.word	0x080076e0

08004b58 <__retarget_lock_init_recursive>:
 8004b58:	4770      	bx	lr

08004b5a <__retarget_lock_acquire_recursive>:
 8004b5a:	4770      	bx	lr

08004b5c <__retarget_lock_release_recursive>:
 8004b5c:	4770      	bx	lr

08004b5e <memchr>:
 8004b5e:	b2c9      	uxtb	r1, r1
 8004b60:	1882      	adds	r2, r0, r2
 8004b62:	4290      	cmp	r0, r2
 8004b64:	d101      	bne.n	8004b6a <memchr+0xc>
 8004b66:	2000      	movs	r0, #0
 8004b68:	4770      	bx	lr
 8004b6a:	7803      	ldrb	r3, [r0, #0]
 8004b6c:	428b      	cmp	r3, r1
 8004b6e:	d0fb      	beq.n	8004b68 <memchr+0xa>
 8004b70:	3001      	adds	r0, #1
 8004b72:	e7f6      	b.n	8004b62 <memchr+0x4>

08004b74 <quorem>:
 8004b74:	b5f0      	push	{r4, r5, r6, r7, lr}
 8004b76:	6902      	ldr	r2, [r0, #16]
 8004b78:	690f      	ldr	r7, [r1, #16]
 8004b7a:	b087      	sub	sp, #28
 8004b7c:	0006      	movs	r6, r0
 8004b7e:	000b      	movs	r3, r1
 8004b80:	2000      	movs	r0, #0
 8004b82:	9102      	str	r1, [sp, #8]
 8004b84:	42ba      	cmp	r2, r7
 8004b86:	db6d      	blt.n	8004c64 <quorem+0xf0>
 8004b88:	3f01      	subs	r7, #1
 8004b8a:	00bc      	lsls	r4, r7, #2
 8004b8c:	3314      	adds	r3, #20
 8004b8e:	9305      	str	r3, [sp, #20]
 8004b90:	191b      	adds	r3, r3, r4
 8004b92:	9303      	str	r3, [sp, #12]
 8004b94:	0033      	movs	r3, r6
 8004b96:	3314      	adds	r3, #20
 8004b98:	191c      	adds	r4, r3, r4
 8004b9a:	9301      	str	r3, [sp, #4]
 8004b9c:	6823      	ldr	r3, [r4, #0]
 8004b9e:	9304      	str	r3, [sp, #16]
 8004ba0:	9b03      	ldr	r3, [sp, #12]
 8004ba2:	9804      	ldr	r0, [sp, #16]
 8004ba4:	681d      	ldr	r5, [r3, #0]
 8004ba6:	3501      	adds	r5, #1
 8004ba8:	0029      	movs	r1, r5
 8004baa:	f7fb fac9 	bl	8000140 <__udivsi3>
 8004bae:	9b04      	ldr	r3, [sp, #16]
 8004bb0:	9000      	str	r0, [sp, #0]
 8004bb2:	42ab      	cmp	r3, r5
 8004bb4:	d32b      	bcc.n	8004c0e <quorem+0x9a>
 8004bb6:	9b05      	ldr	r3, [sp, #20]
 8004bb8:	9d01      	ldr	r5, [sp, #4]
 8004bba:	469c      	mov	ip, r3
 8004bbc:	2300      	movs	r3, #0
 8004bbe:	9305      	str	r3, [sp, #20]
 8004bc0:	9304      	str	r3, [sp, #16]
 8004bc2:	4662      	mov	r2, ip
 8004bc4:	ca08      	ldmia	r2!, {r3}
 8004bc6:	6828      	ldr	r0, [r5, #0]
 8004bc8:	4694      	mov	ip, r2
 8004bca:	9a00      	ldr	r2, [sp, #0]
 8004bcc:	b299      	uxth	r1, r3
 8004bce:	4351      	muls	r1, r2
 8004bd0:	9a05      	ldr	r2, [sp, #20]
 8004bd2:	0c1b      	lsrs	r3, r3, #16
 8004bd4:	1889      	adds	r1, r1, r2
 8004bd6:	9a00      	ldr	r2, [sp, #0]
 8004bd8:	4353      	muls	r3, r2
 8004bda:	0c0a      	lsrs	r2, r1, #16
 8004bdc:	189b      	adds	r3, r3, r2
 8004bde:	0c1a      	lsrs	r2, r3, #16
 8004be0:	b289      	uxth	r1, r1
 8004be2:	9205      	str	r2, [sp, #20]
 8004be4:	b282      	uxth	r2, r0
 8004be6:	1a52      	subs	r2, r2, r1
 8004be8:	9904      	ldr	r1, [sp, #16]
 8004bea:	0c00      	lsrs	r0, r0, #16
 8004bec:	1852      	adds	r2, r2, r1
 8004bee:	b29b      	uxth	r3, r3
 8004bf0:	1411      	asrs	r1, r2, #16
 8004bf2:	1ac3      	subs	r3, r0, r3
 8004bf4:	185b      	adds	r3, r3, r1
 8004bf6:	1419      	asrs	r1, r3, #16
 8004bf8:	b292      	uxth	r2, r2
 8004bfa:	041b      	lsls	r3, r3, #16
 8004bfc:	431a      	orrs	r2, r3
 8004bfe:	9b03      	ldr	r3, [sp, #12]
 8004c00:	9104      	str	r1, [sp, #16]
 8004c02:	c504      	stmia	r5!, {r2}
 8004c04:	4563      	cmp	r3, ip
 8004c06:	d2dc      	bcs.n	8004bc2 <quorem+0x4e>
 8004c08:	6823      	ldr	r3, [r4, #0]
 8004c0a:	2b00      	cmp	r3, #0
 8004c0c:	d030      	beq.n	8004c70 <quorem+0xfc>
 8004c0e:	0030      	movs	r0, r6
 8004c10:	9902      	ldr	r1, [sp, #8]
 8004c12:	f001 fb8b 	bl	800632c <__mcmp>
 8004c16:	2800      	cmp	r0, #0
 8004c18:	db23      	blt.n	8004c62 <quorem+0xee>
 8004c1a:	0034      	movs	r4, r6
 8004c1c:	2500      	movs	r5, #0
 8004c1e:	9902      	ldr	r1, [sp, #8]
 8004c20:	3414      	adds	r4, #20
 8004c22:	3114      	adds	r1, #20
 8004c24:	6823      	ldr	r3, [r4, #0]
 8004c26:	c901      	ldmia	r1!, {r0}
 8004c28:	9302      	str	r3, [sp, #8]
 8004c2a:	466b      	mov	r3, sp
 8004c2c:	891b      	ldrh	r3, [r3, #8]
 8004c2e:	b282      	uxth	r2, r0
 8004c30:	1a9a      	subs	r2, r3, r2
 8004c32:	9b02      	ldr	r3, [sp, #8]
 8004c34:	1952      	adds	r2, r2, r5
 8004c36:	0c00      	lsrs	r0, r0, #16
 8004c38:	0c1b      	lsrs	r3, r3, #16
 8004c3a:	1a1b      	subs	r3, r3, r0
 8004c3c:	1410      	asrs	r0, r2, #16
 8004c3e:	181b      	adds	r3, r3, r0
 8004c40:	141d      	asrs	r5, r3, #16
 8004c42:	b292      	uxth	r2, r2
 8004c44:	041b      	lsls	r3, r3, #16
 8004c46:	431a      	orrs	r2, r3
 8004c48:	9b03      	ldr	r3, [sp, #12]
 8004c4a:	c404      	stmia	r4!, {r2}
 8004c4c:	428b      	cmp	r3, r1
 8004c4e:	d2e9      	bcs.n	8004c24 <quorem+0xb0>
 8004c50:	9a01      	ldr	r2, [sp, #4]
 8004c52:	00bb      	lsls	r3, r7, #2
 8004c54:	18d3      	adds	r3, r2, r3
 8004c56:	681a      	ldr	r2, [r3, #0]
 8004c58:	2a00      	cmp	r2, #0
 8004c5a:	d013      	beq.n	8004c84 <quorem+0x110>
 8004c5c:	9b00      	ldr	r3, [sp, #0]
 8004c5e:	3301      	adds	r3, #1
 8004c60:	9300      	str	r3, [sp, #0]
 8004c62:	9800      	ldr	r0, [sp, #0]
 8004c64:	b007      	add	sp, #28
 8004c66:	bdf0      	pop	{r4, r5, r6, r7, pc}
 8004c68:	6823      	ldr	r3, [r4, #0]
 8004c6a:	2b00      	cmp	r3, #0
 8004c6c:	d104      	bne.n	8004c78 <quorem+0x104>
 8004c6e:	3f01      	subs	r7, #1
 8004c70:	9b01      	ldr	r3, [sp, #4]
 8004c72:	3c04      	subs	r4, #4
 8004c74:	42a3      	cmp	r3, r4
 8004c76:	d3f7      	bcc.n	8004c68 <quorem+0xf4>
 8004c78:	6137      	str	r7, [r6, #16]
 8004c7a:	e7c8      	b.n	8004c0e <quorem+0x9a>
 8004c7c:	681a      	ldr	r2, [r3, #0]
 8004c7e:	2a00      	cmp	r2, #0
 8004c80:	d104      	bne.n	8004c8c <quorem+0x118>
 8004c82:	3f01      	subs	r7, #1
 8004c84:	9a01      	ldr	r2, [sp, #4]
 8004c86:	3b04      	subs	r3, #4
 8004c88:	429a      	cmp	r2, r3
 8004c8a:	d3f7      	bcc.n	8004c7c <quorem+0x108>
 8004c8c:	6137      	str	r7, [r6, #16]
 8004c8e:	e7e5      	b.n	8004c5c <quorem+0xe8>

08004c90 <_dtoa_r>:
 8004c90:	b5f0      	push	{r4, r5, r6, r7, lr}
 8004c92:	0014      	movs	r4, r2
 8004c94:	001d      	movs	r5, r3
 8004c96:	69c6      	ldr	r6, [r0, #28]
 8004c98:	b09d      	sub	sp, #116	@ 0x74
 8004c9a:	940a      	str	r4, [sp, #40]	@ 0x28
 8004c9c:	950b      	str	r5, [sp, #44]	@ 0x2c
 8004c9e:	9f25      	ldr	r7, [sp, #148]	@ 0x94
 8004ca0:	9003      	str	r0, [sp, #12]
 8004ca2:	2e00      	cmp	r6, #0
 8004ca4:	d10f      	bne.n	8004cc6 <_dtoa_r+0x36>
 8004ca6:	2010      	movs	r0, #16
 8004ca8:	f000 ff44 	bl	8005b34 <malloc>
 8004cac:	9b03      	ldr	r3, [sp, #12]
 8004cae:	1e02      	subs	r2, r0, #0
 8004cb0:	61d8      	str	r0, [r3, #28]
 8004cb2:	d104      	bne.n	8004cbe <_dtoa_r+0x2e>
 8004cb4:	21ef      	movs	r1, #239	@ 0xef
 8004cb6:	4bc7      	ldr	r3, [pc, #796]	@ (8004fd4 <_dtoa_r+0x344>)
 8004cb8:	48c7      	ldr	r0, [pc, #796]	@ (8004fd8 <_dtoa_r+0x348>)
 8004cba:	f001 fd45 	bl	8006748 <__assert_func>
 8004cbe:	6046      	str	r6, [r0, #4]
 8004cc0:	6086      	str	r6, [r0, #8]
 8004cc2:	6006      	str	r6, [r0, #0]
 8004cc4:	60c6      	str	r6, [r0, #12]
 8004cc6:	9b03      	ldr	r3, [sp, #12]
 8004cc8:	69db      	ldr	r3, [r3, #28]
 8004cca:	6819      	ldr	r1, [r3, #0]
 8004ccc:	2900      	cmp	r1, #0
 8004cce:	d00b      	beq.n	8004ce8 <_dtoa_r+0x58>
 8004cd0:	685a      	ldr	r2, [r3, #4]
 8004cd2:	2301      	movs	r3, #1
 8004cd4:	4093      	lsls	r3, r2
 8004cd6:	604a      	str	r2, [r1, #4]
 8004cd8:	608b      	str	r3, [r1, #8]
 8004cda:	9803      	ldr	r0, [sp, #12]
 8004cdc:	f001 f8dc 	bl	8005e98 <_Bfree>
 8004ce0:	2200      	movs	r2, #0
 8004ce2:	9b03      	ldr	r3, [sp, #12]
 8004ce4:	69db      	ldr	r3, [r3, #28]
 8004ce6:	601a      	str	r2, [r3, #0]
 8004ce8:	2d00      	cmp	r5, #0
 8004cea:	da1e      	bge.n	8004d2a <_dtoa_r+0x9a>
 8004cec:	2301      	movs	r3, #1
 8004cee:	603b      	str	r3, [r7, #0]
 8004cf0:	006b      	lsls	r3, r5, #1
 8004cf2:	085b      	lsrs	r3, r3, #1
 8004cf4:	930b      	str	r3, [sp, #44]	@ 0x2c
 8004cf6:	9f0b      	ldr	r7, [sp, #44]	@ 0x2c
 8004cf8:	4bb8      	ldr	r3, [pc, #736]	@ (8004fdc <_dtoa_r+0x34c>)
 8004cfa:	4ab8      	ldr	r2, [pc, #736]	@ (8004fdc <_dtoa_r+0x34c>)
 8004cfc:	403b      	ands	r3, r7
 8004cfe:	4293      	cmp	r3, r2
 8004d00:	d116      	bne.n	8004d30 <_dtoa_r+0xa0>
 8004d02:	4bb7      	ldr	r3, [pc, #732]	@ (8004fe0 <_dtoa_r+0x350>)
 8004d04:	9a24      	ldr	r2, [sp, #144]	@ 0x90
 8004d06:	6013      	str	r3, [r2, #0]
 8004d08:	033b      	lsls	r3, r7, #12
 8004d0a:	0b1b      	lsrs	r3, r3, #12
 8004d0c:	4323      	orrs	r3, r4
 8004d0e:	d101      	bne.n	8004d14 <_dtoa_r+0x84>
 8004d10:	f000 fd83 	bl	800581a <_dtoa_r+0xb8a>
 8004d14:	4bb3      	ldr	r3, [pc, #716]	@ (8004fe4 <_dtoa_r+0x354>)
 8004d16:	9a26      	ldr	r2, [sp, #152]	@ 0x98
 8004d18:	9308      	str	r3, [sp, #32]
 8004d1a:	2a00      	cmp	r2, #0
 8004d1c:	d002      	beq.n	8004d24 <_dtoa_r+0x94>
 8004d1e:	4bb2      	ldr	r3, [pc, #712]	@ (8004fe8 <_dtoa_r+0x358>)
 8004d20:	9a26      	ldr	r2, [sp, #152]	@ 0x98
 8004d22:	6013      	str	r3, [r2, #0]
 8004d24:	9808      	ldr	r0, [sp, #32]
 8004d26:	b01d      	add	sp, #116	@ 0x74
 8004d28:	bdf0      	pop	{r4, r5, r6, r7, pc}
 8004d2a:	2300      	movs	r3, #0
 8004d2c:	603b      	str	r3, [r7, #0]
 8004d2e:	e7e2      	b.n	8004cf6 <_dtoa_r+0x66>
 8004d30:	9a0a      	ldr	r2, [sp, #40]	@ 0x28
 8004d32:	9b0b      	ldr	r3, [sp, #44]	@ 0x2c
 8004d34:	9212      	str	r2, [sp, #72]	@ 0x48
 8004d36:	9313      	str	r3, [sp, #76]	@ 0x4c
 8004d38:	9812      	ldr	r0, [sp, #72]	@ 0x48
 8004d3a:	9913      	ldr	r1, [sp, #76]	@ 0x4c
 8004d3c:	2200      	movs	r2, #0
 8004d3e:	2300      	movs	r3, #0
 8004d40:	f7fb fb84 	bl	800044c <__aeabi_dcmpeq>
 8004d44:	1e06      	subs	r6, r0, #0
 8004d46:	d00b      	beq.n	8004d60 <_dtoa_r+0xd0>
 8004d48:	2301      	movs	r3, #1
 8004d4a:	9a24      	ldr	r2, [sp, #144]	@ 0x90
 8004d4c:	6013      	str	r3, [r2, #0]
 8004d4e:	9b26      	ldr	r3, [sp, #152]	@ 0x98
 8004d50:	2b00      	cmp	r3, #0
 8004d52:	d002      	beq.n	8004d5a <_dtoa_r+0xca>
 8004d54:	4ba5      	ldr	r3, [pc, #660]	@ (8004fec <_dtoa_r+0x35c>)
 8004d56:	9a26      	ldr	r2, [sp, #152]	@ 0x98
 8004d58:	6013      	str	r3, [r2, #0]
 8004d5a:	4ba5      	ldr	r3, [pc, #660]	@ (8004ff0 <_dtoa_r+0x360>)
 8004d5c:	9308      	str	r3, [sp, #32]
 8004d5e:	e7e1      	b.n	8004d24 <_dtoa_r+0x94>
 8004d60:	ab1a      	add	r3, sp, #104	@ 0x68
 8004d62:	9301      	str	r3, [sp, #4]
 8004d64:	ab1b      	add	r3, sp, #108	@ 0x6c
 8004d66:	9300      	str	r3, [sp, #0]
 8004d68:	9803      	ldr	r0, [sp, #12]
 8004d6a:	9a12      	ldr	r2, [sp, #72]	@ 0x48
 8004d6c:	9b13      	ldr	r3, [sp, #76]	@ 0x4c
 8004d6e:	f001 fb93 	bl	8006498 <__d2b>
 8004d72:	007a      	lsls	r2, r7, #1
 8004d74:	9005      	str	r0, [sp, #20]
 8004d76:	0d52      	lsrs	r2, r2, #21
 8004d78:	d100      	bne.n	8004d7c <_dtoa_r+0xec>
 8004d7a:	e07b      	b.n	8004e74 <_dtoa_r+0x1e4>
 8004d7c:	9b13      	ldr	r3, [sp, #76]	@ 0x4c
 8004d7e:	9618      	str	r6, [sp, #96]	@ 0x60
 8004d80:	0319      	lsls	r1, r3, #12
 8004d82:	4b9c      	ldr	r3, [pc, #624]	@ (8004ff4 <_dtoa_r+0x364>)
 8004d84:	0b09      	lsrs	r1, r1, #12
 8004d86:	430b      	orrs	r3, r1
 8004d88:	499b      	ldr	r1, [pc, #620]	@ (8004ff8 <_dtoa_r+0x368>)
 8004d8a:	1857      	adds	r7, r2, r1
 8004d8c:	9812      	ldr	r0, [sp, #72]	@ 0x48
 8004d8e:	9913      	ldr	r1, [sp, #76]	@ 0x4c
 8004d90:	0019      	movs	r1, r3
 8004d92:	2200      	movs	r2, #0
 8004d94:	4b99      	ldr	r3, [pc, #612]	@ (8004ffc <_dtoa_r+0x36c>)
 8004d96:	f7fc ff59 	bl	8001c4c <__aeabi_dsub>
 8004d9a:	4a99      	ldr	r2, [pc, #612]	@ (8005000 <_dtoa_r+0x370>)
 8004d9c:	4b99      	ldr	r3, [pc, #612]	@ (8005004 <_dtoa_r+0x374>)
 8004d9e:	f7fc fc8d 	bl	80016bc <__aeabi_dmul>
 8004da2:	4a99      	ldr	r2, [pc, #612]	@ (8005008 <_dtoa_r+0x378>)
 8004da4:	4b99      	ldr	r3, [pc, #612]	@ (800500c <_dtoa_r+0x37c>)
 8004da6:	f7fb fce1 	bl	800076c <__aeabi_dadd>
 8004daa:	0004      	movs	r4, r0
 8004dac:	0038      	movs	r0, r7
 8004dae:	000d      	movs	r5, r1
 8004db0:	f7fd fb46 	bl	8002440 <__aeabi_i2d>
 8004db4:	4a96      	ldr	r2, [pc, #600]	@ (8005010 <_dtoa_r+0x380>)
 8004db6:	4b97      	ldr	r3, [pc, #604]	@ (8005014 <_dtoa_r+0x384>)
 8004db8:	f7fc fc80 	bl	80016bc <__aeabi_dmul>
 8004dbc:	0002      	movs	r2, r0
 8004dbe:	000b      	movs	r3, r1
 8004dc0:	0020      	movs	r0, r4
 8004dc2:	0029      	movs	r1, r5
 8004dc4:	f7fb fcd2 	bl	800076c <__aeabi_dadd>
 8004dc8:	0004      	movs	r4, r0
 8004dca:	000d      	movs	r5, r1
 8004dcc:	f7fd fafc 	bl	80023c8 <__aeabi_d2iz>
 8004dd0:	2200      	movs	r2, #0
 8004dd2:	9004      	str	r0, [sp, #16]
 8004dd4:	2300      	movs	r3, #0
 8004dd6:	0020      	movs	r0, r4
 8004dd8:	0029      	movs	r1, r5
 8004dda:	f7fb fb3d 	bl	8000458 <__aeabi_dcmplt>
 8004dde:	2800      	cmp	r0, #0
 8004de0:	d00b      	beq.n	8004dfa <_dtoa_r+0x16a>
 8004de2:	9804      	ldr	r0, [sp, #16]
 8004de4:	f7fd fb2c 	bl	8002440 <__aeabi_i2d>
 8004de8:	002b      	movs	r3, r5
 8004dea:	0022      	movs	r2, r4
 8004dec:	f7fb fb2e 	bl	800044c <__aeabi_dcmpeq>
 8004df0:	4243      	negs	r3, r0
 8004df2:	4158      	adcs	r0, r3
 8004df4:	9b04      	ldr	r3, [sp, #16]
 8004df6:	1a1b      	subs	r3, r3, r0
 8004df8:	9304      	str	r3, [sp, #16]
 8004dfa:	2301      	movs	r3, #1
 8004dfc:	9315      	str	r3, [sp, #84]	@ 0x54
 8004dfe:	9b04      	ldr	r3, [sp, #16]
 8004e00:	2b16      	cmp	r3, #22
 8004e02:	d810      	bhi.n	8004e26 <_dtoa_r+0x196>
 8004e04:	9812      	ldr	r0, [sp, #72]	@ 0x48
 8004e06:	9913      	ldr	r1, [sp, #76]	@ 0x4c
 8004e08:	9a04      	ldr	r2, [sp, #16]
 8004e0a:	4b83      	ldr	r3, [pc, #524]	@ (8005018 <_dtoa_r+0x388>)
 8004e0c:	00d2      	lsls	r2, r2, #3
 8004e0e:	189b      	adds	r3, r3, r2
 8004e10:	681a      	ldr	r2, [r3, #0]
 8004e12:	685b      	ldr	r3, [r3, #4]
 8004e14:	f7fb fb20 	bl	8000458 <__aeabi_dcmplt>
 8004e18:	2800      	cmp	r0, #0
 8004e1a:	d047      	beq.n	8004eac <_dtoa_r+0x21c>
 8004e1c:	9b04      	ldr	r3, [sp, #16]
 8004e1e:	3b01      	subs	r3, #1
 8004e20:	9304      	str	r3, [sp, #16]
 8004e22:	2300      	movs	r3, #0
 8004e24:	9315      	str	r3, [sp, #84]	@ 0x54
 8004e26:	2200      	movs	r2, #0
 8004e28:	9b1a      	ldr	r3, [sp, #104]	@ 0x68
 8004e2a:	9206      	str	r2, [sp, #24]
 8004e2c:	1bdb      	subs	r3, r3, r7
 8004e2e:	1e5a      	subs	r2, r3, #1
 8004e30:	d53e      	bpl.n	8004eb0 <_dtoa_r+0x220>
 8004e32:	2201      	movs	r2, #1
 8004e34:	1ad3      	subs	r3, r2, r3
 8004e36:	9306      	str	r3, [sp, #24]
 8004e38:	2300      	movs	r3, #0
 8004e3a:	930d      	str	r3, [sp, #52]	@ 0x34
 8004e3c:	9b04      	ldr	r3, [sp, #16]
 8004e3e:	2b00      	cmp	r3, #0
 8004e40:	db38      	blt.n	8004eb4 <_dtoa_r+0x224>
 8004e42:	9a04      	ldr	r2, [sp, #16]
 8004e44:	9b0d      	ldr	r3, [sp, #52]	@ 0x34
 8004e46:	4694      	mov	ip, r2
 8004e48:	4463      	add	r3, ip
 8004e4a:	930d      	str	r3, [sp, #52]	@ 0x34
 8004e4c:	2300      	movs	r3, #0
 8004e4e:	9214      	str	r2, [sp, #80]	@ 0x50
 8004e50:	930f      	str	r3, [sp, #60]	@ 0x3c
 8004e52:	9b22      	ldr	r3, [sp, #136]	@ 0x88
 8004e54:	2401      	movs	r4, #1
 8004e56:	2b09      	cmp	r3, #9
 8004e58:	d867      	bhi.n	8004f2a <_dtoa_r+0x29a>
 8004e5a:	2b05      	cmp	r3, #5
 8004e5c:	dd02      	ble.n	8004e64 <_dtoa_r+0x1d4>
 8004e5e:	2400      	movs	r4, #0
 8004e60:	3b04      	subs	r3, #4
 8004e62:	9322      	str	r3, [sp, #136]	@ 0x88
 8004e64:	9b22      	ldr	r3, [sp, #136]	@ 0x88
 8004e66:	1e98      	subs	r0, r3, #2
 8004e68:	2803      	cmp	r0, #3
 8004e6a:	d867      	bhi.n	8004f3c <_dtoa_r+0x2ac>
 8004e6c:	f7fb f954 	bl	8000118 <__gnu_thumb1_case_uqi>
 8004e70:	5b383a2b 	.word	0x5b383a2b
 8004e74:	9b1b      	ldr	r3, [sp, #108]	@ 0x6c
 8004e76:	9e1a      	ldr	r6, [sp, #104]	@ 0x68
 8004e78:	18f6      	adds	r6, r6, r3
 8004e7a:	4b68      	ldr	r3, [pc, #416]	@ (800501c <_dtoa_r+0x38c>)
 8004e7c:	18f2      	adds	r2, r6, r3
 8004e7e:	2a20      	cmp	r2, #32
 8004e80:	dd0f      	ble.n	8004ea2 <_dtoa_r+0x212>
 8004e82:	2340      	movs	r3, #64	@ 0x40
 8004e84:	1a9b      	subs	r3, r3, r2
 8004e86:	409f      	lsls	r7, r3
 8004e88:	4b65      	ldr	r3, [pc, #404]	@ (8005020 <_dtoa_r+0x390>)
 8004e8a:	0038      	movs	r0, r7
 8004e8c:	18f3      	adds	r3, r6, r3
 8004e8e:	40dc      	lsrs	r4, r3
 8004e90:	4320      	orrs	r0, r4
 8004e92:	f7fd fb03 	bl	800249c <__aeabi_ui2d>
 8004e96:	2201      	movs	r2, #1
 8004e98:	4b62      	ldr	r3, [pc, #392]	@ (8005024 <_dtoa_r+0x394>)
 8004e9a:	1e77      	subs	r7, r6, #1
 8004e9c:	18cb      	adds	r3, r1, r3
 8004e9e:	9218      	str	r2, [sp, #96]	@ 0x60
 8004ea0:	e776      	b.n	8004d90 <_dtoa_r+0x100>
 8004ea2:	2320      	movs	r3, #32
 8004ea4:	0020      	movs	r0, r4
 8004ea6:	1a9b      	subs	r3, r3, r2
 8004ea8:	4098      	lsls	r0, r3
 8004eaa:	e7f2      	b.n	8004e92 <_dtoa_r+0x202>
 8004eac:	9015      	str	r0, [sp, #84]	@ 0x54
 8004eae:	e7ba      	b.n	8004e26 <_dtoa_r+0x196>
 8004eb0:	920d      	str	r2, [sp, #52]	@ 0x34
 8004eb2:	e7c3      	b.n	8004e3c <_dtoa_r+0x1ac>
 8004eb4:	9b06      	ldr	r3, [sp, #24]
 8004eb6:	9a04      	ldr	r2, [sp, #16]
 8004eb8:	1a9b      	subs	r3, r3, r2
 8004eba:	9306      	str	r3, [sp, #24]
 8004ebc:	4253      	negs	r3, r2
 8004ebe:	930f      	str	r3, [sp, #60]	@ 0x3c
 8004ec0:	2300      	movs	r3, #0
 8004ec2:	9314      	str	r3, [sp, #80]	@ 0x50
 8004ec4:	e7c5      	b.n	8004e52 <_dtoa_r+0x1c2>
 8004ec6:	2300      	movs	r3, #0
 8004ec8:	9310      	str	r3, [sp, #64]	@ 0x40
 8004eca:	9b23      	ldr	r3, [sp, #140]	@ 0x8c
 8004ecc:	930e      	str	r3, [sp, #56]	@ 0x38
 8004ece:	9309      	str	r3, [sp, #36]	@ 0x24
 8004ed0:	2b00      	cmp	r3, #0
 8004ed2:	dc13      	bgt.n	8004efc <_dtoa_r+0x26c>
 8004ed4:	2301      	movs	r3, #1
 8004ed6:	001a      	movs	r2, r3
 8004ed8:	930e      	str	r3, [sp, #56]	@ 0x38
 8004eda:	9309      	str	r3, [sp, #36]	@ 0x24
 8004edc:	9223      	str	r2, [sp, #140]	@ 0x8c
 8004ede:	e00d      	b.n	8004efc <_dtoa_r+0x26c>
 8004ee0:	2301      	movs	r3, #1
 8004ee2:	e7f1      	b.n	8004ec8 <_dtoa_r+0x238>
 8004ee4:	2300      	movs	r3, #0
 8004ee6:	9a23      	ldr	r2, [sp, #140]	@ 0x8c
 8004ee8:	9310      	str	r3, [sp, #64]	@ 0x40
 8004eea:	4694      	mov	ip, r2
 8004eec:	9b04      	ldr	r3, [sp, #16]
 8004eee:	4463      	add	r3, ip
 8004ef0:	930e      	str	r3, [sp, #56]	@ 0x38
 8004ef2:	3301      	adds	r3, #1
 8004ef4:	9309      	str	r3, [sp, #36]	@ 0x24
 8004ef6:	2b00      	cmp	r3, #0
 8004ef8:	dc00      	bgt.n	8004efc <_dtoa_r+0x26c>
 8004efa:	2301      	movs	r3, #1
 8004efc:	9a03      	ldr	r2, [sp, #12]
 8004efe:	2100      	movs	r1, #0
 8004f00:	69d0      	ldr	r0, [r2, #28]
 8004f02:	2204      	movs	r2, #4
 8004f04:	0015      	movs	r5, r2
 8004f06:	3514      	adds	r5, #20
 8004f08:	429d      	cmp	r5, r3
 8004f0a:	d91b      	bls.n	8004f44 <_dtoa_r+0x2b4>
 8004f0c:	6041      	str	r1, [r0, #4]
 8004f0e:	9803      	ldr	r0, [sp, #12]
 8004f10:	f000 ff7e 	bl	8005e10 <_Balloc>
 8004f14:	9008      	str	r0, [sp, #32]
 8004f16:	2800      	cmp	r0, #0
 8004f18:	d117      	bne.n	8004f4a <_dtoa_r+0x2ba>
 8004f1a:	21b0      	movs	r1, #176	@ 0xb0
 8004f1c:	4b42      	ldr	r3, [pc, #264]	@ (8005028 <_dtoa_r+0x398>)
 8004f1e:	482e      	ldr	r0, [pc, #184]	@ (8004fd8 <_dtoa_r+0x348>)
 8004f20:	9a08      	ldr	r2, [sp, #32]
 8004f22:	31ff      	adds	r1, #255	@ 0xff
 8004f24:	e6c9      	b.n	8004cba <_dtoa_r+0x2a>
 8004f26:	2301      	movs	r3, #1
 8004f28:	e7dd      	b.n	8004ee6 <_dtoa_r+0x256>
 8004f2a:	2300      	movs	r3, #0
 8004f2c:	9410      	str	r4, [sp, #64]	@ 0x40
 8004f2e:	9322      	str	r3, [sp, #136]	@ 0x88
 8004f30:	3b01      	subs	r3, #1
 8004f32:	930e      	str	r3, [sp, #56]	@ 0x38
 8004f34:	9309      	str	r3, [sp, #36]	@ 0x24
 8004f36:	2200      	movs	r2, #0
 8004f38:	3313      	adds	r3, #19
 8004f3a:	e7cf      	b.n	8004edc <_dtoa_r+0x24c>
 8004f3c:	2301      	movs	r3, #1
 8004f3e:	9310      	str	r3, [sp, #64]	@ 0x40
 8004f40:	3b02      	subs	r3, #2
 8004f42:	e7f6      	b.n	8004f32 <_dtoa_r+0x2a2>
 8004f44:	3101      	adds	r1, #1
 8004f46:	0052      	lsls	r2, r2, #1
 8004f48:	e7dc      	b.n	8004f04 <_dtoa_r+0x274>
 8004f4a:	9b03      	ldr	r3, [sp, #12]
 8004f4c:	9a08      	ldr	r2, [sp, #32]
 8004f4e:	69db      	ldr	r3, [r3, #28]
 8004f50:	601a      	str	r2, [r3, #0]
 8004f52:	9b09      	ldr	r3, [sp, #36]	@ 0x24
 8004f54:	2b0e      	cmp	r3, #14
 8004f56:	d900      	bls.n	8004f5a <_dtoa_r+0x2ca>
 8004f58:	e0d9      	b.n	800510e <_dtoa_r+0x47e>
 8004f5a:	2c00      	cmp	r4, #0
 8004f5c:	d100      	bne.n	8004f60 <_dtoa_r+0x2d0>
 8004f5e:	e0d6      	b.n	800510e <_dtoa_r+0x47e>
 8004f60:	9b04      	ldr	r3, [sp, #16]
 8004f62:	2b00      	cmp	r3, #0
 8004f64:	dd64      	ble.n	8005030 <_dtoa_r+0x3a0>
 8004f66:	210f      	movs	r1, #15
 8004f68:	9a04      	ldr	r2, [sp, #16]
 8004f6a:	4b2b      	ldr	r3, [pc, #172]	@ (8005018 <_dtoa_r+0x388>)
 8004f6c:	400a      	ands	r2, r1
 8004f6e:	00d2      	lsls	r2, r2, #3
 8004f70:	189b      	adds	r3, r3, r2
 8004f72:	681e      	ldr	r6, [r3, #0]
 8004f74:	685f      	ldr	r7, [r3, #4]
 8004f76:	9b04      	ldr	r3, [sp, #16]
 8004f78:	2402      	movs	r4, #2
 8004f7a:	111d      	asrs	r5, r3, #4
 8004f7c:	05db      	lsls	r3, r3, #23
 8004f7e:	d50a      	bpl.n	8004f96 <_dtoa_r+0x306>
 8004f80:	4b2a      	ldr	r3, [pc, #168]	@ (800502c <_dtoa_r+0x39c>)
 8004f82:	400d      	ands	r5, r1
 8004f84:	6a1a      	ldr	r2, [r3, #32]
 8004f86:	6a5b      	ldr	r3, [r3, #36]	@ 0x24
 8004f88:	9812      	ldr	r0, [sp, #72]	@ 0x48
 8004f8a:	9913      	ldr	r1, [sp, #76]	@ 0x4c
 8004f8c:	f7fb ff52 	bl	8000e34 <__aeabi_ddiv>
 8004f90:	900a      	str	r0, [sp, #40]	@ 0x28
 8004f92:	910b      	str	r1, [sp, #44]	@ 0x2c
 8004f94:	3401      	adds	r4, #1
 8004f96:	4b25      	ldr	r3, [pc, #148]	@ (800502c <_dtoa_r+0x39c>)
 8004f98:	930c      	str	r3, [sp, #48]	@ 0x30
 8004f9a:	2d00      	cmp	r5, #0
 8004f9c:	d108      	bne.n	8004fb0 <_dtoa_r+0x320>
 8004f9e:	980a      	ldr	r0, [sp, #40]	@ 0x28
 8004fa0:	990b      	ldr	r1, [sp, #44]	@ 0x2c
 8004fa2:	0032      	movs	r2, r6
 8004fa4:	003b      	movs	r3, r7
 8004fa6:	f7fb ff45 	bl	8000e34 <__aeabi_ddiv>
 8004faa:	900a      	str	r0, [sp, #40]	@ 0x28
 8004fac:	910b      	str	r1, [sp, #44]	@ 0x2c
 8004fae:	e05a      	b.n	8005066 <_dtoa_r+0x3d6>
 8004fb0:	2301      	movs	r3, #1
 8004fb2:	421d      	tst	r5, r3
 8004fb4:	d009      	beq.n	8004fca <_dtoa_r+0x33a>
 8004fb6:	18e4      	adds	r4, r4, r3
 8004fb8:	9b0c      	ldr	r3, [sp, #48]	@ 0x30
 8004fba:	0030      	movs	r0, r6
 8004fbc:	681a      	ldr	r2, [r3, #0]
 8004fbe:	685b      	ldr	r3, [r3, #4]
 8004fc0:	0039      	movs	r1, r7
 8004fc2:	f7fc fb7b 	bl	80016bc <__aeabi_dmul>
 8004fc6:	0006      	movs	r6, r0
 8004fc8:	000f      	movs	r7, r1
 8004fca:	9b0c      	ldr	r3, [sp, #48]	@ 0x30
 8004fcc:	106d      	asrs	r5, r5, #1
 8004fce:	3308      	adds	r3, #8
 8004fd0:	e7e2      	b.n	8004f98 <_dtoa_r+0x308>
 8004fd2:	46c0      	nop			@ (mov r8, r8)
 8004fd4:	080073b0 	.word	0x080073b0
 8004fd8:	080073c7 	.word	0x080073c7
 8004fdc:	7ff00000 	.word	0x7ff00000
 8004fe0:	0000270f 	.word	0x0000270f
 8004fe4:	080073ac 	.word	0x080073ac
 8004fe8:	080073af 	.word	0x080073af
 8004fec:	08007380 	.word	0x08007380
 8004ff0:	0800737f 	.word	0x0800737f
 8004ff4:	3ff00000 	.word	0x3ff00000
 8004ff8:	fffffc01 	.word	0xfffffc01
 8004ffc:	3ff80000 	.word	0x3ff80000
 8005000:	636f4361 	.word	0x636f4361
 8005004:	3fd287a7 	.word	0x3fd287a7
 8005008:	8b60c8b3 	.word	0x8b60c8b3
 800500c:	3fc68a28 	.word	0x3fc68a28
 8005010:	509f79fb 	.word	0x509f79fb
 8005014:	3fd34413 	.word	0x3fd34413
 8005018:	080074d0 	.word	0x080074d0
 800501c:	00000432 	.word	0x00000432
 8005020:	00000412 	.word	0x00000412
 8005024:	fe100000 	.word	0xfe100000
 8005028:	0800741f 	.word	0x0800741f
 800502c:	080074a8 	.word	0x080074a8
 8005030:	9b04      	ldr	r3, [sp, #16]
 8005032:	2402      	movs	r4, #2
 8005034:	2b00      	cmp	r3, #0
 8005036:	d016      	beq.n	8005066 <_dtoa_r+0x3d6>
 8005038:	9812      	ldr	r0, [sp, #72]	@ 0x48
 800503a:	9913      	ldr	r1, [sp, #76]	@ 0x4c
 800503c:	220f      	movs	r2, #15
 800503e:	425d      	negs	r5, r3
 8005040:	402a      	ands	r2, r5
 8005042:	4bd7      	ldr	r3, [pc, #860]	@ (80053a0 <_dtoa_r+0x710>)
 8005044:	00d2      	lsls	r2, r2, #3
 8005046:	189b      	adds	r3, r3, r2
 8005048:	681a      	ldr	r2, [r3, #0]
 800504a:	685b      	ldr	r3, [r3, #4]
 800504c:	f7fc fb36 	bl	80016bc <__aeabi_dmul>
 8005050:	2701      	movs	r7, #1
 8005052:	2300      	movs	r3, #0
 8005054:	900a      	str	r0, [sp, #40]	@ 0x28
 8005056:	910b      	str	r1, [sp, #44]	@ 0x2c
 8005058:	4ed2      	ldr	r6, [pc, #840]	@ (80053a4 <_dtoa_r+0x714>)
 800505a:	112d      	asrs	r5, r5, #4
 800505c:	2d00      	cmp	r5, #0
 800505e:	d000      	beq.n	8005062 <_dtoa_r+0x3d2>
 8005060:	e0ba      	b.n	80051d8 <_dtoa_r+0x548>
 8005062:	2b00      	cmp	r3, #0
 8005064:	d1a1      	bne.n	8004faa <_dtoa_r+0x31a>
 8005066:	9e0a      	ldr	r6, [sp, #40]	@ 0x28
 8005068:	9f0b      	ldr	r7, [sp, #44]	@ 0x2c
 800506a:	9b15      	ldr	r3, [sp, #84]	@ 0x54
 800506c:	2b00      	cmp	r3, #0
 800506e:	d100      	bne.n	8005072 <_dtoa_r+0x3e2>
 8005070:	e0bd      	b.n	80051ee <_dtoa_r+0x55e>
 8005072:	2200      	movs	r2, #0
 8005074:	0030      	movs	r0, r6
 8005076:	0039      	movs	r1, r7
 8005078:	4bcb      	ldr	r3, [pc, #812]	@ (80053a8 <_dtoa_r+0x718>)
 800507a:	f7fb f9ed 	bl	8000458 <__aeabi_dcmplt>
 800507e:	2800      	cmp	r0, #0
 8005080:	d100      	bne.n	8005084 <_dtoa_r+0x3f4>
 8005082:	e0b4      	b.n	80051ee <_dtoa_r+0x55e>
 8005084:	9b09      	ldr	r3, [sp, #36]	@ 0x24
 8005086:	2b00      	cmp	r3, #0
 8005088:	d100      	bne.n	800508c <_dtoa_r+0x3fc>
 800508a:	e0b0      	b.n	80051ee <_dtoa_r+0x55e>
 800508c:	9b0e      	ldr	r3, [sp, #56]	@ 0x38
 800508e:	2b00      	cmp	r3, #0
 8005090:	dd39      	ble.n	8005106 <_dtoa_r+0x476>
 8005092:	9b04      	ldr	r3, [sp, #16]
 8005094:	2200      	movs	r2, #0
 8005096:	3b01      	subs	r3, #1
 8005098:	930c      	str	r3, [sp, #48]	@ 0x30
 800509a:	0030      	movs	r0, r6
 800509c:	4bc3      	ldr	r3, [pc, #780]	@ (80053ac <_dtoa_r+0x71c>)
 800509e:	0039      	movs	r1, r7
 80050a0:	f7fc fb0c 	bl	80016bc <__aeabi_dmul>
 80050a4:	900a      	str	r0, [sp, #40]	@ 0x28
 80050a6:	910b      	str	r1, [sp, #44]	@ 0x2c
 80050a8:	9b0e      	ldr	r3, [sp, #56]	@ 0x38
 80050aa:	3401      	adds	r4, #1
 80050ac:	0020      	movs	r0, r4
 80050ae:	9311      	str	r3, [sp, #68]	@ 0x44
 80050b0:	f7fd f9c6 	bl	8002440 <__aeabi_i2d>
 80050b4:	9a0a      	ldr	r2, [sp, #40]	@ 0x28
 80050b6:	9b0b      	ldr	r3, [sp, #44]	@ 0x2c
 80050b8:	f7fc fb00 	bl	80016bc <__aeabi_dmul>
 80050bc:	4bbc      	ldr	r3, [pc, #752]	@ (80053b0 <_dtoa_r+0x720>)
 80050be:	2200      	movs	r2, #0
 80050c0:	f7fb fb54 	bl	800076c <__aeabi_dadd>
 80050c4:	4bbb      	ldr	r3, [pc, #748]	@ (80053b4 <_dtoa_r+0x724>)
 80050c6:	0006      	movs	r6, r0
 80050c8:	18cf      	adds	r7, r1, r3
 80050ca:	9b11      	ldr	r3, [sp, #68]	@ 0x44
 80050cc:	2b00      	cmp	r3, #0
 80050ce:	d000      	beq.n	80050d2 <_dtoa_r+0x442>
 80050d0:	e091      	b.n	80051f6 <_dtoa_r+0x566>
 80050d2:	980a      	ldr	r0, [sp, #40]	@ 0x28
 80050d4:	990b      	ldr	r1, [sp, #44]	@ 0x2c
 80050d6:	2200      	movs	r2, #0
 80050d8:	4bb7      	ldr	r3, [pc, #732]	@ (80053b8 <_dtoa_r+0x728>)
 80050da:	f7fc fdb7 	bl	8001c4c <__aeabi_dsub>
 80050de:	0032      	movs	r2, r6
 80050e0:	003b      	movs	r3, r7
 80050e2:	0004      	movs	r4, r0
 80050e4:	000d      	movs	r5, r1
 80050e6:	f7fb f9cb 	bl	8000480 <__aeabi_dcmpgt>
 80050ea:	2800      	cmp	r0, #0
 80050ec:	d000      	beq.n	80050f0 <_dtoa_r+0x460>
 80050ee:	e29d      	b.n	800562c <_dtoa_r+0x99c>
 80050f0:	2180      	movs	r1, #128	@ 0x80
 80050f2:	0609      	lsls	r1, r1, #24
 80050f4:	187b      	adds	r3, r7, r1
 80050f6:	0032      	movs	r2, r6
 80050f8:	0020      	movs	r0, r4
 80050fa:	0029      	movs	r1, r5
 80050fc:	f7fb f9ac 	bl	8000458 <__aeabi_dcmplt>
 8005100:	2800      	cmp	r0, #0
 8005102:	d000      	beq.n	8005106 <_dtoa_r+0x476>
 8005104:	e130      	b.n	8005368 <_dtoa_r+0x6d8>
 8005106:	9b12      	ldr	r3, [sp, #72]	@ 0x48
 8005108:	9c13      	ldr	r4, [sp, #76]	@ 0x4c
 800510a:	930a      	str	r3, [sp, #40]	@ 0x28
 800510c:	940b      	str	r4, [sp, #44]	@ 0x2c
 800510e:	9b1b      	ldr	r3, [sp, #108]	@ 0x6c
 8005110:	2b00      	cmp	r3, #0
 8005112:	da00      	bge.n	8005116 <_dtoa_r+0x486>
 8005114:	e177      	b.n	8005406 <_dtoa_r+0x776>
 8005116:	9a04      	ldr	r2, [sp, #16]
 8005118:	2a0e      	cmp	r2, #14
 800511a:	dd00      	ble.n	800511e <_dtoa_r+0x48e>
 800511c:	e173      	b.n	8005406 <_dtoa_r+0x776>
 800511e:	4ba0      	ldr	r3, [pc, #640]	@ (80053a0 <_dtoa_r+0x710>)
 8005120:	00d2      	lsls	r2, r2, #3
 8005122:	189b      	adds	r3, r3, r2
 8005124:	685c      	ldr	r4, [r3, #4]
 8005126:	681b      	ldr	r3, [r3, #0]
 8005128:	9306      	str	r3, [sp, #24]
 800512a:	9407      	str	r4, [sp, #28]
 800512c:	9b23      	ldr	r3, [sp, #140]	@ 0x8c
 800512e:	2b00      	cmp	r3, #0
 8005130:	da03      	bge.n	800513a <_dtoa_r+0x4aa>
 8005132:	9b09      	ldr	r3, [sp, #36]	@ 0x24
 8005134:	2b00      	cmp	r3, #0
 8005136:	dc00      	bgt.n	800513a <_dtoa_r+0x4aa>
 8005138:	e106      	b.n	8005348 <_dtoa_r+0x6b8>
 800513a:	9e0a      	ldr	r6, [sp, #40]	@ 0x28
 800513c:	9f0b      	ldr	r7, [sp, #44]	@ 0x2c
 800513e:	9b09      	ldr	r3, [sp, #36]	@ 0x24
 8005140:	9d08      	ldr	r5, [sp, #32]
 8005142:	3b01      	subs	r3, #1
 8005144:	195b      	adds	r3, r3, r5
 8005146:	930a      	str	r3, [sp, #40]	@ 0x28
 8005148:	9a06      	ldr	r2, [sp, #24]
 800514a:	9b07      	ldr	r3, [sp, #28]
 800514c:	0030      	movs	r0, r6
 800514e:	0039      	movs	r1, r7
 8005150:	f7fb fe70 	bl	8000e34 <__aeabi_ddiv>
 8005154:	f7fd f938 	bl	80023c8 <__aeabi_d2iz>
 8005158:	9009      	str	r0, [sp, #36]	@ 0x24
 800515a:	f7fd f971 	bl	8002440 <__aeabi_i2d>
 800515e:	9a06      	ldr	r2, [sp, #24]
 8005160:	9b07      	ldr	r3, [sp, #28]
 8005162:	f7fc faab 	bl	80016bc <__aeabi_dmul>
 8005166:	0002      	movs	r2, r0
 8005168:	000b      	movs	r3, r1
 800516a:	0030      	movs	r0, r6
 800516c:	0039      	movs	r1, r7
 800516e:	f7fc fd6d 	bl	8001c4c <__aeabi_dsub>
 8005172:	002b      	movs	r3, r5
 8005174:	9a09      	ldr	r2, [sp, #36]	@ 0x24
 8005176:	3501      	adds	r5, #1
 8005178:	3230      	adds	r2, #48	@ 0x30
 800517a:	701a      	strb	r2, [r3, #0]
 800517c:	9a0a      	ldr	r2, [sp, #40]	@ 0x28
 800517e:	002c      	movs	r4, r5
 8005180:	429a      	cmp	r2, r3
 8005182:	d000      	beq.n	8005186 <_dtoa_r+0x4f6>
 8005184:	e131      	b.n	80053ea <_dtoa_r+0x75a>
 8005186:	0002      	movs	r2, r0
 8005188:	000b      	movs	r3, r1
 800518a:	f7fb faef 	bl	800076c <__aeabi_dadd>
 800518e:	9a06      	ldr	r2, [sp, #24]
 8005190:	9b07      	ldr	r3, [sp, #28]
 8005192:	0006      	movs	r6, r0
 8005194:	000f      	movs	r7, r1
 8005196:	f7fb f973 	bl	8000480 <__aeabi_dcmpgt>
 800519a:	2800      	cmp	r0, #0
 800519c:	d000      	beq.n	80051a0 <_dtoa_r+0x510>
 800519e:	e10f      	b.n	80053c0 <_dtoa_r+0x730>
 80051a0:	9a06      	ldr	r2, [sp, #24]
 80051a2:	9b07      	ldr	r3, [sp, #28]
 80051a4:	0030      	movs	r0, r6
 80051a6:	0039      	movs	r1, r7
 80051a8:	f7fb f950 	bl	800044c <__aeabi_dcmpeq>
 80051ac:	2800      	cmp	r0, #0
 80051ae:	d003      	beq.n	80051b8 <_dtoa_r+0x528>
 80051b0:	9b09      	ldr	r3, [sp, #36]	@ 0x24
 80051b2:	07dd      	lsls	r5, r3, #31
 80051b4:	d500      	bpl.n	80051b8 <_dtoa_r+0x528>
 80051b6:	e103      	b.n	80053c0 <_dtoa_r+0x730>
 80051b8:	9905      	ldr	r1, [sp, #20]
 80051ba:	9803      	ldr	r0, [sp, #12]
 80051bc:	f000 fe6c 	bl	8005e98 <_Bfree>
 80051c0:	2300      	movs	r3, #0
 80051c2:	7023      	strb	r3, [r4, #0]
 80051c4:	9b04      	ldr	r3, [sp, #16]
 80051c6:	9a24      	ldr	r2, [sp, #144]	@ 0x90
 80051c8:	3301      	adds	r3, #1
 80051ca:	6013      	str	r3, [r2, #0]
 80051cc:	9b26      	ldr	r3, [sp, #152]	@ 0x98
 80051ce:	2b00      	cmp	r3, #0
 80051d0:	d100      	bne.n	80051d4 <_dtoa_r+0x544>
 80051d2:	e5a7      	b.n	8004d24 <_dtoa_r+0x94>
 80051d4:	601c      	str	r4, [r3, #0]
 80051d6:	e5a5      	b.n	8004d24 <_dtoa_r+0x94>
 80051d8:	423d      	tst	r5, r7
 80051da:	d005      	beq.n	80051e8 <_dtoa_r+0x558>
 80051dc:	6832      	ldr	r2, [r6, #0]
 80051de:	6873      	ldr	r3, [r6, #4]
 80051e0:	f7fc fa6c 	bl	80016bc <__aeabi_dmul>
 80051e4:	003b      	movs	r3, r7
 80051e6:	3401      	adds	r4, #1
 80051e8:	106d      	asrs	r5, r5, #1
 80051ea:	3608      	adds	r6, #8
 80051ec:	e736      	b.n	800505c <_dtoa_r+0x3cc>
 80051ee:	9b04      	ldr	r3, [sp, #16]
 80051f0:	930c      	str	r3, [sp, #48]	@ 0x30
 80051f2:	9b09      	ldr	r3, [sp, #36]	@ 0x24
 80051f4:	e75a      	b.n	80050ac <_dtoa_r+0x41c>
 80051f6:	9a11      	ldr	r2, [sp, #68]	@ 0x44
 80051f8:	4b69      	ldr	r3, [pc, #420]	@ (80053a0 <_dtoa_r+0x710>)
 80051fa:	3a01      	subs	r2, #1
 80051fc:	00d2      	lsls	r2, r2, #3
 80051fe:	9910      	ldr	r1, [sp, #64]	@ 0x40
 8005200:	189b      	adds	r3, r3, r2
 8005202:	681a      	ldr	r2, [r3, #0]
 8005204:	685b      	ldr	r3, [r3, #4]
 8005206:	2900      	cmp	r1, #0
 8005208:	d04c      	beq.n	80052a4 <_dtoa_r+0x614>
 800520a:	2000      	movs	r0, #0
 800520c:	496b      	ldr	r1, [pc, #428]	@ (80053bc <_dtoa_r+0x72c>)
 800520e:	f7fb fe11 	bl	8000e34 <__aeabi_ddiv>
 8005212:	0032      	movs	r2, r6
 8005214:	003b      	movs	r3, r7
 8005216:	f7fc fd19 	bl	8001c4c <__aeabi_dsub>
 800521a:	9a08      	ldr	r2, [sp, #32]
 800521c:	0006      	movs	r6, r0
 800521e:	4694      	mov	ip, r2
 8005220:	000f      	movs	r7, r1
 8005222:	9b08      	ldr	r3, [sp, #32]
 8005224:	9316      	str	r3, [sp, #88]	@ 0x58
 8005226:	9b11      	ldr	r3, [sp, #68]	@ 0x44
 8005228:	4463      	add	r3, ip
 800522a:	9311      	str	r3, [sp, #68]	@ 0x44
 800522c:	980a      	ldr	r0, [sp, #40]	@ 0x28
 800522e:	990b      	ldr	r1, [sp, #44]	@ 0x2c
 8005230:	f7fd f8ca 	bl	80023c8 <__aeabi_d2iz>
 8005234:	0005      	movs	r5, r0
 8005236:	f7fd f903 	bl	8002440 <__aeabi_i2d>
 800523a:	0002      	movs	r2, r0
 800523c:	000b      	movs	r3, r1
 800523e:	980a      	ldr	r0, [sp, #40]	@ 0x28
 8005240:	990b      	ldr	r1, [sp, #44]	@ 0x2c
 8005242:	f7fc fd03 	bl	8001c4c <__aeabi_dsub>
 8005246:	9b16      	ldr	r3, [sp, #88]	@ 0x58
 8005248:	3530      	adds	r5, #48	@ 0x30
 800524a:	1c5c      	adds	r4, r3, #1
 800524c:	701d      	strb	r5, [r3, #0]
 800524e:	0032      	movs	r2, r6
 8005250:	003b      	movs	r3, r7
 8005252:	900a      	str	r0, [sp, #40]	@ 0x28
 8005254:	910b      	str	r1, [sp, #44]	@ 0x2c
 8005256:	f7fb f8ff 	bl	8000458 <__aeabi_dcmplt>
 800525a:	2800      	cmp	r0, #0
 800525c:	d16a      	bne.n	8005334 <_dtoa_r+0x6a4>
 800525e:	9a0a      	ldr	r2, [sp, #40]	@ 0x28
 8005260:	9b0b      	ldr	r3, [sp, #44]	@ 0x2c
 8005262:	2000      	movs	r0, #0
 8005264:	4950      	ldr	r1, [pc, #320]	@ (80053a8 <_dtoa_r+0x718>)
 8005266:	f7fc fcf1 	bl	8001c4c <__aeabi_dsub>
 800526a:	0032      	movs	r2, r6
 800526c:	003b      	movs	r3, r7
 800526e:	f7fb f8f3 	bl	8000458 <__aeabi_dcmplt>
 8005272:	2800      	cmp	r0, #0
 8005274:	d000      	beq.n	8005278 <_dtoa_r+0x5e8>
 8005276:	e0a5      	b.n	80053c4 <_dtoa_r+0x734>
 8005278:	9b11      	ldr	r3, [sp, #68]	@ 0x44
 800527a:	42a3      	cmp	r3, r4
 800527c:	d100      	bne.n	8005280 <_dtoa_r+0x5f0>
 800527e:	e742      	b.n	8005106 <_dtoa_r+0x476>
 8005280:	2200      	movs	r2, #0
 8005282:	0030      	movs	r0, r6
 8005284:	0039      	movs	r1, r7
 8005286:	4b49      	ldr	r3, [pc, #292]	@ (80053ac <_dtoa_r+0x71c>)
 8005288:	f7fc fa18 	bl	80016bc <__aeabi_dmul>
 800528c:	2200      	movs	r2, #0
 800528e:	0006      	movs	r6, r0
 8005290:	000f      	movs	r7, r1
 8005292:	980a      	ldr	r0, [sp, #40]	@ 0x28
 8005294:	990b      	ldr	r1, [sp, #44]	@ 0x2c
 8005296:	4b45      	ldr	r3, [pc, #276]	@ (80053ac <_dtoa_r+0x71c>)
 8005298:	f7fc fa10 	bl	80016bc <__aeabi_dmul>
 800529c:	9416      	str	r4, [sp, #88]	@ 0x58
 800529e:	900a      	str	r0, [sp, #40]	@ 0x28
 80052a0:	910b      	str	r1, [sp, #44]	@ 0x2c
 80052a2:	e7c3      	b.n	800522c <_dtoa_r+0x59c>
 80052a4:	0030      	movs	r0, r6
 80052a6:	0039      	movs	r1, r7
 80052a8:	f7fc fa08 	bl	80016bc <__aeabi_dmul>
 80052ac:	9d08      	ldr	r5, [sp, #32]
 80052ae:	9a11      	ldr	r2, [sp, #68]	@ 0x44
 80052b0:	002b      	movs	r3, r5
 80052b2:	4694      	mov	ip, r2
 80052b4:	9016      	str	r0, [sp, #88]	@ 0x58
 80052b6:	9117      	str	r1, [sp, #92]	@ 0x5c
 80052b8:	4463      	add	r3, ip
 80052ba:	9319      	str	r3, [sp, #100]	@ 0x64
 80052bc:	980a      	ldr	r0, [sp, #40]	@ 0x28
 80052be:	990b      	ldr	r1, [sp, #44]	@ 0x2c
 80052c0:	f7fd f882 	bl	80023c8 <__aeabi_d2iz>
 80052c4:	0004      	movs	r4, r0
 80052c6:	f7fd f8bb 	bl	8002440 <__aeabi_i2d>
 80052ca:	000b      	movs	r3, r1
 80052cc:	0002      	movs	r2, r0
 80052ce:	980a      	ldr	r0, [sp, #40]	@ 0x28
 80052d0:	990b      	ldr	r1, [sp, #44]	@ 0x2c
 80052d2:	f7fc fcbb 	bl	8001c4c <__aeabi_dsub>
 80052d6:	3430      	adds	r4, #48	@ 0x30
 80052d8:	9b19      	ldr	r3, [sp, #100]	@ 0x64
 80052da:	702c      	strb	r4, [r5, #0]
 80052dc:	3501      	adds	r5, #1
 80052de:	0006      	movs	r6, r0
 80052e0:	000f      	movs	r7, r1
 80052e2:	42ab      	cmp	r3, r5
 80052e4:	d129      	bne.n	800533a <_dtoa_r+0x6aa>
 80052e6:	9816      	ldr	r0, [sp, #88]	@ 0x58
 80052e8:	9917      	ldr	r1, [sp, #92]	@ 0x5c
 80052ea:	9b08      	ldr	r3, [sp, #32]
 80052ec:	9c11      	ldr	r4, [sp, #68]	@ 0x44
 80052ee:	469c      	mov	ip, r3
 80052f0:	2200      	movs	r2, #0
 80052f2:	4b32      	ldr	r3, [pc, #200]	@ (80053bc <_dtoa_r+0x72c>)
 80052f4:	4464      	add	r4, ip
 80052f6:	f7fb fa39 	bl	800076c <__aeabi_dadd>
 80052fa:	0002      	movs	r2, r0
 80052fc:	000b      	movs	r3, r1
 80052fe:	0030      	movs	r0, r6
 8005300:	0039      	movs	r1, r7
 8005302:	f7fb f8bd 	bl	8000480 <__aeabi_dcmpgt>
 8005306:	2800      	cmp	r0, #0
 8005308:	d15c      	bne.n	80053c4 <_dtoa_r+0x734>
 800530a:	9a16      	ldr	r2, [sp, #88]	@ 0x58
 800530c:	9b17      	ldr	r3, [sp, #92]	@ 0x5c
 800530e:	2000      	movs	r0, #0
 8005310:	492a      	ldr	r1, [pc, #168]	@ (80053bc <_dtoa_r+0x72c>)
 8005312:	f7fc fc9b 	bl	8001c4c <__aeabi_dsub>
 8005316:	0002      	movs	r2, r0
 8005318:	000b      	movs	r3, r1
 800531a:	0030      	movs	r0, r6
 800531c:	0039      	movs	r1, r7
 800531e:	f7fb f89b 	bl	8000458 <__aeabi_dcmplt>
 8005322:	2800      	cmp	r0, #0
 8005324:	d100      	bne.n	8005328 <_dtoa_r+0x698>
 8005326:	e6ee      	b.n	8005106 <_dtoa_r+0x476>
 8005328:	0023      	movs	r3, r4
 800532a:	3c01      	subs	r4, #1
 800532c:	7822      	ldrb	r2, [r4, #0]
 800532e:	2a30      	cmp	r2, #48	@ 0x30
 8005330:	d0fa      	beq.n	8005328 <_dtoa_r+0x698>
 8005332:	001c      	movs	r4, r3
 8005334:	9b0c      	ldr	r3, [sp, #48]	@ 0x30
 8005336:	9304      	str	r3, [sp, #16]
 8005338:	e73e      	b.n	80051b8 <_dtoa_r+0x528>
 800533a:	2200      	movs	r2, #0
 800533c:	4b1b      	ldr	r3, [pc, #108]	@ (80053ac <_dtoa_r+0x71c>)
 800533e:	f7fc f9bd 	bl	80016bc <__aeabi_dmul>
 8005342:	900a      	str	r0, [sp, #40]	@ 0x28
 8005344:	910b      	str	r1, [sp, #44]	@ 0x2c
 8005346:	e7b9      	b.n	80052bc <_dtoa_r+0x62c>
 8005348:	9b09      	ldr	r3, [sp, #36]	@ 0x24
 800534a:	2b00      	cmp	r3, #0
 800534c:	d10c      	bne.n	8005368 <_dtoa_r+0x6d8>
 800534e:	9806      	ldr	r0, [sp, #24]
 8005350:	9907      	ldr	r1, [sp, #28]
 8005352:	2200      	movs	r2, #0
 8005354:	4b18      	ldr	r3, [pc, #96]	@ (80053b8 <_dtoa_r+0x728>)
 8005356:	f7fc f9b1 	bl	80016bc <__aeabi_dmul>
 800535a:	9a0a      	ldr	r2, [sp, #40]	@ 0x28
 800535c:	9b0b      	ldr	r3, [sp, #44]	@ 0x2c
 800535e:	f7fb f899 	bl	8000494 <__aeabi_dcmpge>
 8005362:	2800      	cmp	r0, #0
 8005364:	d100      	bne.n	8005368 <_dtoa_r+0x6d8>
 8005366:	e164      	b.n	8005632 <_dtoa_r+0x9a2>
 8005368:	2600      	movs	r6, #0
 800536a:	0037      	movs	r7, r6
 800536c:	9b23      	ldr	r3, [sp, #140]	@ 0x8c
 800536e:	9c08      	ldr	r4, [sp, #32]
 8005370:	43db      	mvns	r3, r3
 8005372:	930c      	str	r3, [sp, #48]	@ 0x30
 8005374:	2300      	movs	r3, #0
 8005376:	9304      	str	r3, [sp, #16]
 8005378:	0031      	movs	r1, r6
 800537a:	9803      	ldr	r0, [sp, #12]
 800537c:	f000 fd8c 	bl	8005e98 <_Bfree>
 8005380:	2f00      	cmp	r7, #0
 8005382:	d0d7      	beq.n	8005334 <_dtoa_r+0x6a4>
 8005384:	9b04      	ldr	r3, [sp, #16]
 8005386:	2b00      	cmp	r3, #0
 8005388:	d005      	beq.n	8005396 <_dtoa_r+0x706>
 800538a:	42bb      	cmp	r3, r7
 800538c:	d003      	beq.n	8005396 <_dtoa_r+0x706>
 800538e:	0019      	movs	r1, r3
 8005390:	9803      	ldr	r0, [sp, #12]
 8005392:	f000 fd81 	bl	8005e98 <_Bfree>
 8005396:	0039      	movs	r1, r7
 8005398:	9803      	ldr	r0, [sp, #12]
 800539a:	f000 fd7d 	bl	8005e98 <_Bfree>
 800539e:	e7c9      	b.n	8005334 <_dtoa_r+0x6a4>
 80053a0:	080074d0 	.word	0x080074d0
 80053a4:	080074a8 	.word	0x080074a8
 80053a8:	3ff00000 	.word	0x3ff00000
 80053ac:	40240000 	.word	0x40240000
 80053b0:	401c0000 	.word	0x401c0000
 80053b4:	fcc00000 	.word	0xfcc00000
 80053b8:	40140000 	.word	0x40140000
 80053bc:	3fe00000 	.word	0x3fe00000
 80053c0:	9b04      	ldr	r3, [sp, #16]
 80053c2:	930c      	str	r3, [sp, #48]	@ 0x30
 80053c4:	0023      	movs	r3, r4
 80053c6:	001c      	movs	r4, r3
 80053c8:	3b01      	subs	r3, #1
 80053ca:	781a      	ldrb	r2, [r3, #0]
 80053cc:	2a39      	cmp	r2, #57	@ 0x39
 80053ce:	d108      	bne.n	80053e2 <_dtoa_r+0x752>
 80053d0:	9a08      	ldr	r2, [sp, #32]
 80053d2:	429a      	cmp	r2, r3
 80053d4:	d1f7      	bne.n	80053c6 <_dtoa_r+0x736>
 80053d6:	9a0c      	ldr	r2, [sp, #48]	@ 0x30
 80053d8:	9908      	ldr	r1, [sp, #32]
 80053da:	3201      	adds	r2, #1
 80053dc:	920c      	str	r2, [sp, #48]	@ 0x30
 80053de:	2230      	movs	r2, #48	@ 0x30
 80053e0:	700a      	strb	r2, [r1, #0]
 80053e2:	781a      	ldrb	r2, [r3, #0]
 80053e4:	3201      	adds	r2, #1
 80053e6:	701a      	strb	r2, [r3, #0]
 80053e8:	e7a4      	b.n	8005334 <_dtoa_r+0x6a4>
 80053ea:	2200      	movs	r2, #0
 80053ec:	4bc6      	ldr	r3, [pc, #792]	@ (8005708 <_dtoa_r+0xa78>)
 80053ee:	f7fc f965 	bl	80016bc <__aeabi_dmul>
 80053f2:	2200      	movs	r2, #0
 80053f4:	2300      	movs	r3, #0
 80053f6:	0006      	movs	r6, r0
 80053f8:	000f      	movs	r7, r1
 80053fa:	f7fb f827 	bl	800044c <__aeabi_dcmpeq>
 80053fe:	2800      	cmp	r0, #0
 8005400:	d100      	bne.n	8005404 <_dtoa_r+0x774>
 8005402:	e6a1      	b.n	8005148 <_dtoa_r+0x4b8>
 8005404:	e6d8      	b.n	80051b8 <_dtoa_r+0x528>
 8005406:	9f10      	ldr	r7, [sp, #64]	@ 0x40
 8005408:	9d0f      	ldr	r5, [sp, #60]	@ 0x3c
 800540a:	9c06      	ldr	r4, [sp, #24]
 800540c:	2f00      	cmp	r7, #0
 800540e:	d014      	beq.n	800543a <_dtoa_r+0x7aa>
 8005410:	9a22      	ldr	r2, [sp, #136]	@ 0x88
 8005412:	2a01      	cmp	r2, #1
 8005414:	dd00      	ble.n	8005418 <_dtoa_r+0x788>
 8005416:	e0c8      	b.n	80055aa <_dtoa_r+0x91a>
 8005418:	9a18      	ldr	r2, [sp, #96]	@ 0x60
 800541a:	2a00      	cmp	r2, #0
 800541c:	d100      	bne.n	8005420 <_dtoa_r+0x790>
 800541e:	e0be      	b.n	800559e <_dtoa_r+0x90e>
 8005420:	4aba      	ldr	r2, [pc, #744]	@ (800570c <_dtoa_r+0xa7c>)
 8005422:	189b      	adds	r3, r3, r2
 8005424:	9a06      	ldr	r2, [sp, #24]
 8005426:	2101      	movs	r1, #1
 8005428:	18d2      	adds	r2, r2, r3
 800542a:	9206      	str	r2, [sp, #24]
 800542c:	9a0d      	ldr	r2, [sp, #52]	@ 0x34
 800542e:	9803      	ldr	r0, [sp, #12]
 8005430:	18d3      	adds	r3, r2, r3
 8005432:	930d      	str	r3, [sp, #52]	@ 0x34
 8005434:	f000 fde8 	bl	8006008 <__i2b>
 8005438:	0007      	movs	r7, r0
 800543a:	2c00      	cmp	r4, #0
 800543c:	d00e      	beq.n	800545c <_dtoa_r+0x7cc>
 800543e:	9b0d      	ldr	r3, [sp, #52]	@ 0x34
 8005440:	2b00      	cmp	r3, #0
 8005442:	dd0b      	ble.n	800545c <_dtoa_r+0x7cc>
 8005444:	9a0d      	ldr	r2, [sp, #52]	@ 0x34
 8005446:	0023      	movs	r3, r4
 8005448:	4294      	cmp	r4, r2
 800544a:	dd00      	ble.n	800544e <_dtoa_r+0x7be>
 800544c:	0013      	movs	r3, r2
 800544e:	9a06      	ldr	r2, [sp, #24]
 8005450:	1ae4      	subs	r4, r4, r3
 8005452:	1ad2      	subs	r2, r2, r3
 8005454:	9206      	str	r2, [sp, #24]
 8005456:	9a0d      	ldr	r2, [sp, #52]	@ 0x34
 8005458:	1ad3      	subs	r3, r2, r3
 800545a:	930d      	str	r3, [sp, #52]	@ 0x34
 800545c:	9b0f      	ldr	r3, [sp, #60]	@ 0x3c
 800545e:	2b00      	cmp	r3, #0
 8005460:	d01f      	beq.n	80054a2 <_dtoa_r+0x812>
 8005462:	9b10      	ldr	r3, [sp, #64]	@ 0x40
 8005464:	2b00      	cmp	r3, #0
 8005466:	d100      	bne.n	800546a <_dtoa_r+0x7da>
 8005468:	e0b5      	b.n	80055d6 <_dtoa_r+0x946>
 800546a:	2d00      	cmp	r5, #0
 800546c:	d010      	beq.n	8005490 <_dtoa_r+0x800>
 800546e:	0039      	movs	r1, r7
 8005470:	002a      	movs	r2, r5
 8005472:	9803      	ldr	r0, [sp, #12]
 8005474:	f000 fe92 	bl	800619c <__pow5mult>
 8005478:	9a05      	ldr	r2, [sp, #20]
 800547a:	0001      	movs	r1, r0
 800547c:	0007      	movs	r7, r0
 800547e:	9803      	ldr	r0, [sp, #12]
 8005480:	f000 fdda 	bl	8006038 <__multiply>
 8005484:	0006      	movs	r6, r0
 8005486:	9905      	ldr	r1, [sp, #20]
 8005488:	9803      	ldr	r0, [sp, #12]
 800548a:	f000 fd05 	bl	8005e98 <_Bfree>
 800548e:	9605      	str	r6, [sp, #20]
 8005490:	9b0f      	ldr	r3, [sp, #60]	@ 0x3c
 8005492:	1b5a      	subs	r2, r3, r5
 8005494:	42ab      	cmp	r3, r5
 8005496:	d004      	beq.n	80054a2 <_dtoa_r+0x812>
 8005498:	9905      	ldr	r1, [sp, #20]
 800549a:	9803      	ldr	r0, [sp, #12]
 800549c:	f000 fe7e 	bl	800619c <__pow5mult>
 80054a0:	9005      	str	r0, [sp, #20]
 80054a2:	2101      	movs	r1, #1
 80054a4:	9803      	ldr	r0, [sp, #12]
 80054a6:	f000 fdaf 	bl	8006008 <__i2b>
 80054aa:	9b14      	ldr	r3, [sp, #80]	@ 0x50
 80054ac:	0006      	movs	r6, r0
 80054ae:	2b00      	cmp	r3, #0
 80054b0:	d100      	bne.n	80054b4 <_dtoa_r+0x824>
 80054b2:	e1bc      	b.n	800582e <_dtoa_r+0xb9e>
 80054b4:	001a      	movs	r2, r3
 80054b6:	0001      	movs	r1, r0
 80054b8:	9803      	ldr	r0, [sp, #12]
 80054ba:	f000 fe6f 	bl	800619c <__pow5mult>
 80054be:	9b22      	ldr	r3, [sp, #136]	@ 0x88
 80054c0:	0006      	movs	r6, r0
 80054c2:	2500      	movs	r5, #0
 80054c4:	2b01      	cmp	r3, #1
 80054c6:	dc16      	bgt.n	80054f6 <_dtoa_r+0x866>
 80054c8:	2500      	movs	r5, #0
 80054ca:	9b0a      	ldr	r3, [sp, #40]	@ 0x28
 80054cc:	42ab      	cmp	r3, r5
 80054ce:	d10e      	bne.n	80054ee <_dtoa_r+0x85e>
 80054d0:	9b0b      	ldr	r3, [sp, #44]	@ 0x2c
 80054d2:	031b      	lsls	r3, r3, #12
 80054d4:	42ab      	cmp	r3, r5
 80054d6:	d10a      	bne.n	80054ee <_dtoa_r+0x85e>
 80054d8:	4b8d      	ldr	r3, [pc, #564]	@ (8005710 <_dtoa_r+0xa80>)
 80054da:	9a0b      	ldr	r2, [sp, #44]	@ 0x2c
 80054dc:	4213      	tst	r3, r2
 80054de:	d006      	beq.n	80054ee <_dtoa_r+0x85e>
 80054e0:	9b06      	ldr	r3, [sp, #24]
 80054e2:	3501      	adds	r5, #1
 80054e4:	3301      	adds	r3, #1
 80054e6:	9306      	str	r3, [sp, #24]
 80054e8:	9b0d      	ldr	r3, [sp, #52]	@ 0x34
 80054ea:	3301      	adds	r3, #1
 80054ec:	930d      	str	r3, [sp, #52]	@ 0x34
 80054ee:	9b14      	ldr	r3, [sp, #80]	@ 0x50
 80054f0:	2001      	movs	r0, #1
 80054f2:	2b00      	cmp	r3, #0
 80054f4:	d008      	beq.n	8005508 <_dtoa_r+0x878>
 80054f6:	6933      	ldr	r3, [r6, #16]
 80054f8:	3303      	adds	r3, #3
 80054fa:	009b      	lsls	r3, r3, #2
 80054fc:	18f3      	adds	r3, r6, r3
 80054fe:	6858      	ldr	r0, [r3, #4]
 8005500:	f000 fd32 	bl	8005f68 <__hi0bits>
 8005504:	2320      	movs	r3, #32
 8005506:	1a18      	subs	r0, r3, r0
 8005508:	9b0d      	ldr	r3, [sp, #52]	@ 0x34
 800550a:	1818      	adds	r0, r3, r0
 800550c:	0002      	movs	r2, r0
 800550e:	231f      	movs	r3, #31
 8005510:	401a      	ands	r2, r3
 8005512:	4218      	tst	r0, r3
 8005514:	d065      	beq.n	80055e2 <_dtoa_r+0x952>
 8005516:	3301      	adds	r3, #1
 8005518:	1a9b      	subs	r3, r3, r2
 800551a:	2b04      	cmp	r3, #4
 800551c:	dd5d      	ble.n	80055da <_dtoa_r+0x94a>
 800551e:	231c      	movs	r3, #28
 8005520:	1a9b      	subs	r3, r3, r2
 8005522:	9a06      	ldr	r2, [sp, #24]
 8005524:	18e4      	adds	r4, r4, r3
 8005526:	18d2      	adds	r2, r2, r3
 8005528:	9206      	str	r2, [sp, #24]
 800552a:	9a0d      	ldr	r2, [sp, #52]	@ 0x34
 800552c:	18d3      	adds	r3, r2, r3
 800552e:	930d      	str	r3, [sp, #52]	@ 0x34
 8005530:	9b06      	ldr	r3, [sp, #24]
 8005532:	2b00      	cmp	r3, #0
 8005534:	dd05      	ble.n	8005542 <_dtoa_r+0x8b2>
 8005536:	001a      	movs	r2, r3
 8005538:	9905      	ldr	r1, [sp, #20]
 800553a:	9803      	ldr	r0, [sp, #12]
 800553c:	f000 fe8a 	bl	8006254 <__lshift>
 8005540:	9005      	str	r0, [sp, #20]
 8005542:	9b0d      	ldr	r3, [sp, #52]	@ 0x34
 8005544:	2b00      	cmp	r3, #0
 8005546:	dd05      	ble.n	8005554 <_dtoa_r+0x8c4>
 8005548:	0031      	movs	r1, r6
 800554a:	001a      	movs	r2, r3
 800554c:	9803      	ldr	r0, [sp, #12]
 800554e:	f000 fe81 	bl	8006254 <__lshift>
 8005552:	0006      	movs	r6, r0
 8005554:	9b15      	ldr	r3, [sp, #84]	@ 0x54
 8005556:	2b00      	cmp	r3, #0
 8005558:	d045      	beq.n	80055e6 <_dtoa_r+0x956>
 800555a:	0031      	movs	r1, r6
 800555c:	9805      	ldr	r0, [sp, #20]
 800555e:	f000 fee5 	bl	800632c <__mcmp>
 8005562:	2800      	cmp	r0, #0
 8005564:	da3f      	bge.n	80055e6 <_dtoa_r+0x956>
 8005566:	9b04      	ldr	r3, [sp, #16]
 8005568:	220a      	movs	r2, #10
 800556a:	3b01      	subs	r3, #1
 800556c:	930c      	str	r3, [sp, #48]	@ 0x30
 800556e:	9905      	ldr	r1, [sp, #20]
 8005570:	2300      	movs	r3, #0
 8005572:	9803      	ldr	r0, [sp, #12]
 8005574:	f000 fcb4 	bl	8005ee0 <__multadd>
 8005578:	9b10      	ldr	r3, [sp, #64]	@ 0x40
 800557a:	9005      	str	r0, [sp, #20]
 800557c:	2b00      	cmp	r3, #0
 800557e:	d100      	bne.n	8005582 <_dtoa_r+0x8f2>
 8005580:	e15c      	b.n	800583c <_dtoa_r+0xbac>
 8005582:	2300      	movs	r3, #0
 8005584:	0039      	movs	r1, r7
 8005586:	220a      	movs	r2, #10
 8005588:	9803      	ldr	r0, [sp, #12]
 800558a:	f000 fca9 	bl	8005ee0 <__multadd>
 800558e:	9b0e      	ldr	r3, [sp, #56]	@ 0x38
 8005590:	0007      	movs	r7, r0
 8005592:	2b00      	cmp	r3, #0
 8005594:	dc55      	bgt.n	8005642 <_dtoa_r+0x9b2>
 8005596:	9b22      	ldr	r3, [sp, #136]	@ 0x88
 8005598:	2b02      	cmp	r3, #2
 800559a:	dc2d      	bgt.n	80055f8 <_dtoa_r+0x968>
 800559c:	e051      	b.n	8005642 <_dtoa_r+0x9b2>
 800559e:	2336      	movs	r3, #54	@ 0x36
 80055a0:	9a1a      	ldr	r2, [sp, #104]	@ 0x68
 80055a2:	9d0f      	ldr	r5, [sp, #60]	@ 0x3c
 80055a4:	9c06      	ldr	r4, [sp, #24]
 80055a6:	1a9b      	subs	r3, r3, r2
 80055a8:	e73c      	b.n	8005424 <_dtoa_r+0x794>
 80055aa:	9b09      	ldr	r3, [sp, #36]	@ 0x24
 80055ac:	1e5d      	subs	r5, r3, #1
 80055ae:	9b0f      	ldr	r3, [sp, #60]	@ 0x3c
 80055b0:	42ab      	cmp	r3, r5
 80055b2:	db08      	blt.n	80055c6 <_dtoa_r+0x936>
 80055b4:	1b5d      	subs	r5, r3, r5
 80055b6:	9b09      	ldr	r3, [sp, #36]	@ 0x24
 80055b8:	9c06      	ldr	r4, [sp, #24]
 80055ba:	2b00      	cmp	r3, #0
 80055bc:	db00      	blt.n	80055c0 <_dtoa_r+0x930>
 80055be:	e731      	b.n	8005424 <_dtoa_r+0x794>
 80055c0:	1ae4      	subs	r4, r4, r3
 80055c2:	2300      	movs	r3, #0
 80055c4:	e72e      	b.n	8005424 <_dtoa_r+0x794>
 80055c6:	9b0f      	ldr	r3, [sp, #60]	@ 0x3c
 80055c8:	9a14      	ldr	r2, [sp, #80]	@ 0x50
 80055ca:	1aeb      	subs	r3, r5, r3
 80055cc:	18d3      	adds	r3, r2, r3
 80055ce:	950f      	str	r5, [sp, #60]	@ 0x3c
 80055d0:	9314      	str	r3, [sp, #80]	@ 0x50
 80055d2:	2500      	movs	r5, #0
 80055d4:	e7ef      	b.n	80055b6 <_dtoa_r+0x926>
 80055d6:	9a0f      	ldr	r2, [sp, #60]	@ 0x3c
 80055d8:	e75e      	b.n	8005498 <_dtoa_r+0x808>
 80055da:	2b04      	cmp	r3, #4
 80055dc:	d0a8      	beq.n	8005530 <_dtoa_r+0x8a0>
 80055de:	331c      	adds	r3, #28
 80055e0:	e79f      	b.n	8005522 <_dtoa_r+0x892>
 80055e2:	0013      	movs	r3, r2
 80055e4:	e7fb      	b.n	80055de <_dtoa_r+0x94e>
 80055e6:	9b04      	ldr	r3, [sp, #16]
 80055e8:	930c      	str	r3, [sp, #48]	@ 0x30
 80055ea:	9b09      	ldr	r3, [sp, #36]	@ 0x24
 80055ec:	930e      	str	r3, [sp, #56]	@ 0x38
 80055ee:	2b00      	cmp	r3, #0
 80055f0:	dc23      	bgt.n	800563a <_dtoa_r+0x9aa>
 80055f2:	9b22      	ldr	r3, [sp, #136]	@ 0x88
 80055f4:	2b02      	cmp	r3, #2
 80055f6:	dd20      	ble.n	800563a <_dtoa_r+0x9aa>
 80055f8:	9b0e      	ldr	r3, [sp, #56]	@ 0x38
 80055fa:	2b00      	cmp	r3, #0
 80055fc:	d000      	beq.n	8005600 <_dtoa_r+0x970>
 80055fe:	e6b5      	b.n	800536c <_dtoa_r+0x6dc>
 8005600:	0031      	movs	r1, r6
 8005602:	2205      	movs	r2, #5
 8005604:	9803      	ldr	r0, [sp, #12]
 8005606:	f000 fc6b 	bl	8005ee0 <__multadd>
 800560a:	0006      	movs	r6, r0
 800560c:	0001      	movs	r1, r0
 800560e:	9805      	ldr	r0, [sp, #20]
 8005610:	f000 fe8c 	bl	800632c <__mcmp>
 8005614:	2800      	cmp	r0, #0
 8005616:	dc00      	bgt.n	800561a <_dtoa_r+0x98a>
 8005618:	e6a8      	b.n	800536c <_dtoa_r+0x6dc>
 800561a:	9b08      	ldr	r3, [sp, #32]
 800561c:	9a08      	ldr	r2, [sp, #32]
 800561e:	1c5c      	adds	r4, r3, #1
 8005620:	2331      	movs	r3, #49	@ 0x31
 8005622:	7013      	strb	r3, [r2, #0]
 8005624:	9b0c      	ldr	r3, [sp, #48]	@ 0x30
 8005626:	3301      	adds	r3, #1
 8005628:	930c      	str	r3, [sp, #48]	@ 0x30
 800562a:	e6a3      	b.n	8005374 <_dtoa_r+0x6e4>
 800562c:	9e11      	ldr	r6, [sp, #68]	@ 0x44
 800562e:	0037      	movs	r7, r6
 8005630:	e7f3      	b.n	800561a <_dtoa_r+0x98a>
 8005632:	9b04      	ldr	r3, [sp, #16]
 8005634:	9e09      	ldr	r6, [sp, #36]	@ 0x24
 8005636:	930c      	str	r3, [sp, #48]	@ 0x30
 8005638:	e7f9      	b.n	800562e <_dtoa_r+0x99e>
 800563a:	9b10      	ldr	r3, [sp, #64]	@ 0x40
 800563c:	2b00      	cmp	r3, #0
 800563e:	d100      	bne.n	8005642 <_dtoa_r+0x9b2>
 8005640:	e100      	b.n	8005844 <_dtoa_r+0xbb4>
 8005642:	2c00      	cmp	r4, #0
 8005644:	dd05      	ble.n	8005652 <_dtoa_r+0x9c2>
 8005646:	0039      	movs	r1, r7
 8005648:	0022      	movs	r2, r4
 800564a:	9803      	ldr	r0, [sp, #12]
 800564c:	f000 fe02 	bl	8006254 <__lshift>
 8005650:	0007      	movs	r7, r0
 8005652:	0038      	movs	r0, r7
 8005654:	2d00      	cmp	r5, #0
 8005656:	d018      	beq.n	800568a <_dtoa_r+0x9fa>
 8005658:	6879      	ldr	r1, [r7, #4]
 800565a:	9803      	ldr	r0, [sp, #12]
 800565c:	f000 fbd8 	bl	8005e10 <_Balloc>
 8005660:	1e04      	subs	r4, r0, #0
 8005662:	d105      	bne.n	8005670 <_dtoa_r+0x9e0>
 8005664:	0022      	movs	r2, r4
 8005666:	4b2b      	ldr	r3, [pc, #172]	@ (8005714 <_dtoa_r+0xa84>)
 8005668:	482b      	ldr	r0, [pc, #172]	@ (8005718 <_dtoa_r+0xa88>)
 800566a:	492c      	ldr	r1, [pc, #176]	@ (800571c <_dtoa_r+0xa8c>)
 800566c:	f7ff fb25 	bl	8004cba <_dtoa_r+0x2a>
 8005670:	0039      	movs	r1, r7
 8005672:	693a      	ldr	r2, [r7, #16]
 8005674:	310c      	adds	r1, #12
 8005676:	3202      	adds	r2, #2
 8005678:	0092      	lsls	r2, r2, #2
 800567a:	300c      	adds	r0, #12
 800567c:	f001 f85a 	bl	8006734 <memcpy>
 8005680:	2201      	movs	r2, #1
 8005682:	0021      	movs	r1, r4
 8005684:	9803      	ldr	r0, [sp, #12]
 8005686:	f000 fde5 	bl	8006254 <__lshift>
 800568a:	9b08      	ldr	r3, [sp, #32]
 800568c:	9a0e      	ldr	r2, [sp, #56]	@ 0x38
 800568e:	9306      	str	r3, [sp, #24]
 8005690:	3b01      	subs	r3, #1
 8005692:	189b      	adds	r3, r3, r2
 8005694:	2201      	movs	r2, #1
 8005696:	9704      	str	r7, [sp, #16]
 8005698:	0007      	movs	r7, r0
 800569a:	930f      	str	r3, [sp, #60]	@ 0x3c
 800569c:	9b0a      	ldr	r3, [sp, #40]	@ 0x28
 800569e:	4013      	ands	r3, r2
 80056a0:	930e      	str	r3, [sp, #56]	@ 0x38
 80056a2:	0031      	movs	r1, r6
 80056a4:	9805      	ldr	r0, [sp, #20]
 80056a6:	f7ff fa65 	bl	8004b74 <quorem>
 80056aa:	9904      	ldr	r1, [sp, #16]
 80056ac:	0005      	movs	r5, r0
 80056ae:	900a      	str	r0, [sp, #40]	@ 0x28
 80056b0:	9805      	ldr	r0, [sp, #20]
 80056b2:	f000 fe3b 	bl	800632c <__mcmp>
 80056b6:	003a      	movs	r2, r7
 80056b8:	900d      	str	r0, [sp, #52]	@ 0x34
 80056ba:	0031      	movs	r1, r6
 80056bc:	9803      	ldr	r0, [sp, #12]
 80056be:	f000 fe51 	bl	8006364 <__mdiff>
 80056c2:	2201      	movs	r2, #1
 80056c4:	68c3      	ldr	r3, [r0, #12]
 80056c6:	0004      	movs	r4, r0
 80056c8:	3530      	adds	r5, #48	@ 0x30
 80056ca:	9209      	str	r2, [sp, #36]	@ 0x24
 80056cc:	2b00      	cmp	r3, #0
 80056ce:	d104      	bne.n	80056da <_dtoa_r+0xa4a>
 80056d0:	0001      	movs	r1, r0
 80056d2:	9805      	ldr	r0, [sp, #20]
 80056d4:	f000 fe2a 	bl	800632c <__mcmp>
 80056d8:	9009      	str	r0, [sp, #36]	@ 0x24
 80056da:	0021      	movs	r1, r4
 80056dc:	9803      	ldr	r0, [sp, #12]
 80056de:	f000 fbdb 	bl	8005e98 <_Bfree>
 80056e2:	9b06      	ldr	r3, [sp, #24]
 80056e4:	9a09      	ldr	r2, [sp, #36]	@ 0x24
 80056e6:	1c5c      	adds	r4, r3, #1
 80056e8:	9b22      	ldr	r3, [sp, #136]	@ 0x88
 80056ea:	4313      	orrs	r3, r2
 80056ec:	9a0e      	ldr	r2, [sp, #56]	@ 0x38
 80056ee:	4313      	orrs	r3, r2
 80056f0:	d116      	bne.n	8005720 <_dtoa_r+0xa90>
 80056f2:	2d39      	cmp	r5, #57	@ 0x39
 80056f4:	d02f      	beq.n	8005756 <_dtoa_r+0xac6>
 80056f6:	9b0d      	ldr	r3, [sp, #52]	@ 0x34
 80056f8:	2b00      	cmp	r3, #0
 80056fa:	dd01      	ble.n	8005700 <_dtoa_r+0xa70>
 80056fc:	9d0a      	ldr	r5, [sp, #40]	@ 0x28
 80056fe:	3531      	adds	r5, #49	@ 0x31
 8005700:	9b06      	ldr	r3, [sp, #24]
 8005702:	701d      	strb	r5, [r3, #0]
 8005704:	e638      	b.n	8005378 <_dtoa_r+0x6e8>
 8005706:	46c0      	nop			@ (mov r8, r8)
 8005708:	40240000 	.word	0x40240000
 800570c:	00000433 	.word	0x00000433
 8005710:	7ff00000 	.word	0x7ff00000
 8005714:	0800741f 	.word	0x0800741f
 8005718:	080073c7 	.word	0x080073c7
 800571c:	000002ef 	.word	0x000002ef
 8005720:	9b0d      	ldr	r3, [sp, #52]	@ 0x34
 8005722:	2b00      	cmp	r3, #0
 8005724:	db04      	blt.n	8005730 <_dtoa_r+0xaa0>
 8005726:	9a22      	ldr	r2, [sp, #136]	@ 0x88
 8005728:	4313      	orrs	r3, r2
 800572a:	9a0e      	ldr	r2, [sp, #56]	@ 0x38
 800572c:	4313      	orrs	r3, r2
 800572e:	d11e      	bne.n	800576e <_dtoa_r+0xade>
 8005730:	9b09      	ldr	r3, [sp, #36]	@ 0x24
 8005732:	2b00      	cmp	r3, #0
 8005734:	dde4      	ble.n	8005700 <_dtoa_r+0xa70>
 8005736:	9905      	ldr	r1, [sp, #20]
 8005738:	2201      	movs	r2, #1
 800573a:	9803      	ldr	r0, [sp, #12]
 800573c:	f000 fd8a 	bl	8006254 <__lshift>
 8005740:	0031      	movs	r1, r6
 8005742:	9005      	str	r0, [sp, #20]
 8005744:	f000 fdf2 	bl	800632c <__mcmp>
 8005748:	2800      	cmp	r0, #0
 800574a:	dc02      	bgt.n	8005752 <_dtoa_r+0xac2>
 800574c:	d1d8      	bne.n	8005700 <_dtoa_r+0xa70>
 800574e:	07eb      	lsls	r3, r5, #31
 8005750:	d5d6      	bpl.n	8005700 <_dtoa_r+0xa70>
 8005752:	2d39      	cmp	r5, #57	@ 0x39
 8005754:	d1d2      	bne.n	80056fc <_dtoa_r+0xa6c>
 8005756:	2339      	movs	r3, #57	@ 0x39
 8005758:	9a06      	ldr	r2, [sp, #24]
 800575a:	7013      	strb	r3, [r2, #0]
 800575c:	0023      	movs	r3, r4
 800575e:	001c      	movs	r4, r3
 8005760:	3b01      	subs	r3, #1
 8005762:	781a      	ldrb	r2, [r3, #0]
 8005764:	2a39      	cmp	r2, #57	@ 0x39
 8005766:	d04f      	beq.n	8005808 <_dtoa_r+0xb78>
 8005768:	3201      	adds	r2, #1
 800576a:	701a      	strb	r2, [r3, #0]
 800576c:	e604      	b.n	8005378 <_dtoa_r+0x6e8>
 800576e:	9b09      	ldr	r3, [sp, #36]	@ 0x24
 8005770:	2b00      	cmp	r3, #0
 8005772:	dd03      	ble.n	800577c <_dtoa_r+0xaec>
 8005774:	2d39      	cmp	r5, #57	@ 0x39
 8005776:	d0ee      	beq.n	8005756 <_dtoa_r+0xac6>
 8005778:	3501      	adds	r5, #1
 800577a:	e7c1      	b.n	8005700 <_dtoa_r+0xa70>
 800577c:	9b06      	ldr	r3, [sp, #24]
 800577e:	9a06      	ldr	r2, [sp, #24]
 8005780:	701d      	strb	r5, [r3, #0]
 8005782:	9b0f      	ldr	r3, [sp, #60]	@ 0x3c
 8005784:	4293      	cmp	r3, r2
 8005786:	d02a      	beq.n	80057de <_dtoa_r+0xb4e>
 8005788:	2300      	movs	r3, #0
 800578a:	220a      	movs	r2, #10
 800578c:	9905      	ldr	r1, [sp, #20]
 800578e:	9803      	ldr	r0, [sp, #12]
 8005790:	f000 fba6 	bl	8005ee0 <__multadd>
 8005794:	9b04      	ldr	r3, [sp, #16]
 8005796:	9005      	str	r0, [sp, #20]
 8005798:	42bb      	cmp	r3, r7
 800579a:	d109      	bne.n	80057b0 <_dtoa_r+0xb20>
 800579c:	2300      	movs	r3, #0
 800579e:	220a      	movs	r2, #10
 80057a0:	9904      	ldr	r1, [sp, #16]
 80057a2:	9803      	ldr	r0, [sp, #12]
 80057a4:	f000 fb9c 	bl	8005ee0 <__multadd>
 80057a8:	9004      	str	r0, [sp, #16]
 80057aa:	0007      	movs	r7, r0
 80057ac:	9406      	str	r4, [sp, #24]
 80057ae:	e778      	b.n	80056a2 <_dtoa_r+0xa12>
 80057b0:	9904      	ldr	r1, [sp, #16]
 80057b2:	2300      	movs	r3, #0
 80057b4:	220a      	movs	r2, #10
 80057b6:	9803      	ldr	r0, [sp, #12]
 80057b8:	f000 fb92 	bl	8005ee0 <__multadd>
 80057bc:	2300      	movs	r3, #0
 80057be:	9004      	str	r0, [sp, #16]
 80057c0:	220a      	movs	r2, #10
 80057c2:	0039      	movs	r1, r7
 80057c4:	9803      	ldr	r0, [sp, #12]
 80057c6:	f000 fb8b 	bl	8005ee0 <__multadd>
 80057ca:	e7ee      	b.n	80057aa <_dtoa_r+0xb1a>
 80057cc:	9b0e      	ldr	r3, [sp, #56]	@ 0x38
 80057ce:	2401      	movs	r4, #1
 80057d0:	2b00      	cmp	r3, #0
 80057d2:	dd00      	ble.n	80057d6 <_dtoa_r+0xb46>
 80057d4:	001c      	movs	r4, r3
 80057d6:	9b08      	ldr	r3, [sp, #32]
 80057d8:	191c      	adds	r4, r3, r4
 80057da:	2300      	movs	r3, #0
 80057dc:	9304      	str	r3, [sp, #16]
 80057de:	9905      	ldr	r1, [sp, #20]
 80057e0:	2201      	movs	r2, #1
 80057e2:	9803      	ldr	r0, [sp, #12]
 80057e4:	f000 fd36 	bl	8006254 <__lshift>
 80057e8:	0031      	movs	r1, r6
 80057ea:	9005      	str	r0, [sp, #20]
 80057ec:	f000 fd9e 	bl	800632c <__mcmp>
 80057f0:	2800      	cmp	r0, #0
 80057f2:	dcb3      	bgt.n	800575c <_dtoa_r+0xacc>
 80057f4:	d101      	bne.n	80057fa <_dtoa_r+0xb6a>
 80057f6:	07ed      	lsls	r5, r5, #31
 80057f8:	d4b0      	bmi.n	800575c <_dtoa_r+0xacc>
 80057fa:	0023      	movs	r3, r4
 80057fc:	001c      	movs	r4, r3
 80057fe:	3b01      	subs	r3, #1
 8005800:	781a      	ldrb	r2, [r3, #0]
 8005802:	2a30      	cmp	r2, #48	@ 0x30
 8005804:	d0fa      	beq.n	80057fc <_dtoa_r+0xb6c>
 8005806:	e5b7      	b.n	8005378 <_dtoa_r+0x6e8>
 8005808:	9a08      	ldr	r2, [sp, #32]
 800580a:	429a      	cmp	r2, r3
 800580c:	d1a7      	bne.n	800575e <_dtoa_r+0xace>
 800580e:	9b0c      	ldr	r3, [sp, #48]	@ 0x30
 8005810:	3301      	adds	r3, #1
 8005812:	930c      	str	r3, [sp, #48]	@ 0x30
 8005814:	2331      	movs	r3, #49	@ 0x31
 8005816:	7013      	strb	r3, [r2, #0]
 8005818:	e5ae      	b.n	8005378 <_dtoa_r+0x6e8>
 800581a:	4b15      	ldr	r3, [pc, #84]	@ (8005870 <_dtoa_r+0xbe0>)
 800581c:	9a26      	ldr	r2, [sp, #152]	@ 0x98
 800581e:	9308      	str	r3, [sp, #32]
 8005820:	4b14      	ldr	r3, [pc, #80]	@ (8005874 <_dtoa_r+0xbe4>)
 8005822:	2a00      	cmp	r2, #0
 8005824:	d001      	beq.n	800582a <_dtoa_r+0xb9a>
 8005826:	f7ff fa7b 	bl	8004d20 <_dtoa_r+0x90>
 800582a:	f7ff fa7b 	bl	8004d24 <_dtoa_r+0x94>
 800582e:	9b22      	ldr	r3, [sp, #136]	@ 0x88
 8005830:	2b01      	cmp	r3, #1
 8005832:	dc00      	bgt.n	8005836 <_dtoa_r+0xba6>
 8005834:	e648      	b.n	80054c8 <_dtoa_r+0x838>
 8005836:	2001      	movs	r0, #1
 8005838:	9d14      	ldr	r5, [sp, #80]	@ 0x50
 800583a:	e665      	b.n	8005508 <_dtoa_r+0x878>
 800583c:	9b0e      	ldr	r3, [sp, #56]	@ 0x38
 800583e:	2b00      	cmp	r3, #0
 8005840:	dc00      	bgt.n	8005844 <_dtoa_r+0xbb4>
 8005842:	e6d6      	b.n	80055f2 <_dtoa_r+0x962>
 8005844:	2400      	movs	r4, #0
 8005846:	0031      	movs	r1, r6
 8005848:	9805      	ldr	r0, [sp, #20]
 800584a:	f7ff f993 	bl	8004b74 <quorem>
 800584e:	9b08      	ldr	r3, [sp, #32]
 8005850:	3030      	adds	r0, #48	@ 0x30
 8005852:	5518      	strb	r0, [r3, r4]
 8005854:	9b0e      	ldr	r3, [sp, #56]	@ 0x38
 8005856:	3401      	adds	r4, #1
 8005858:	0005      	movs	r5, r0
 800585a:	429c      	cmp	r4, r3
 800585c:	dab6      	bge.n	80057cc <_dtoa_r+0xb3c>
 800585e:	2300      	movs	r3, #0
 8005860:	220a      	movs	r2, #10
 8005862:	9905      	ldr	r1, [sp, #20]
 8005864:	9803      	ldr	r0, [sp, #12]
 8005866:	f000 fb3b 	bl	8005ee0 <__multadd>
 800586a:	9005      	str	r0, [sp, #20]
 800586c:	e7eb      	b.n	8005846 <_dtoa_r+0xbb6>
 800586e:	46c0      	nop			@ (mov r8, r8)
 8005870:	080073a3 	.word	0x080073a3
 8005874:	080073ab 	.word	0x080073ab

08005878 <__ssputs_r>:
 8005878:	b5f0      	push	{r4, r5, r6, r7, lr}
 800587a:	688e      	ldr	r6, [r1, #8]
 800587c:	b085      	sub	sp, #20
 800587e:	001f      	movs	r7, r3
 8005880:	000c      	movs	r4, r1
 8005882:	680b      	ldr	r3, [r1, #0]
 8005884:	9002      	str	r0, [sp, #8]
 8005886:	9203      	str	r2, [sp, #12]
 8005888:	42be      	cmp	r6, r7
 800588a:	d830      	bhi.n	80058ee <__ssputs_r+0x76>
 800588c:	210c      	movs	r1, #12
 800588e:	5e62      	ldrsh	r2, [r4, r1]
 8005890:	2190      	movs	r1, #144	@ 0x90
 8005892:	00c9      	lsls	r1, r1, #3
 8005894:	420a      	tst	r2, r1
 8005896:	d028      	beq.n	80058ea <__ssputs_r+0x72>
 8005898:	2003      	movs	r0, #3
 800589a:	6921      	ldr	r1, [r4, #16]
 800589c:	1a5b      	subs	r3, r3, r1
 800589e:	9301      	str	r3, [sp, #4]
 80058a0:	6963      	ldr	r3, [r4, #20]
 80058a2:	4343      	muls	r3, r0
 80058a4:	9801      	ldr	r0, [sp, #4]
 80058a6:	0fdd      	lsrs	r5, r3, #31
 80058a8:	18ed      	adds	r5, r5, r3
 80058aa:	1c7b      	adds	r3, r7, #1
 80058ac:	181b      	adds	r3, r3, r0
 80058ae:	106d      	asrs	r5, r5, #1
 80058b0:	42ab      	cmp	r3, r5
 80058b2:	d900      	bls.n	80058b6 <__ssputs_r+0x3e>
 80058b4:	001d      	movs	r5, r3
 80058b6:	0552      	lsls	r2, r2, #21
 80058b8:	d528      	bpl.n	800590c <__ssputs_r+0x94>
 80058ba:	0029      	movs	r1, r5
 80058bc:	9802      	ldr	r0, [sp, #8]
 80058be:	f000 f965 	bl	8005b8c <_malloc_r>
 80058c2:	1e06      	subs	r6, r0, #0
 80058c4:	d02c      	beq.n	8005920 <__ssputs_r+0xa8>
 80058c6:	9a01      	ldr	r2, [sp, #4]
 80058c8:	6921      	ldr	r1, [r4, #16]
 80058ca:	f000 ff33 	bl	8006734 <memcpy>
 80058ce:	89a2      	ldrh	r2, [r4, #12]
 80058d0:	4b18      	ldr	r3, [pc, #96]	@ (8005934 <__ssputs_r+0xbc>)
 80058d2:	401a      	ands	r2, r3
 80058d4:	2380      	movs	r3, #128	@ 0x80
 80058d6:	4313      	orrs	r3, r2
 80058d8:	81a3      	strh	r3, [r4, #12]
 80058da:	9b01      	ldr	r3, [sp, #4]
 80058dc:	6126      	str	r6, [r4, #16]
 80058de:	18f6      	adds	r6, r6, r3
 80058e0:	6026      	str	r6, [r4, #0]
 80058e2:	003e      	movs	r6, r7
 80058e4:	6165      	str	r5, [r4, #20]
 80058e6:	1aed      	subs	r5, r5, r3
 80058e8:	60a5      	str	r5, [r4, #8]
 80058ea:	42be      	cmp	r6, r7
 80058ec:	d900      	bls.n	80058f0 <__ssputs_r+0x78>
 80058ee:	003e      	movs	r6, r7
 80058f0:	0032      	movs	r2, r6
 80058f2:	9903      	ldr	r1, [sp, #12]
 80058f4:	6820      	ldr	r0, [r4, #0]
 80058f6:	f000 feaa 	bl	800664e <memmove>
 80058fa:	2000      	movs	r0, #0
 80058fc:	68a3      	ldr	r3, [r4, #8]
 80058fe:	1b9b      	subs	r3, r3, r6
 8005900:	60a3      	str	r3, [r4, #8]
 8005902:	6823      	ldr	r3, [r4, #0]
 8005904:	199b      	adds	r3, r3, r6
 8005906:	6023      	str	r3, [r4, #0]
 8005908:	b005      	add	sp, #20
 800590a:	bdf0      	pop	{r4, r5, r6, r7, pc}
 800590c:	002a      	movs	r2, r5
 800590e:	9802      	ldr	r0, [sp, #8]
 8005910:	f000 fe6e 	bl	80065f0 <_realloc_r>
 8005914:	1e06      	subs	r6, r0, #0
 8005916:	d1e0      	bne.n	80058da <__ssputs_r+0x62>
 8005918:	6921      	ldr	r1, [r4, #16]
 800591a:	9802      	ldr	r0, [sp, #8]
 800591c:	f000 ff60 	bl	80067e0 <_free_r>
 8005920:	230c      	movs	r3, #12
 8005922:	2001      	movs	r0, #1
 8005924:	9a02      	ldr	r2, [sp, #8]
 8005926:	4240      	negs	r0, r0
 8005928:	6013      	str	r3, [r2, #0]
 800592a:	89a2      	ldrh	r2, [r4, #12]
 800592c:	3334      	adds	r3, #52	@ 0x34
 800592e:	4313      	orrs	r3, r2
 8005930:	81a3      	strh	r3, [r4, #12]
 8005932:	e7e9      	b.n	8005908 <__ssputs_r+0x90>
 8005934:	fffffb7f 	.word	0xfffffb7f

08005938 <_svfiprintf_r>:
 8005938:	b5f0      	push	{r4, r5, r6, r7, lr}
 800593a:	b0a1      	sub	sp, #132	@ 0x84
 800593c:	9003      	str	r0, [sp, #12]
 800593e:	001d      	movs	r5, r3
 8005940:	898b      	ldrh	r3, [r1, #12]
 8005942:	000f      	movs	r7, r1
 8005944:	0016      	movs	r6, r2
 8005946:	061b      	lsls	r3, r3, #24
 8005948:	d511      	bpl.n	800596e <_svfiprintf_r+0x36>
 800594a:	690b      	ldr	r3, [r1, #16]
 800594c:	2b00      	cmp	r3, #0
 800594e:	d10e      	bne.n	800596e <_svfiprintf_r+0x36>
 8005950:	2140      	movs	r1, #64	@ 0x40
 8005952:	f000 f91b 	bl	8005b8c <_malloc_r>
 8005956:	6038      	str	r0, [r7, #0]
 8005958:	6138      	str	r0, [r7, #16]
 800595a:	2800      	cmp	r0, #0
 800595c:	d105      	bne.n	800596a <_svfiprintf_r+0x32>
 800595e:	230c      	movs	r3, #12
 8005960:	9a03      	ldr	r2, [sp, #12]
 8005962:	6013      	str	r3, [r2, #0]
 8005964:	2001      	movs	r0, #1
 8005966:	4240      	negs	r0, r0
 8005968:	e0cf      	b.n	8005b0a <_svfiprintf_r+0x1d2>
 800596a:	2340      	movs	r3, #64	@ 0x40
 800596c:	617b      	str	r3, [r7, #20]
 800596e:	2300      	movs	r3, #0
 8005970:	ac08      	add	r4, sp, #32
 8005972:	6163      	str	r3, [r4, #20]
 8005974:	3320      	adds	r3, #32
 8005976:	7663      	strb	r3, [r4, #25]
 8005978:	3310      	adds	r3, #16
 800597a:	76a3      	strb	r3, [r4, #26]
 800597c:	9507      	str	r5, [sp, #28]
 800597e:	0035      	movs	r5, r6
 8005980:	782b      	ldrb	r3, [r5, #0]
 8005982:	2b00      	cmp	r3, #0
 8005984:	d001      	beq.n	800598a <_svfiprintf_r+0x52>
 8005986:	2b25      	cmp	r3, #37	@ 0x25
 8005988:	d148      	bne.n	8005a1c <_svfiprintf_r+0xe4>
 800598a:	1bab      	subs	r3, r5, r6
 800598c:	9305      	str	r3, [sp, #20]
 800598e:	42b5      	cmp	r5, r6
 8005990:	d00b      	beq.n	80059aa <_svfiprintf_r+0x72>
 8005992:	0032      	movs	r2, r6
 8005994:	0039      	movs	r1, r7
 8005996:	9803      	ldr	r0, [sp, #12]
 8005998:	f7ff ff6e 	bl	8005878 <__ssputs_r>
 800599c:	3001      	adds	r0, #1
 800599e:	d100      	bne.n	80059a2 <_svfiprintf_r+0x6a>
 80059a0:	e0ae      	b.n	8005b00 <_svfiprintf_r+0x1c8>
 80059a2:	6963      	ldr	r3, [r4, #20]
 80059a4:	9a05      	ldr	r2, [sp, #20]
 80059a6:	189b      	adds	r3, r3, r2
 80059a8:	6163      	str	r3, [r4, #20]
 80059aa:	782b      	ldrb	r3, [r5, #0]
 80059ac:	2b00      	cmp	r3, #0
 80059ae:	d100      	bne.n	80059b2 <_svfiprintf_r+0x7a>
 80059b0:	e0a6      	b.n	8005b00 <_svfiprintf_r+0x1c8>
 80059b2:	2201      	movs	r2, #1
 80059b4:	2300      	movs	r3, #0
 80059b6:	4252      	negs	r2, r2
 80059b8:	6062      	str	r2, [r4, #4]
 80059ba:	a904      	add	r1, sp, #16
 80059bc:	3254      	adds	r2, #84	@ 0x54
 80059be:	1852      	adds	r2, r2, r1
 80059c0:	1c6e      	adds	r6, r5, #1
 80059c2:	6023      	str	r3, [r4, #0]
 80059c4:	60e3      	str	r3, [r4, #12]
 80059c6:	60a3      	str	r3, [r4, #8]
 80059c8:	7013      	strb	r3, [r2, #0]
 80059ca:	65a3      	str	r3, [r4, #88]	@ 0x58
 80059cc:	4b54      	ldr	r3, [pc, #336]	@ (8005b20 <_svfiprintf_r+0x1e8>)
 80059ce:	2205      	movs	r2, #5
 80059d0:	0018      	movs	r0, r3
 80059d2:	7831      	ldrb	r1, [r6, #0]
 80059d4:	9305      	str	r3, [sp, #20]
 80059d6:	f7ff f8c2 	bl	8004b5e <memchr>
 80059da:	1c75      	adds	r5, r6, #1
 80059dc:	2800      	cmp	r0, #0
 80059de:	d11f      	bne.n	8005a20 <_svfiprintf_r+0xe8>
 80059e0:	6822      	ldr	r2, [r4, #0]
 80059e2:	06d3      	lsls	r3, r2, #27
 80059e4:	d504      	bpl.n	80059f0 <_svfiprintf_r+0xb8>
 80059e6:	2353      	movs	r3, #83	@ 0x53
 80059e8:	a904      	add	r1, sp, #16
 80059ea:	185b      	adds	r3, r3, r1
 80059ec:	2120      	movs	r1, #32
 80059ee:	7019      	strb	r1, [r3, #0]
 80059f0:	0713      	lsls	r3, r2, #28
 80059f2:	d504      	bpl.n	80059fe <_svfiprintf_r+0xc6>
 80059f4:	2353      	movs	r3, #83	@ 0x53
 80059f6:	a904      	add	r1, sp, #16
 80059f8:	185b      	adds	r3, r3, r1
 80059fa:	212b      	movs	r1, #43	@ 0x2b
 80059fc:	7019      	strb	r1, [r3, #0]
 80059fe:	7833      	ldrb	r3, [r6, #0]
 8005a00:	2b2a      	cmp	r3, #42	@ 0x2a
 8005a02:	d016      	beq.n	8005a32 <_svfiprintf_r+0xfa>
 8005a04:	0035      	movs	r5, r6
 8005a06:	2100      	movs	r1, #0
 8005a08:	200a      	movs	r0, #10
 8005a0a:	68e3      	ldr	r3, [r4, #12]
 8005a0c:	782a      	ldrb	r2, [r5, #0]
 8005a0e:	1c6e      	adds	r6, r5, #1
 8005a10:	3a30      	subs	r2, #48	@ 0x30
 8005a12:	2a09      	cmp	r2, #9
 8005a14:	d950      	bls.n	8005ab8 <_svfiprintf_r+0x180>
 8005a16:	2900      	cmp	r1, #0
 8005a18:	d111      	bne.n	8005a3e <_svfiprintf_r+0x106>
 8005a1a:	e017      	b.n	8005a4c <_svfiprintf_r+0x114>
 8005a1c:	3501      	adds	r5, #1
 8005a1e:	e7af      	b.n	8005980 <_svfiprintf_r+0x48>
 8005a20:	9b05      	ldr	r3, [sp, #20]
 8005a22:	6822      	ldr	r2, [r4, #0]
 8005a24:	1ac0      	subs	r0, r0, r3
 8005a26:	2301      	movs	r3, #1
 8005a28:	4083      	lsls	r3, r0
 8005a2a:	4313      	orrs	r3, r2
 8005a2c:	002e      	movs	r6, r5
 8005a2e:	6023      	str	r3, [r4, #0]
 8005a30:	e7cc      	b.n	80059cc <_svfiprintf_r+0x94>
 8005a32:	9b07      	ldr	r3, [sp, #28]
 8005a34:	1d19      	adds	r1, r3, #4
 8005a36:	681b      	ldr	r3, [r3, #0]
 8005a38:	9107      	str	r1, [sp, #28]
 8005a3a:	2b00      	cmp	r3, #0
 8005a3c:	db01      	blt.n	8005a42 <_svfiprintf_r+0x10a>
 8005a3e:	930b      	str	r3, [sp, #44]	@ 0x2c
 8005a40:	e004      	b.n	8005a4c <_svfiprintf_r+0x114>
 8005a42:	425b      	negs	r3, r3
 8005a44:	60e3      	str	r3, [r4, #12]
 8005a46:	2302      	movs	r3, #2
 8005a48:	4313      	orrs	r3, r2
 8005a4a:	6023      	str	r3, [r4, #0]
 8005a4c:	782b      	ldrb	r3, [r5, #0]
 8005a4e:	2b2e      	cmp	r3, #46	@ 0x2e
 8005a50:	d10c      	bne.n	8005a6c <_svfiprintf_r+0x134>
 8005a52:	786b      	ldrb	r3, [r5, #1]
 8005a54:	2b2a      	cmp	r3, #42	@ 0x2a
 8005a56:	d134      	bne.n	8005ac2 <_svfiprintf_r+0x18a>
 8005a58:	9b07      	ldr	r3, [sp, #28]
 8005a5a:	3502      	adds	r5, #2
 8005a5c:	1d1a      	adds	r2, r3, #4
 8005a5e:	681b      	ldr	r3, [r3, #0]
 8005a60:	9207      	str	r2, [sp, #28]
 8005a62:	2b00      	cmp	r3, #0
 8005a64:	da01      	bge.n	8005a6a <_svfiprintf_r+0x132>
 8005a66:	2301      	movs	r3, #1
 8005a68:	425b      	negs	r3, r3
 8005a6a:	9309      	str	r3, [sp, #36]	@ 0x24
 8005a6c:	4e2d      	ldr	r6, [pc, #180]	@ (8005b24 <_svfiprintf_r+0x1ec>)
 8005a6e:	2203      	movs	r2, #3
 8005a70:	0030      	movs	r0, r6
 8005a72:	7829      	ldrb	r1, [r5, #0]
 8005a74:	f7ff f873 	bl	8004b5e <memchr>
 8005a78:	2800      	cmp	r0, #0
 8005a7a:	d006      	beq.n	8005a8a <_svfiprintf_r+0x152>
 8005a7c:	2340      	movs	r3, #64	@ 0x40
 8005a7e:	1b80      	subs	r0, r0, r6
 8005a80:	4083      	lsls	r3, r0
 8005a82:	6822      	ldr	r2, [r4, #0]
 8005a84:	3501      	adds	r5, #1
 8005a86:	4313      	orrs	r3, r2
 8005a88:	6023      	str	r3, [r4, #0]
 8005a8a:	7829      	ldrb	r1, [r5, #0]
 8005a8c:	2206      	movs	r2, #6
 8005a8e:	4826      	ldr	r0, [pc, #152]	@ (8005b28 <_svfiprintf_r+0x1f0>)
 8005a90:	1c6e      	adds	r6, r5, #1
 8005a92:	7621      	strb	r1, [r4, #24]
 8005a94:	f7ff f863 	bl	8004b5e <memchr>
 8005a98:	2800      	cmp	r0, #0
 8005a9a:	d038      	beq.n	8005b0e <_svfiprintf_r+0x1d6>
 8005a9c:	4b23      	ldr	r3, [pc, #140]	@ (8005b2c <_svfiprintf_r+0x1f4>)
 8005a9e:	2b00      	cmp	r3, #0
 8005aa0:	d122      	bne.n	8005ae8 <_svfiprintf_r+0x1b0>
 8005aa2:	2207      	movs	r2, #7
 8005aa4:	9b07      	ldr	r3, [sp, #28]
 8005aa6:	3307      	adds	r3, #7
 8005aa8:	4393      	bics	r3, r2
 8005aaa:	3308      	adds	r3, #8
 8005aac:	9307      	str	r3, [sp, #28]
 8005aae:	6963      	ldr	r3, [r4, #20]
 8005ab0:	9a04      	ldr	r2, [sp, #16]
 8005ab2:	189b      	adds	r3, r3, r2
 8005ab4:	6163      	str	r3, [r4, #20]
 8005ab6:	e762      	b.n	800597e <_svfiprintf_r+0x46>
 8005ab8:	4343      	muls	r3, r0
 8005aba:	0035      	movs	r5, r6
 8005abc:	2101      	movs	r1, #1
 8005abe:	189b      	adds	r3, r3, r2
 8005ac0:	e7a4      	b.n	8005a0c <_svfiprintf_r+0xd4>
 8005ac2:	2300      	movs	r3, #0
 8005ac4:	200a      	movs	r0, #10
 8005ac6:	0019      	movs	r1, r3
 8005ac8:	3501      	adds	r5, #1
 8005aca:	6063      	str	r3, [r4, #4]
 8005acc:	782a      	ldrb	r2, [r5, #0]
 8005ace:	1c6e      	adds	r6, r5, #1
 8005ad0:	3a30      	subs	r2, #48	@ 0x30
 8005ad2:	2a09      	cmp	r2, #9
 8005ad4:	d903      	bls.n	8005ade <_svfiprintf_r+0x1a6>
 8005ad6:	2b00      	cmp	r3, #0
 8005ad8:	d0c8      	beq.n	8005a6c <_svfiprintf_r+0x134>
 8005ada:	9109      	str	r1, [sp, #36]	@ 0x24
 8005adc:	e7c6      	b.n	8005a6c <_svfiprintf_r+0x134>
 8005ade:	4341      	muls	r1, r0
 8005ae0:	0035      	movs	r5, r6
 8005ae2:	2301      	movs	r3, #1
 8005ae4:	1889      	adds	r1, r1, r2
 8005ae6:	e7f1      	b.n	8005acc <_svfiprintf_r+0x194>
 8005ae8:	aa07      	add	r2, sp, #28
 8005aea:	9200      	str	r2, [sp, #0]
 8005aec:	0021      	movs	r1, r4
 8005aee:	003a      	movs	r2, r7
 8005af0:	4b0f      	ldr	r3, [pc, #60]	@ (8005b30 <_svfiprintf_r+0x1f8>)
 8005af2:	9803      	ldr	r0, [sp, #12]
 8005af4:	f7fe fb5a 	bl	80041ac <_printf_float>
 8005af8:	9004      	str	r0, [sp, #16]
 8005afa:	9b04      	ldr	r3, [sp, #16]
 8005afc:	3301      	adds	r3, #1
 8005afe:	d1d6      	bne.n	8005aae <_svfiprintf_r+0x176>
 8005b00:	89bb      	ldrh	r3, [r7, #12]
 8005b02:	980d      	ldr	r0, [sp, #52]	@ 0x34
 8005b04:	065b      	lsls	r3, r3, #25
 8005b06:	d500      	bpl.n	8005b0a <_svfiprintf_r+0x1d2>
 8005b08:	e72c      	b.n	8005964 <_svfiprintf_r+0x2c>
 8005b0a:	b021      	add	sp, #132	@ 0x84
 8005b0c:	bdf0      	pop	{r4, r5, r6, r7, pc}
 8005b0e:	aa07      	add	r2, sp, #28
 8005b10:	9200      	str	r2, [sp, #0]
 8005b12:	0021      	movs	r1, r4
 8005b14:	003a      	movs	r2, r7
 8005b16:	4b06      	ldr	r3, [pc, #24]	@ (8005b30 <_svfiprintf_r+0x1f8>)
 8005b18:	9803      	ldr	r0, [sp, #12]
 8005b1a:	f7fe fdf5 	bl	8004708 <_printf_i>
 8005b1e:	e7eb      	b.n	8005af8 <_svfiprintf_r+0x1c0>
 8005b20:	08007430 	.word	0x08007430
 8005b24:	08007436 	.word	0x08007436
 8005b28:	0800743a 	.word	0x0800743a
 8005b2c:	080041ad 	.word	0x080041ad
 8005b30:	08005879 	.word	0x08005879

08005b34 <malloc>:
 8005b34:	b510      	push	{r4, lr}
 8005b36:	4b03      	ldr	r3, [pc, #12]	@ (8005b44 <malloc+0x10>)
 8005b38:	0001      	movs	r1, r0
 8005b3a:	6818      	ldr	r0, [r3, #0]
 8005b3c:	f000 f826 	bl	8005b8c <_malloc_r>
 8005b40:	bd10      	pop	{r4, pc}
 8005b42:	46c0      	nop			@ (mov r8, r8)
 8005b44:	20000018 	.word	0x20000018

08005b48 <sbrk_aligned>:
 8005b48:	b570      	push	{r4, r5, r6, lr}
 8005b4a:	4e0f      	ldr	r6, [pc, #60]	@ (8005b88 <sbrk_aligned+0x40>)
 8005b4c:	000d      	movs	r5, r1
 8005b4e:	6831      	ldr	r1, [r6, #0]
 8005b50:	0004      	movs	r4, r0
 8005b52:	2900      	cmp	r1, #0
 8005b54:	d102      	bne.n	8005b5c <sbrk_aligned+0x14>
 8005b56:	f000 fdc7 	bl	80066e8 <_sbrk_r>
 8005b5a:	6030      	str	r0, [r6, #0]
 8005b5c:	0029      	movs	r1, r5
 8005b5e:	0020      	movs	r0, r4
 8005b60:	f000 fdc2 	bl	80066e8 <_sbrk_r>
 8005b64:	1c43      	adds	r3, r0, #1
 8005b66:	d103      	bne.n	8005b70 <sbrk_aligned+0x28>
 8005b68:	2501      	movs	r5, #1
 8005b6a:	426d      	negs	r5, r5
 8005b6c:	0028      	movs	r0, r5
 8005b6e:	bd70      	pop	{r4, r5, r6, pc}
 8005b70:	2303      	movs	r3, #3
 8005b72:	1cc5      	adds	r5, r0, #3
 8005b74:	439d      	bics	r5, r3
 8005b76:	42a8      	cmp	r0, r5
 8005b78:	d0f8      	beq.n	8005b6c <sbrk_aligned+0x24>
 8005b7a:	1a29      	subs	r1, r5, r0
 8005b7c:	0020      	movs	r0, r4
 8005b7e:	f000 fdb3 	bl	80066e8 <_sbrk_r>
 8005b82:	3001      	adds	r0, #1
 8005b84:	d1f2      	bne.n	8005b6c <sbrk_aligned+0x24>
 8005b86:	e7ef      	b.n	8005b68 <sbrk_aligned+0x20>
 8005b88:	2000050c 	.word	0x2000050c

08005b8c <_malloc_r>:
 8005b8c:	b5f7      	push	{r0, r1, r2, r4, r5, r6, r7, lr}
 8005b8e:	2203      	movs	r2, #3
 8005b90:	1ccb      	adds	r3, r1, #3
 8005b92:	4393      	bics	r3, r2
 8005b94:	3308      	adds	r3, #8
 8005b96:	0005      	movs	r5, r0
 8005b98:	001f      	movs	r7, r3
 8005b9a:	2b0c      	cmp	r3, #12
 8005b9c:	d234      	bcs.n	8005c08 <_malloc_r+0x7c>
 8005b9e:	270c      	movs	r7, #12
 8005ba0:	42b9      	cmp	r1, r7
 8005ba2:	d833      	bhi.n	8005c0c <_malloc_r+0x80>
 8005ba4:	0028      	movs	r0, r5
 8005ba6:	f000 f923 	bl	8005df0 <__malloc_lock>
 8005baa:	4e37      	ldr	r6, [pc, #220]	@ (8005c88 <_malloc_r+0xfc>)
 8005bac:	6833      	ldr	r3, [r6, #0]
 8005bae:	001c      	movs	r4, r3
 8005bb0:	2c00      	cmp	r4, #0
 8005bb2:	d12f      	bne.n	8005c14 <_malloc_r+0x88>
 8005bb4:	0039      	movs	r1, r7
 8005bb6:	0028      	movs	r0, r5
 8005bb8:	f7ff ffc6 	bl	8005b48 <sbrk_aligned>
 8005bbc:	0004      	movs	r4, r0
 8005bbe:	1c43      	adds	r3, r0, #1
 8005bc0:	d15f      	bne.n	8005c82 <_malloc_r+0xf6>
 8005bc2:	6834      	ldr	r4, [r6, #0]
 8005bc4:	9400      	str	r4, [sp, #0]
 8005bc6:	9b00      	ldr	r3, [sp, #0]
 8005bc8:	2b00      	cmp	r3, #0
 8005bca:	d14a      	bne.n	8005c62 <_malloc_r+0xd6>
 8005bcc:	2c00      	cmp	r4, #0
 8005bce:	d052      	beq.n	8005c76 <_malloc_r+0xea>
 8005bd0:	6823      	ldr	r3, [r4, #0]
 8005bd2:	0028      	movs	r0, r5
 8005bd4:	18e3      	adds	r3, r4, r3
 8005bd6:	9900      	ldr	r1, [sp, #0]
 8005bd8:	9301      	str	r3, [sp, #4]
 8005bda:	f000 fd85 	bl	80066e8 <_sbrk_r>
 8005bde:	9b01      	ldr	r3, [sp, #4]
 8005be0:	4283      	cmp	r3, r0
 8005be2:	d148      	bne.n	8005c76 <_malloc_r+0xea>
 8005be4:	6823      	ldr	r3, [r4, #0]
 8005be6:	0028      	movs	r0, r5
 8005be8:	1aff      	subs	r7, r7, r3
 8005bea:	0039      	movs	r1, r7
 8005bec:	f7ff ffac 	bl	8005b48 <sbrk_aligned>
 8005bf0:	3001      	adds	r0, #1
 8005bf2:	d040      	beq.n	8005c76 <_malloc_r+0xea>
 8005bf4:	6823      	ldr	r3, [r4, #0]
 8005bf6:	19db      	adds	r3, r3, r7
 8005bf8:	6023      	str	r3, [r4, #0]
 8005bfa:	6833      	ldr	r3, [r6, #0]
 8005bfc:	685a      	ldr	r2, [r3, #4]
 8005bfe:	2a00      	cmp	r2, #0
 8005c00:	d133      	bne.n	8005c6a <_malloc_r+0xde>
 8005c02:	9b00      	ldr	r3, [sp, #0]
 8005c04:	6033      	str	r3, [r6, #0]
 8005c06:	e019      	b.n	8005c3c <_malloc_r+0xb0>
 8005c08:	2b00      	cmp	r3, #0
 8005c0a:	dac9      	bge.n	8005ba0 <_malloc_r+0x14>
 8005c0c:	230c      	movs	r3, #12
 8005c0e:	602b      	str	r3, [r5, #0]
 8005c10:	2000      	movs	r0, #0
 8005c12:	bdfe      	pop	{r1, r2, r3, r4, r5, r6, r7, pc}
 8005c14:	6821      	ldr	r1, [r4, #0]
 8005c16:	1bc9      	subs	r1, r1, r7
 8005c18:	d420      	bmi.n	8005c5c <_malloc_r+0xd0>
 8005c1a:	290b      	cmp	r1, #11
 8005c1c:	d90a      	bls.n	8005c34 <_malloc_r+0xa8>
 8005c1e:	19e2      	adds	r2, r4, r7
 8005c20:	6027      	str	r7, [r4, #0]
 8005c22:	42a3      	cmp	r3, r4
 8005c24:	d104      	bne.n	8005c30 <_malloc_r+0xa4>
 8005c26:	6032      	str	r2, [r6, #0]
 8005c28:	6863      	ldr	r3, [r4, #4]
 8005c2a:	6011      	str	r1, [r2, #0]
 8005c2c:	6053      	str	r3, [r2, #4]
 8005c2e:	e005      	b.n	8005c3c <_malloc_r+0xb0>
 8005c30:	605a      	str	r2, [r3, #4]
 8005c32:	e7f9      	b.n	8005c28 <_malloc_r+0x9c>
 8005c34:	6862      	ldr	r2, [r4, #4]
 8005c36:	42a3      	cmp	r3, r4
 8005c38:	d10e      	bne.n	8005c58 <_malloc_r+0xcc>
 8005c3a:	6032      	str	r2, [r6, #0]
 8005c3c:	0028      	movs	r0, r5
 8005c3e:	f000 f8df 	bl	8005e00 <__malloc_unlock>
 8005c42:	0020      	movs	r0, r4
 8005c44:	2207      	movs	r2, #7
 8005c46:	300b      	adds	r0, #11
 8005c48:	1d23      	adds	r3, r4, #4
 8005c4a:	4390      	bics	r0, r2
 8005c4c:	1ac2      	subs	r2, r0, r3
 8005c4e:	4298      	cmp	r0, r3
 8005c50:	d0df      	beq.n	8005c12 <_malloc_r+0x86>
 8005c52:	1a1b      	subs	r3, r3, r0
 8005c54:	50a3      	str	r3, [r4, r2]
 8005c56:	e7dc      	b.n	8005c12 <_malloc_r+0x86>
 8005c58:	605a      	str	r2, [r3, #4]
 8005c5a:	e7ef      	b.n	8005c3c <_malloc_r+0xb0>
 8005c5c:	0023      	movs	r3, r4
 8005c5e:	6864      	ldr	r4, [r4, #4]
 8005c60:	e7a6      	b.n	8005bb0 <_malloc_r+0x24>
 8005c62:	9c00      	ldr	r4, [sp, #0]
 8005c64:	6863      	ldr	r3, [r4, #4]
 8005c66:	9300      	str	r3, [sp, #0]
 8005c68:	e7ad      	b.n	8005bc6 <_malloc_r+0x3a>
 8005c6a:	001a      	movs	r2, r3
 8005c6c:	685b      	ldr	r3, [r3, #4]
 8005c6e:	42a3      	cmp	r3, r4
 8005c70:	d1fb      	bne.n	8005c6a <_malloc_r+0xde>
 8005c72:	2300      	movs	r3, #0
 8005c74:	e7da      	b.n	8005c2c <_malloc_r+0xa0>
 8005c76:	230c      	movs	r3, #12
 8005c78:	0028      	movs	r0, r5
 8005c7a:	602b      	str	r3, [r5, #0]
 8005c7c:	f000 f8c0 	bl	8005e00 <__malloc_unlock>
 8005c80:	e7c6      	b.n	8005c10 <_malloc_r+0x84>
 8005c82:	6007      	str	r7, [r0, #0]
 8005c84:	e7da      	b.n	8005c3c <_malloc_r+0xb0>
 8005c86:	46c0      	nop			@ (mov r8, r8)
 8005c88:	20000510 	.word	0x20000510

08005c8c <__sflush_r>:
 8005c8c:	b5f7      	push	{r0, r1, r2, r4, r5, r6, r7, lr}
 8005c8e:	220c      	movs	r2, #12
 8005c90:	5e8b      	ldrsh	r3, [r1, r2]
 8005c92:	0005      	movs	r5, r0
 8005c94:	000c      	movs	r4, r1
 8005c96:	071a      	lsls	r2, r3, #28
 8005c98:	d456      	bmi.n	8005d48 <__sflush_r+0xbc>
 8005c9a:	684a      	ldr	r2, [r1, #4]
 8005c9c:	2a00      	cmp	r2, #0
 8005c9e:	dc02      	bgt.n	8005ca6 <__sflush_r+0x1a>
 8005ca0:	6c0a      	ldr	r2, [r1, #64]	@ 0x40
 8005ca2:	2a00      	cmp	r2, #0
 8005ca4:	dd4e      	ble.n	8005d44 <__sflush_r+0xb8>
 8005ca6:	6ae7      	ldr	r7, [r4, #44]	@ 0x2c
 8005ca8:	2f00      	cmp	r7, #0
 8005caa:	d04b      	beq.n	8005d44 <__sflush_r+0xb8>
 8005cac:	2200      	movs	r2, #0
 8005cae:	2080      	movs	r0, #128	@ 0x80
 8005cb0:	682e      	ldr	r6, [r5, #0]
 8005cb2:	602a      	str	r2, [r5, #0]
 8005cb4:	001a      	movs	r2, r3
 8005cb6:	0140      	lsls	r0, r0, #5
 8005cb8:	6a21      	ldr	r1, [r4, #32]
 8005cba:	4002      	ands	r2, r0
 8005cbc:	4203      	tst	r3, r0
 8005cbe:	d033      	beq.n	8005d28 <__sflush_r+0x9c>
 8005cc0:	6d62      	ldr	r2, [r4, #84]	@ 0x54
 8005cc2:	89a3      	ldrh	r3, [r4, #12]
 8005cc4:	075b      	lsls	r3, r3, #29
 8005cc6:	d506      	bpl.n	8005cd6 <__sflush_r+0x4a>
 8005cc8:	6863      	ldr	r3, [r4, #4]
 8005cca:	1ad2      	subs	r2, r2, r3
 8005ccc:	6b63      	ldr	r3, [r4, #52]	@ 0x34
 8005cce:	2b00      	cmp	r3, #0
 8005cd0:	d001      	beq.n	8005cd6 <__sflush_r+0x4a>
 8005cd2:	6c23      	ldr	r3, [r4, #64]	@ 0x40
 8005cd4:	1ad2      	subs	r2, r2, r3
 8005cd6:	2300      	movs	r3, #0
 8005cd8:	0028      	movs	r0, r5
 8005cda:	6ae7      	ldr	r7, [r4, #44]	@ 0x2c
 8005cdc:	6a21      	ldr	r1, [r4, #32]
 8005cde:	47b8      	blx	r7
 8005ce0:	89a2      	ldrh	r2, [r4, #12]
 8005ce2:	1c43      	adds	r3, r0, #1
 8005ce4:	d106      	bne.n	8005cf4 <__sflush_r+0x68>
 8005ce6:	6829      	ldr	r1, [r5, #0]
 8005ce8:	291d      	cmp	r1, #29
 8005cea:	d846      	bhi.n	8005d7a <__sflush_r+0xee>
 8005cec:	4b29      	ldr	r3, [pc, #164]	@ (8005d94 <__sflush_r+0x108>)
 8005cee:	410b      	asrs	r3, r1
 8005cf0:	07db      	lsls	r3, r3, #31
 8005cf2:	d442      	bmi.n	8005d7a <__sflush_r+0xee>
 8005cf4:	2300      	movs	r3, #0
 8005cf6:	6063      	str	r3, [r4, #4]
 8005cf8:	6923      	ldr	r3, [r4, #16]
 8005cfa:	6023      	str	r3, [r4, #0]
 8005cfc:	04d2      	lsls	r2, r2, #19
 8005cfe:	d505      	bpl.n	8005d0c <__sflush_r+0x80>
 8005d00:	1c43      	adds	r3, r0, #1
 8005d02:	d102      	bne.n	8005d0a <__sflush_r+0x7e>
 8005d04:	682b      	ldr	r3, [r5, #0]
 8005d06:	2b00      	cmp	r3, #0
 8005d08:	d100      	bne.n	8005d0c <__sflush_r+0x80>
 8005d0a:	6560      	str	r0, [r4, #84]	@ 0x54
 8005d0c:	6b61      	ldr	r1, [r4, #52]	@ 0x34
 8005d0e:	602e      	str	r6, [r5, #0]
 8005d10:	2900      	cmp	r1, #0
 8005d12:	d017      	beq.n	8005d44 <__sflush_r+0xb8>
 8005d14:	0023      	movs	r3, r4
 8005d16:	3344      	adds	r3, #68	@ 0x44
 8005d18:	4299      	cmp	r1, r3
 8005d1a:	d002      	beq.n	8005d22 <__sflush_r+0x96>
 8005d1c:	0028      	movs	r0, r5
 8005d1e:	f000 fd5f 	bl	80067e0 <_free_r>
 8005d22:	2300      	movs	r3, #0
 8005d24:	6363      	str	r3, [r4, #52]	@ 0x34
 8005d26:	e00d      	b.n	8005d44 <__sflush_r+0xb8>
 8005d28:	2301      	movs	r3, #1
 8005d2a:	0028      	movs	r0, r5
 8005d2c:	47b8      	blx	r7
 8005d2e:	0002      	movs	r2, r0
 8005d30:	1c43      	adds	r3, r0, #1
 8005d32:	d1c6      	bne.n	8005cc2 <__sflush_r+0x36>
 8005d34:	682b      	ldr	r3, [r5, #0]
 8005d36:	2b00      	cmp	r3, #0
 8005d38:	d0c3      	beq.n	8005cc2 <__sflush_r+0x36>
 8005d3a:	2b1d      	cmp	r3, #29
 8005d3c:	d001      	beq.n	8005d42 <__sflush_r+0xb6>
 8005d3e:	2b16      	cmp	r3, #22
 8005d40:	d11a      	bne.n	8005d78 <__sflush_r+0xec>
 8005d42:	602e      	str	r6, [r5, #0]
 8005d44:	2000      	movs	r0, #0
 8005d46:	e01e      	b.n	8005d86 <__sflush_r+0xfa>
 8005d48:	690e      	ldr	r6, [r1, #16]
 8005d4a:	2e00      	cmp	r6, #0
 8005d4c:	d0fa      	beq.n	8005d44 <__sflush_r+0xb8>
 8005d4e:	680f      	ldr	r7, [r1, #0]
 8005d50:	600e      	str	r6, [r1, #0]
 8005d52:	1bba      	subs	r2, r7, r6
 8005d54:	9201      	str	r2, [sp, #4]
 8005d56:	2200      	movs	r2, #0
 8005d58:	079b      	lsls	r3, r3, #30
 8005d5a:	d100      	bne.n	8005d5e <__sflush_r+0xd2>
 8005d5c:	694a      	ldr	r2, [r1, #20]
 8005d5e:	60a2      	str	r2, [r4, #8]
 8005d60:	9b01      	ldr	r3, [sp, #4]
 8005d62:	2b00      	cmp	r3, #0
 8005d64:	ddee      	ble.n	8005d44 <__sflush_r+0xb8>
 8005d66:	6aa3      	ldr	r3, [r4, #40]	@ 0x28
 8005d68:	0032      	movs	r2, r6
 8005d6a:	001f      	movs	r7, r3
 8005d6c:	0028      	movs	r0, r5
 8005d6e:	9b01      	ldr	r3, [sp, #4]
 8005d70:	6a21      	ldr	r1, [r4, #32]
 8005d72:	47b8      	blx	r7
 8005d74:	2800      	cmp	r0, #0
 8005d76:	dc07      	bgt.n	8005d88 <__sflush_r+0xfc>
 8005d78:	89a2      	ldrh	r2, [r4, #12]
 8005d7a:	2340      	movs	r3, #64	@ 0x40
 8005d7c:	2001      	movs	r0, #1
 8005d7e:	4313      	orrs	r3, r2
 8005d80:	b21b      	sxth	r3, r3
 8005d82:	81a3      	strh	r3, [r4, #12]
 8005d84:	4240      	negs	r0, r0
 8005d86:	bdfe      	pop	{r1, r2, r3, r4, r5, r6, r7, pc}
 8005d88:	9b01      	ldr	r3, [sp, #4]
 8005d8a:	1836      	adds	r6, r6, r0
 8005d8c:	1a1b      	subs	r3, r3, r0
 8005d8e:	9301      	str	r3, [sp, #4]
 8005d90:	e7e6      	b.n	8005d60 <__sflush_r+0xd4>
 8005d92:	46c0      	nop			@ (mov r8, r8)
 8005d94:	dfbffffe 	.word	0xdfbffffe

08005d98 <_fflush_r>:
 8005d98:	690b      	ldr	r3, [r1, #16]
 8005d9a:	b570      	push	{r4, r5, r6, lr}
 8005d9c:	0005      	movs	r5, r0
 8005d9e:	000c      	movs	r4, r1
 8005da0:	2b00      	cmp	r3, #0
 8005da2:	d102      	bne.n	8005daa <_fflush_r+0x12>
 8005da4:	2500      	movs	r5, #0
 8005da6:	0028      	movs	r0, r5
 8005da8:	bd70      	pop	{r4, r5, r6, pc}
 8005daa:	2800      	cmp	r0, #0
 8005dac:	d004      	beq.n	8005db8 <_fflush_r+0x20>
 8005dae:	6a03      	ldr	r3, [r0, #32]
 8005db0:	2b00      	cmp	r3, #0
 8005db2:	d101      	bne.n	8005db8 <_fflush_r+0x20>
 8005db4:	f7fe fe66 	bl	8004a84 <__sinit>
 8005db8:	220c      	movs	r2, #12
 8005dba:	5ea3      	ldrsh	r3, [r4, r2]
 8005dbc:	2b00      	cmp	r3, #0
 8005dbe:	d0f1      	beq.n	8005da4 <_fflush_r+0xc>
 8005dc0:	6e62      	ldr	r2, [r4, #100]	@ 0x64
 8005dc2:	07d2      	lsls	r2, r2, #31
 8005dc4:	d404      	bmi.n	8005dd0 <_fflush_r+0x38>
 8005dc6:	059b      	lsls	r3, r3, #22
 8005dc8:	d402      	bmi.n	8005dd0 <_fflush_r+0x38>
 8005dca:	6da0      	ldr	r0, [r4, #88]	@ 0x58
 8005dcc:	f7fe fec5 	bl	8004b5a <__retarget_lock_acquire_recursive>
 8005dd0:	0028      	movs	r0, r5
 8005dd2:	0021      	movs	r1, r4
 8005dd4:	f7ff ff5a 	bl	8005c8c <__sflush_r>
 8005dd8:	6e63      	ldr	r3, [r4, #100]	@ 0x64
 8005dda:	0005      	movs	r5, r0
 8005ddc:	07db      	lsls	r3, r3, #31
 8005dde:	d4e2      	bmi.n	8005da6 <_fflush_r+0xe>
 8005de0:	89a3      	ldrh	r3, [r4, #12]
 8005de2:	059b      	lsls	r3, r3, #22
 8005de4:	d4df      	bmi.n	8005da6 <_fflush_r+0xe>
 8005de6:	6da0      	ldr	r0, [r4, #88]	@ 0x58
 8005de8:	f7fe feb8 	bl	8004b5c <__retarget_lock_release_recursive>
 8005dec:	e7db      	b.n	8005da6 <_fflush_r+0xe>
	...

08005df0 <__malloc_lock>:
 8005df0:	b510      	push	{r4, lr}
 8005df2:	4802      	ldr	r0, [pc, #8]	@ (8005dfc <__malloc_lock+0xc>)
 8005df4:	f7fe feb1 	bl	8004b5a <__retarget_lock_acquire_recursive>
 8005df8:	bd10      	pop	{r4, pc}
 8005dfa:	46c0      	nop			@ (mov r8, r8)
 8005dfc:	20000508 	.word	0x20000508

08005e00 <__malloc_unlock>:
 8005e00:	b510      	push	{r4, lr}
 8005e02:	4802      	ldr	r0, [pc, #8]	@ (8005e0c <__malloc_unlock+0xc>)
 8005e04:	f7fe feaa 	bl	8004b5c <__retarget_lock_release_recursive>
 8005e08:	bd10      	pop	{r4, pc}
 8005e0a:	46c0      	nop			@ (mov r8, r8)
 8005e0c:	20000508 	.word	0x20000508

08005e10 <_Balloc>:
 8005e10:	b570      	push	{r4, r5, r6, lr}
 8005e12:	69c5      	ldr	r5, [r0, #28]
 8005e14:	0006      	movs	r6, r0
 8005e16:	000c      	movs	r4, r1
 8005e18:	2d00      	cmp	r5, #0
 8005e1a:	d10e      	bne.n	8005e3a <_Balloc+0x2a>
 8005e1c:	2010      	movs	r0, #16
 8005e1e:	f7ff fe89 	bl	8005b34 <malloc>
 8005e22:	1e02      	subs	r2, r0, #0
 8005e24:	61f0      	str	r0, [r6, #28]
 8005e26:	d104      	bne.n	8005e32 <_Balloc+0x22>
 8005e28:	216b      	movs	r1, #107	@ 0x6b
 8005e2a:	4b19      	ldr	r3, [pc, #100]	@ (8005e90 <_Balloc+0x80>)
 8005e2c:	4819      	ldr	r0, [pc, #100]	@ (8005e94 <_Balloc+0x84>)
 8005e2e:	f000 fc8b 	bl	8006748 <__assert_func>
 8005e32:	6045      	str	r5, [r0, #4]
 8005e34:	6085      	str	r5, [r0, #8]
 8005e36:	6005      	str	r5, [r0, #0]
 8005e38:	60c5      	str	r5, [r0, #12]
 8005e3a:	69f5      	ldr	r5, [r6, #28]
 8005e3c:	68eb      	ldr	r3, [r5, #12]
 8005e3e:	2b00      	cmp	r3, #0
 8005e40:	d013      	beq.n	8005e6a <_Balloc+0x5a>
 8005e42:	69f3      	ldr	r3, [r6, #28]
 8005e44:	00a2      	lsls	r2, r4, #2
 8005e46:	68db      	ldr	r3, [r3, #12]
 8005e48:	189b      	adds	r3, r3, r2
 8005e4a:	6818      	ldr	r0, [r3, #0]
 8005e4c:	2800      	cmp	r0, #0
 8005e4e:	d118      	bne.n	8005e82 <_Balloc+0x72>
 8005e50:	2101      	movs	r1, #1
 8005e52:	000d      	movs	r5, r1
 8005e54:	40a5      	lsls	r5, r4
 8005e56:	1d6a      	adds	r2, r5, #5
 8005e58:	0030      	movs	r0, r6
 8005e5a:	0092      	lsls	r2, r2, #2
 8005e5c:	f000 fc92 	bl	8006784 <_calloc_r>
 8005e60:	2800      	cmp	r0, #0
 8005e62:	d00c      	beq.n	8005e7e <_Balloc+0x6e>
 8005e64:	6044      	str	r4, [r0, #4]
 8005e66:	6085      	str	r5, [r0, #8]
 8005e68:	e00d      	b.n	8005e86 <_Balloc+0x76>
 8005e6a:	2221      	movs	r2, #33	@ 0x21
 8005e6c:	2104      	movs	r1, #4
 8005e6e:	0030      	movs	r0, r6
 8005e70:	f000 fc88 	bl	8006784 <_calloc_r>
 8005e74:	69f3      	ldr	r3, [r6, #28]
 8005e76:	60e8      	str	r0, [r5, #12]
 8005e78:	68db      	ldr	r3, [r3, #12]
 8005e7a:	2b00      	cmp	r3, #0
 8005e7c:	d1e1      	bne.n	8005e42 <_Balloc+0x32>
 8005e7e:	2000      	movs	r0, #0
 8005e80:	bd70      	pop	{r4, r5, r6, pc}
 8005e82:	6802      	ldr	r2, [r0, #0]
 8005e84:	601a      	str	r2, [r3, #0]
 8005e86:	2300      	movs	r3, #0
 8005e88:	6103      	str	r3, [r0, #16]
 8005e8a:	60c3      	str	r3, [r0, #12]
 8005e8c:	e7f8      	b.n	8005e80 <_Balloc+0x70>
 8005e8e:	46c0      	nop			@ (mov r8, r8)
 8005e90:	080073b0 	.word	0x080073b0
 8005e94:	08007441 	.word	0x08007441

08005e98 <_Bfree>:
 8005e98:	b570      	push	{r4, r5, r6, lr}
 8005e9a:	69c6      	ldr	r6, [r0, #28]
 8005e9c:	0005      	movs	r5, r0
 8005e9e:	000c      	movs	r4, r1
 8005ea0:	2e00      	cmp	r6, #0
 8005ea2:	d10e      	bne.n	8005ec2 <_Bfree+0x2a>
 8005ea4:	2010      	movs	r0, #16
 8005ea6:	f7ff fe45 	bl	8005b34 <malloc>
 8005eaa:	1e02      	subs	r2, r0, #0
 8005eac:	61e8      	str	r0, [r5, #28]
 8005eae:	d104      	bne.n	8005eba <_Bfree+0x22>
 8005eb0:	218f      	movs	r1, #143	@ 0x8f
 8005eb2:	4b09      	ldr	r3, [pc, #36]	@ (8005ed8 <_Bfree+0x40>)
 8005eb4:	4809      	ldr	r0, [pc, #36]	@ (8005edc <_Bfree+0x44>)
 8005eb6:	f000 fc47 	bl	8006748 <__assert_func>
 8005eba:	6046      	str	r6, [r0, #4]
 8005ebc:	6086      	str	r6, [r0, #8]
 8005ebe:	6006      	str	r6, [r0, #0]
 8005ec0:	60c6      	str	r6, [r0, #12]
 8005ec2:	2c00      	cmp	r4, #0
 8005ec4:	d007      	beq.n	8005ed6 <_Bfree+0x3e>
 8005ec6:	69eb      	ldr	r3, [r5, #28]
 8005ec8:	6862      	ldr	r2, [r4, #4]
 8005eca:	68db      	ldr	r3, [r3, #12]
 8005ecc:	0092      	lsls	r2, r2, #2
 8005ece:	189b      	adds	r3, r3, r2
 8005ed0:	681a      	ldr	r2, [r3, #0]
 8005ed2:	6022      	str	r2, [r4, #0]
 8005ed4:	601c      	str	r4, [r3, #0]
 8005ed6:	bd70      	pop	{r4, r5, r6, pc}
 8005ed8:	080073b0 	.word	0x080073b0
 8005edc:	08007441 	.word	0x08007441

08005ee0 <__multadd>:
 8005ee0:	b5f7      	push	{r0, r1, r2, r4, r5, r6, r7, lr}
 8005ee2:	000f      	movs	r7, r1
 8005ee4:	9001      	str	r0, [sp, #4]
 8005ee6:	000c      	movs	r4, r1
 8005ee8:	001e      	movs	r6, r3
 8005eea:	2000      	movs	r0, #0
 8005eec:	690d      	ldr	r5, [r1, #16]
 8005eee:	3714      	adds	r7, #20
 8005ef0:	683b      	ldr	r3, [r7, #0]
 8005ef2:	3001      	adds	r0, #1
 8005ef4:	b299      	uxth	r1, r3
 8005ef6:	4351      	muls	r1, r2
 8005ef8:	0c1b      	lsrs	r3, r3, #16
 8005efa:	4353      	muls	r3, r2
 8005efc:	1989      	adds	r1, r1, r6
 8005efe:	0c0e      	lsrs	r6, r1, #16
 8005f00:	199b      	adds	r3, r3, r6
 8005f02:	0c1e      	lsrs	r6, r3, #16
 8005f04:	b289      	uxth	r1, r1
 8005f06:	041b      	lsls	r3, r3, #16
 8005f08:	185b      	adds	r3, r3, r1
 8005f0a:	c708      	stmia	r7!, {r3}
 8005f0c:	4285      	cmp	r5, r0
 8005f0e:	dcef      	bgt.n	8005ef0 <__multadd+0x10>
 8005f10:	2e00      	cmp	r6, #0
 8005f12:	d022      	beq.n	8005f5a <__multadd+0x7a>
 8005f14:	68a3      	ldr	r3, [r4, #8]
 8005f16:	42ab      	cmp	r3, r5
 8005f18:	dc19      	bgt.n	8005f4e <__multadd+0x6e>
 8005f1a:	6861      	ldr	r1, [r4, #4]
 8005f1c:	9801      	ldr	r0, [sp, #4]
 8005f1e:	3101      	adds	r1, #1
 8005f20:	f7ff ff76 	bl	8005e10 <_Balloc>
 8005f24:	1e07      	subs	r7, r0, #0
 8005f26:	d105      	bne.n	8005f34 <__multadd+0x54>
 8005f28:	003a      	movs	r2, r7
 8005f2a:	21ba      	movs	r1, #186	@ 0xba
 8005f2c:	4b0c      	ldr	r3, [pc, #48]	@ (8005f60 <__multadd+0x80>)
 8005f2e:	480d      	ldr	r0, [pc, #52]	@ (8005f64 <__multadd+0x84>)
 8005f30:	f000 fc0a 	bl	8006748 <__assert_func>
 8005f34:	0021      	movs	r1, r4
 8005f36:	6922      	ldr	r2, [r4, #16]
 8005f38:	310c      	adds	r1, #12
 8005f3a:	3202      	adds	r2, #2
 8005f3c:	0092      	lsls	r2, r2, #2
 8005f3e:	300c      	adds	r0, #12
 8005f40:	f000 fbf8 	bl	8006734 <memcpy>
 8005f44:	0021      	movs	r1, r4
 8005f46:	9801      	ldr	r0, [sp, #4]
 8005f48:	f7ff ffa6 	bl	8005e98 <_Bfree>
 8005f4c:	003c      	movs	r4, r7
 8005f4e:	1d2b      	adds	r3, r5, #4
 8005f50:	009b      	lsls	r3, r3, #2
 8005f52:	18e3      	adds	r3, r4, r3
 8005f54:	3501      	adds	r5, #1
 8005f56:	605e      	str	r6, [r3, #4]
 8005f58:	6125      	str	r5, [r4, #16]
 8005f5a:	0020      	movs	r0, r4
 8005f5c:	bdfe      	pop	{r1, r2, r3, r4, r5, r6, r7, pc}
 8005f5e:	46c0      	nop			@ (mov r8, r8)
 8005f60:	0800741f 	.word	0x0800741f
 8005f64:	08007441 	.word	0x08007441

08005f68 <__hi0bits>:
 8005f68:	2280      	movs	r2, #128	@ 0x80
 8005f6a:	0003      	movs	r3, r0
 8005f6c:	0252      	lsls	r2, r2, #9
 8005f6e:	2000      	movs	r0, #0
 8005f70:	4293      	cmp	r3, r2
 8005f72:	d201      	bcs.n	8005f78 <__hi0bits+0x10>
 8005f74:	041b      	lsls	r3, r3, #16
 8005f76:	3010      	adds	r0, #16
 8005f78:	2280      	movs	r2, #128	@ 0x80
 8005f7a:	0452      	lsls	r2, r2, #17
 8005f7c:	4293      	cmp	r3, r2
 8005f7e:	d201      	bcs.n	8005f84 <__hi0bits+0x1c>
 8005f80:	3008      	adds	r0, #8
 8005f82:	021b      	lsls	r3, r3, #8
 8005f84:	2280      	movs	r2, #128	@ 0x80
 8005f86:	0552      	lsls	r2, r2, #21
 8005f88:	4293      	cmp	r3, r2
 8005f8a:	d201      	bcs.n	8005f90 <__hi0bits+0x28>
 8005f8c:	3004      	adds	r0, #4
 8005f8e:	011b      	lsls	r3, r3, #4
 8005f90:	2280      	movs	r2, #128	@ 0x80
 8005f92:	05d2      	lsls	r2, r2, #23
 8005f94:	4293      	cmp	r3, r2
 8005f96:	d201      	bcs.n	8005f9c <__hi0bits+0x34>
 8005f98:	3002      	adds	r0, #2
 8005f9a:	009b      	lsls	r3, r3, #2
 8005f9c:	2b00      	cmp	r3, #0
 8005f9e:	db03      	blt.n	8005fa8 <__hi0bits+0x40>
 8005fa0:	3001      	adds	r0, #1
 8005fa2:	4213      	tst	r3, r2
 8005fa4:	d100      	bne.n	8005fa8 <__hi0bits+0x40>
 8005fa6:	2020      	movs	r0, #32
 8005fa8:	4770      	bx	lr

08005faa <__lo0bits>:
 8005faa:	6803      	ldr	r3, [r0, #0]
 8005fac:	0001      	movs	r1, r0
 8005fae:	2207      	movs	r2, #7
 8005fb0:	0018      	movs	r0, r3
 8005fb2:	4010      	ands	r0, r2
 8005fb4:	4213      	tst	r3, r2
 8005fb6:	d00d      	beq.n	8005fd4 <__lo0bits+0x2a>
 8005fb8:	3a06      	subs	r2, #6
 8005fba:	2000      	movs	r0, #0
 8005fbc:	4213      	tst	r3, r2
 8005fbe:	d105      	bne.n	8005fcc <__lo0bits+0x22>
 8005fc0:	3002      	adds	r0, #2
 8005fc2:	4203      	tst	r3, r0
 8005fc4:	d003      	beq.n	8005fce <__lo0bits+0x24>
 8005fc6:	40d3      	lsrs	r3, r2
 8005fc8:	0010      	movs	r0, r2
 8005fca:	600b      	str	r3, [r1, #0]
 8005fcc:	4770      	bx	lr
 8005fce:	089b      	lsrs	r3, r3, #2
 8005fd0:	600b      	str	r3, [r1, #0]
 8005fd2:	e7fb      	b.n	8005fcc <__lo0bits+0x22>
 8005fd4:	b29a      	uxth	r2, r3
 8005fd6:	2a00      	cmp	r2, #0
 8005fd8:	d101      	bne.n	8005fde <__lo0bits+0x34>
 8005fda:	2010      	movs	r0, #16
 8005fdc:	0c1b      	lsrs	r3, r3, #16
 8005fde:	b2da      	uxtb	r2, r3
 8005fe0:	2a00      	cmp	r2, #0
 8005fe2:	d101      	bne.n	8005fe8 <__lo0bits+0x3e>
 8005fe4:	3008      	adds	r0, #8
 8005fe6:	0a1b      	lsrs	r3, r3, #8
 8005fe8:	071a      	lsls	r2, r3, #28
 8005fea:	d101      	bne.n	8005ff0 <__lo0bits+0x46>
 8005fec:	3004      	adds	r0, #4
 8005fee:	091b      	lsrs	r3, r3, #4
 8005ff0:	079a      	lsls	r2, r3, #30
 8005ff2:	d101      	bne.n	8005ff8 <__lo0bits+0x4e>
 8005ff4:	3002      	adds	r0, #2
 8005ff6:	089b      	lsrs	r3, r3, #2
 8005ff8:	07da      	lsls	r2, r3, #31
 8005ffa:	d4e9      	bmi.n	8005fd0 <__lo0bits+0x26>
 8005ffc:	3001      	adds	r0, #1
 8005ffe:	085b      	lsrs	r3, r3, #1
 8006000:	d1e6      	bne.n	8005fd0 <__lo0bits+0x26>
 8006002:	2020      	movs	r0, #32
 8006004:	e7e2      	b.n	8005fcc <__lo0bits+0x22>
	...

08006008 <__i2b>:
 8006008:	b510      	push	{r4, lr}
 800600a:	000c      	movs	r4, r1
 800600c:	2101      	movs	r1, #1
 800600e:	f7ff feff 	bl	8005e10 <_Balloc>
 8006012:	2800      	cmp	r0, #0
 8006014:	d107      	bne.n	8006026 <__i2b+0x1e>
 8006016:	2146      	movs	r1, #70	@ 0x46
 8006018:	4c05      	ldr	r4, [pc, #20]	@ (8006030 <__i2b+0x28>)
 800601a:	0002      	movs	r2, r0
 800601c:	4b05      	ldr	r3, [pc, #20]	@ (8006034 <__i2b+0x2c>)
 800601e:	0020      	movs	r0, r4
 8006020:	31ff      	adds	r1, #255	@ 0xff
 8006022:	f000 fb91 	bl	8006748 <__assert_func>
 8006026:	2301      	movs	r3, #1
 8006028:	6144      	str	r4, [r0, #20]
 800602a:	6103      	str	r3, [r0, #16]
 800602c:	bd10      	pop	{r4, pc}
 800602e:	46c0      	nop			@ (mov r8, r8)
 8006030:	08007441 	.word	0x08007441
 8006034:	0800741f 	.word	0x0800741f

08006038 <__multiply>:
 8006038:	b5f0      	push	{r4, r5, r6, r7, lr}
 800603a:	0014      	movs	r4, r2
 800603c:	690a      	ldr	r2, [r1, #16]
 800603e:	6923      	ldr	r3, [r4, #16]
 8006040:	000d      	movs	r5, r1
 8006042:	b08b      	sub	sp, #44	@ 0x2c
 8006044:	429a      	cmp	r2, r3
 8006046:	db02      	blt.n	800604e <__multiply+0x16>
 8006048:	0023      	movs	r3, r4
 800604a:	000c      	movs	r4, r1
 800604c:	001d      	movs	r5, r3
 800604e:	6927      	ldr	r7, [r4, #16]
 8006050:	692e      	ldr	r6, [r5, #16]
 8006052:	6861      	ldr	r1, [r4, #4]
 8006054:	19bb      	adds	r3, r7, r6
 8006056:	9303      	str	r3, [sp, #12]
 8006058:	68a3      	ldr	r3, [r4, #8]
 800605a:	19ba      	adds	r2, r7, r6
 800605c:	4293      	cmp	r3, r2
 800605e:	da00      	bge.n	8006062 <__multiply+0x2a>
 8006060:	3101      	adds	r1, #1
 8006062:	f7ff fed5 	bl	8005e10 <_Balloc>
 8006066:	9002      	str	r0, [sp, #8]
 8006068:	2800      	cmp	r0, #0
 800606a:	d106      	bne.n	800607a <__multiply+0x42>
 800606c:	21b1      	movs	r1, #177	@ 0xb1
 800606e:	4b49      	ldr	r3, [pc, #292]	@ (8006194 <__multiply+0x15c>)
 8006070:	4849      	ldr	r0, [pc, #292]	@ (8006198 <__multiply+0x160>)
 8006072:	9a02      	ldr	r2, [sp, #8]
 8006074:	0049      	lsls	r1, r1, #1
 8006076:	f000 fb67 	bl	8006748 <__assert_func>
 800607a:	9b02      	ldr	r3, [sp, #8]
 800607c:	2200      	movs	r2, #0
 800607e:	3314      	adds	r3, #20
 8006080:	469c      	mov	ip, r3
 8006082:	19bb      	adds	r3, r7, r6
 8006084:	009b      	lsls	r3, r3, #2
 8006086:	4463      	add	r3, ip
 8006088:	9304      	str	r3, [sp, #16]
 800608a:	4663      	mov	r3, ip
 800608c:	9904      	ldr	r1, [sp, #16]
 800608e:	428b      	cmp	r3, r1
 8006090:	d32a      	bcc.n	80060e8 <__multiply+0xb0>
 8006092:	0023      	movs	r3, r4
 8006094:	00bf      	lsls	r7, r7, #2
 8006096:	3314      	adds	r3, #20
 8006098:	3514      	adds	r5, #20
 800609a:	9308      	str	r3, [sp, #32]
 800609c:	00b6      	lsls	r6, r6, #2
 800609e:	19db      	adds	r3, r3, r7
 80060a0:	9305      	str	r3, [sp, #20]
 80060a2:	19ab      	adds	r3, r5, r6
 80060a4:	9309      	str	r3, [sp, #36]	@ 0x24
 80060a6:	2304      	movs	r3, #4
 80060a8:	9306      	str	r3, [sp, #24]
 80060aa:	0023      	movs	r3, r4
 80060ac:	9a05      	ldr	r2, [sp, #20]
 80060ae:	3315      	adds	r3, #21
 80060b0:	9501      	str	r5, [sp, #4]
 80060b2:	429a      	cmp	r2, r3
 80060b4:	d305      	bcc.n	80060c2 <__multiply+0x8a>
 80060b6:	1b13      	subs	r3, r2, r4
 80060b8:	3b15      	subs	r3, #21
 80060ba:	089b      	lsrs	r3, r3, #2
 80060bc:	3301      	adds	r3, #1
 80060be:	009b      	lsls	r3, r3, #2
 80060c0:	9306      	str	r3, [sp, #24]
 80060c2:	9b01      	ldr	r3, [sp, #4]
 80060c4:	9a09      	ldr	r2, [sp, #36]	@ 0x24
 80060c6:	4293      	cmp	r3, r2
 80060c8:	d310      	bcc.n	80060ec <__multiply+0xb4>
 80060ca:	9b03      	ldr	r3, [sp, #12]
 80060cc:	2b00      	cmp	r3, #0
 80060ce:	dd05      	ble.n	80060dc <__multiply+0xa4>
 80060d0:	9b04      	ldr	r3, [sp, #16]
 80060d2:	3b04      	subs	r3, #4
 80060d4:	9304      	str	r3, [sp, #16]
 80060d6:	681b      	ldr	r3, [r3, #0]
 80060d8:	2b00      	cmp	r3, #0
 80060da:	d056      	beq.n	800618a <__multiply+0x152>
 80060dc:	9b02      	ldr	r3, [sp, #8]
 80060de:	9a03      	ldr	r2, [sp, #12]
 80060e0:	0018      	movs	r0, r3
 80060e2:	611a      	str	r2, [r3, #16]
 80060e4:	b00b      	add	sp, #44	@ 0x2c
 80060e6:	bdf0      	pop	{r4, r5, r6, r7, pc}
 80060e8:	c304      	stmia	r3!, {r2}
 80060ea:	e7cf      	b.n	800608c <__multiply+0x54>
 80060ec:	9b01      	ldr	r3, [sp, #4]
 80060ee:	6818      	ldr	r0, [r3, #0]
 80060f0:	b280      	uxth	r0, r0
 80060f2:	2800      	cmp	r0, #0
 80060f4:	d01e      	beq.n	8006134 <__multiply+0xfc>
 80060f6:	4667      	mov	r7, ip
 80060f8:	2500      	movs	r5, #0
 80060fa:	9e08      	ldr	r6, [sp, #32]
 80060fc:	ce02      	ldmia	r6!, {r1}
 80060fe:	683b      	ldr	r3, [r7, #0]
 8006100:	9307      	str	r3, [sp, #28]
 8006102:	b28b      	uxth	r3, r1
 8006104:	4343      	muls	r3, r0
 8006106:	001a      	movs	r2, r3
 8006108:	466b      	mov	r3, sp
 800610a:	0c09      	lsrs	r1, r1, #16
 800610c:	8b9b      	ldrh	r3, [r3, #28]
 800610e:	4341      	muls	r1, r0
 8006110:	18d3      	adds	r3, r2, r3
 8006112:	9a07      	ldr	r2, [sp, #28]
 8006114:	195b      	adds	r3, r3, r5
 8006116:	0c12      	lsrs	r2, r2, #16
 8006118:	1889      	adds	r1, r1, r2
 800611a:	0c1a      	lsrs	r2, r3, #16
 800611c:	188a      	adds	r2, r1, r2
 800611e:	b29b      	uxth	r3, r3
 8006120:	0c15      	lsrs	r5, r2, #16
 8006122:	0412      	lsls	r2, r2, #16
 8006124:	431a      	orrs	r2, r3
 8006126:	9b05      	ldr	r3, [sp, #20]
 8006128:	c704      	stmia	r7!, {r2}
 800612a:	42b3      	cmp	r3, r6
 800612c:	d8e6      	bhi.n	80060fc <__multiply+0xc4>
 800612e:	4663      	mov	r3, ip
 8006130:	9a06      	ldr	r2, [sp, #24]
 8006132:	509d      	str	r5, [r3, r2]
 8006134:	9b01      	ldr	r3, [sp, #4]
 8006136:	6818      	ldr	r0, [r3, #0]
 8006138:	0c00      	lsrs	r0, r0, #16
 800613a:	d020      	beq.n	800617e <__multiply+0x146>
 800613c:	4663      	mov	r3, ip
 800613e:	0025      	movs	r5, r4
 8006140:	4661      	mov	r1, ip
 8006142:	2700      	movs	r7, #0
 8006144:	681b      	ldr	r3, [r3, #0]
 8006146:	3514      	adds	r5, #20
 8006148:	682a      	ldr	r2, [r5, #0]
 800614a:	680e      	ldr	r6, [r1, #0]
 800614c:	b292      	uxth	r2, r2
 800614e:	4342      	muls	r2, r0
 8006150:	0c36      	lsrs	r6, r6, #16
 8006152:	1992      	adds	r2, r2, r6
 8006154:	19d2      	adds	r2, r2, r7
 8006156:	0416      	lsls	r6, r2, #16
 8006158:	b29b      	uxth	r3, r3
 800615a:	431e      	orrs	r6, r3
 800615c:	600e      	str	r6, [r1, #0]
 800615e:	cd40      	ldmia	r5!, {r6}
 8006160:	684b      	ldr	r3, [r1, #4]
 8006162:	0c36      	lsrs	r6, r6, #16
 8006164:	4346      	muls	r6, r0
 8006166:	b29b      	uxth	r3, r3
 8006168:	0c12      	lsrs	r2, r2, #16
 800616a:	18f3      	adds	r3, r6, r3
 800616c:	189b      	adds	r3, r3, r2
 800616e:	9a05      	ldr	r2, [sp, #20]
 8006170:	0c1f      	lsrs	r7, r3, #16
 8006172:	3104      	adds	r1, #4
 8006174:	42aa      	cmp	r2, r5
 8006176:	d8e7      	bhi.n	8006148 <__multiply+0x110>
 8006178:	4662      	mov	r2, ip
 800617a:	9906      	ldr	r1, [sp, #24]
 800617c:	5053      	str	r3, [r2, r1]
 800617e:	9b01      	ldr	r3, [sp, #4]
 8006180:	3304      	adds	r3, #4
 8006182:	9301      	str	r3, [sp, #4]
 8006184:	2304      	movs	r3, #4
 8006186:	449c      	add	ip, r3
 8006188:	e79b      	b.n	80060c2 <__multiply+0x8a>
 800618a:	9b03      	ldr	r3, [sp, #12]
 800618c:	3b01      	subs	r3, #1
 800618e:	9303      	str	r3, [sp, #12]
 8006190:	e79b      	b.n	80060ca <__multiply+0x92>
 8006192:	46c0      	nop			@ (mov r8, r8)
 8006194:	0800741f 	.word	0x0800741f
 8006198:	08007441 	.word	0x08007441

0800619c <__pow5mult>:
 800619c:	b5f7      	push	{r0, r1, r2, r4, r5, r6, r7, lr}
 800619e:	2303      	movs	r3, #3
 80061a0:	0015      	movs	r5, r2
 80061a2:	0007      	movs	r7, r0
 80061a4:	000e      	movs	r6, r1
 80061a6:	401a      	ands	r2, r3
 80061a8:	421d      	tst	r5, r3
 80061aa:	d008      	beq.n	80061be <__pow5mult+0x22>
 80061ac:	4925      	ldr	r1, [pc, #148]	@ (8006244 <__pow5mult+0xa8>)
 80061ae:	3a01      	subs	r2, #1
 80061b0:	0092      	lsls	r2, r2, #2
 80061b2:	5852      	ldr	r2, [r2, r1]
 80061b4:	2300      	movs	r3, #0
 80061b6:	0031      	movs	r1, r6
 80061b8:	f7ff fe92 	bl	8005ee0 <__multadd>
 80061bc:	0006      	movs	r6, r0
 80061be:	10ad      	asrs	r5, r5, #2
 80061c0:	d03d      	beq.n	800623e <__pow5mult+0xa2>
 80061c2:	69fc      	ldr	r4, [r7, #28]
 80061c4:	2c00      	cmp	r4, #0
 80061c6:	d10f      	bne.n	80061e8 <__pow5mult+0x4c>
 80061c8:	2010      	movs	r0, #16
 80061ca:	f7ff fcb3 	bl	8005b34 <malloc>
 80061ce:	1e02      	subs	r2, r0, #0
 80061d0:	61f8      	str	r0, [r7, #28]
 80061d2:	d105      	bne.n	80061e0 <__pow5mult+0x44>
 80061d4:	21b4      	movs	r1, #180	@ 0xb4
 80061d6:	4b1c      	ldr	r3, [pc, #112]	@ (8006248 <__pow5mult+0xac>)
 80061d8:	481c      	ldr	r0, [pc, #112]	@ (800624c <__pow5mult+0xb0>)
 80061da:	31ff      	adds	r1, #255	@ 0xff
 80061dc:	f000 fab4 	bl	8006748 <__assert_func>
 80061e0:	6044      	str	r4, [r0, #4]
 80061e2:	6084      	str	r4, [r0, #8]
 80061e4:	6004      	str	r4, [r0, #0]
 80061e6:	60c4      	str	r4, [r0, #12]
 80061e8:	69fb      	ldr	r3, [r7, #28]
 80061ea:	689c      	ldr	r4, [r3, #8]
 80061ec:	9301      	str	r3, [sp, #4]
 80061ee:	2c00      	cmp	r4, #0
 80061f0:	d108      	bne.n	8006204 <__pow5mult+0x68>
 80061f2:	0038      	movs	r0, r7
 80061f4:	4916      	ldr	r1, [pc, #88]	@ (8006250 <__pow5mult+0xb4>)
 80061f6:	f7ff ff07 	bl	8006008 <__i2b>
 80061fa:	9b01      	ldr	r3, [sp, #4]
 80061fc:	0004      	movs	r4, r0
 80061fe:	6098      	str	r0, [r3, #8]
 8006200:	2300      	movs	r3, #0
 8006202:	6003      	str	r3, [r0, #0]
 8006204:	2301      	movs	r3, #1
 8006206:	421d      	tst	r5, r3
 8006208:	d00a      	beq.n	8006220 <__pow5mult+0x84>
 800620a:	0031      	movs	r1, r6
 800620c:	0022      	movs	r2, r4
 800620e:	0038      	movs	r0, r7
 8006210:	f7ff ff12 	bl	8006038 <__multiply>
 8006214:	0031      	movs	r1, r6
 8006216:	9001      	str	r0, [sp, #4]
 8006218:	0038      	movs	r0, r7
 800621a:	f7ff fe3d 	bl	8005e98 <_Bfree>
 800621e:	9e01      	ldr	r6, [sp, #4]
 8006220:	106d      	asrs	r5, r5, #1
 8006222:	d00c      	beq.n	800623e <__pow5mult+0xa2>
 8006224:	6820      	ldr	r0, [r4, #0]
 8006226:	2800      	cmp	r0, #0
 8006228:	d107      	bne.n	800623a <__pow5mult+0x9e>
 800622a:	0022      	movs	r2, r4
 800622c:	0021      	movs	r1, r4
 800622e:	0038      	movs	r0, r7
 8006230:	f7ff ff02 	bl	8006038 <__multiply>
 8006234:	2300      	movs	r3, #0
 8006236:	6020      	str	r0, [r4, #0]
 8006238:	6003      	str	r3, [r0, #0]
 800623a:	0004      	movs	r4, r0
 800623c:	e7e2      	b.n	8006204 <__pow5mult+0x68>
 800623e:	0030      	movs	r0, r6
 8006240:	bdfe      	pop	{r1, r2, r3, r4, r5, r6, r7, pc}
 8006242:	46c0      	nop			@ (mov r8, r8)
 8006244:	0800749c 	.word	0x0800749c
 8006248:	080073b0 	.word	0x080073b0
 800624c:	08007441 	.word	0x08007441
 8006250:	00000271 	.word	0x00000271

08006254 <__lshift>:
 8006254:	b5f0      	push	{r4, r5, r6, r7, lr}
 8006256:	000c      	movs	r4, r1
 8006258:	0016      	movs	r6, r2
 800625a:	6923      	ldr	r3, [r4, #16]
 800625c:	1157      	asrs	r7, r2, #5
 800625e:	b085      	sub	sp, #20
 8006260:	18fb      	adds	r3, r7, r3
 8006262:	9301      	str	r3, [sp, #4]
 8006264:	3301      	adds	r3, #1
 8006266:	9300      	str	r3, [sp, #0]
 8006268:	6849      	ldr	r1, [r1, #4]
 800626a:	68a3      	ldr	r3, [r4, #8]
 800626c:	9002      	str	r0, [sp, #8]
 800626e:	9a00      	ldr	r2, [sp, #0]
 8006270:	4293      	cmp	r3, r2
 8006272:	db10      	blt.n	8006296 <__lshift+0x42>
 8006274:	9802      	ldr	r0, [sp, #8]
 8006276:	f7ff fdcb 	bl	8005e10 <_Balloc>
 800627a:	2300      	movs	r3, #0
 800627c:	0001      	movs	r1, r0
 800627e:	0005      	movs	r5, r0
 8006280:	001a      	movs	r2, r3
 8006282:	3114      	adds	r1, #20
 8006284:	4298      	cmp	r0, r3
 8006286:	d10c      	bne.n	80062a2 <__lshift+0x4e>
 8006288:	21ef      	movs	r1, #239	@ 0xef
 800628a:	002a      	movs	r2, r5
 800628c:	4b25      	ldr	r3, [pc, #148]	@ (8006324 <__lshift+0xd0>)
 800628e:	4826      	ldr	r0, [pc, #152]	@ (8006328 <__lshift+0xd4>)
 8006290:	0049      	lsls	r1, r1, #1
 8006292:	f000 fa59 	bl	8006748 <__assert_func>
 8006296:	3101      	adds	r1, #1
 8006298:	005b      	lsls	r3, r3, #1
 800629a:	e7e8      	b.n	800626e <__lshift+0x1a>
 800629c:	0098      	lsls	r0, r3, #2
 800629e:	500a      	str	r2, [r1, r0]
 80062a0:	3301      	adds	r3, #1
 80062a2:	42bb      	cmp	r3, r7
 80062a4:	dbfa      	blt.n	800629c <__lshift+0x48>
 80062a6:	43fb      	mvns	r3, r7
 80062a8:	17db      	asrs	r3, r3, #31
 80062aa:	401f      	ands	r7, r3
 80062ac:	00bf      	lsls	r7, r7, #2
 80062ae:	0023      	movs	r3, r4
 80062b0:	201f      	movs	r0, #31
 80062b2:	19c9      	adds	r1, r1, r7
 80062b4:	0037      	movs	r7, r6
 80062b6:	6922      	ldr	r2, [r4, #16]
 80062b8:	3314      	adds	r3, #20
 80062ba:	0092      	lsls	r2, r2, #2
 80062bc:	189a      	adds	r2, r3, r2
 80062be:	4007      	ands	r7, r0
 80062c0:	4206      	tst	r6, r0
 80062c2:	d029      	beq.n	8006318 <__lshift+0xc4>
 80062c4:	3001      	adds	r0, #1
 80062c6:	1bc0      	subs	r0, r0, r7
 80062c8:	9003      	str	r0, [sp, #12]
 80062ca:	468c      	mov	ip, r1
 80062cc:	2000      	movs	r0, #0
 80062ce:	681e      	ldr	r6, [r3, #0]
 80062d0:	40be      	lsls	r6, r7
 80062d2:	4306      	orrs	r6, r0
 80062d4:	4660      	mov	r0, ip
 80062d6:	c040      	stmia	r0!, {r6}
 80062d8:	4684      	mov	ip, r0
 80062da:	9e03      	ldr	r6, [sp, #12]
 80062dc:	cb01      	ldmia	r3!, {r0}
 80062de:	40f0      	lsrs	r0, r6
 80062e0:	429a      	cmp	r2, r3
 80062e2:	d8f4      	bhi.n	80062ce <__lshift+0x7a>
 80062e4:	0026      	movs	r6, r4
 80062e6:	3615      	adds	r6, #21
 80062e8:	2304      	movs	r3, #4
 80062ea:	42b2      	cmp	r2, r6
 80062ec:	d304      	bcc.n	80062f8 <__lshift+0xa4>
 80062ee:	1b13      	subs	r3, r2, r4
 80062f0:	3b15      	subs	r3, #21
 80062f2:	089b      	lsrs	r3, r3, #2
 80062f4:	3301      	adds	r3, #1
 80062f6:	009b      	lsls	r3, r3, #2
 80062f8:	50c8      	str	r0, [r1, r3]
 80062fa:	2800      	cmp	r0, #0
 80062fc:	d002      	beq.n	8006304 <__lshift+0xb0>
 80062fe:	9b01      	ldr	r3, [sp, #4]
 8006300:	3302      	adds	r3, #2
 8006302:	9300      	str	r3, [sp, #0]
 8006304:	9b00      	ldr	r3, [sp, #0]
 8006306:	9802      	ldr	r0, [sp, #8]
 8006308:	3b01      	subs	r3, #1
 800630a:	0021      	movs	r1, r4
 800630c:	612b      	str	r3, [r5, #16]
 800630e:	f7ff fdc3 	bl	8005e98 <_Bfree>
 8006312:	0028      	movs	r0, r5
 8006314:	b005      	add	sp, #20
 8006316:	bdf0      	pop	{r4, r5, r6, r7, pc}
 8006318:	cb01      	ldmia	r3!, {r0}
 800631a:	c101      	stmia	r1!, {r0}
 800631c:	429a      	cmp	r2, r3
 800631e:	d8fb      	bhi.n	8006318 <__lshift+0xc4>
 8006320:	e7f0      	b.n	8006304 <__lshift+0xb0>
 8006322:	46c0      	nop			@ (mov r8, r8)
 8006324:	0800741f 	.word	0x0800741f
 8006328:	08007441 	.word	0x08007441

0800632c <__mcmp>:
 800632c:	b530      	push	{r4, r5, lr}
 800632e:	690b      	ldr	r3, [r1, #16]
 8006330:	6904      	ldr	r4, [r0, #16]
 8006332:	0002      	movs	r2, r0
 8006334:	1ae0      	subs	r0, r4, r3
 8006336:	429c      	cmp	r4, r3
 8006338:	d10f      	bne.n	800635a <__mcmp+0x2e>
 800633a:	3214      	adds	r2, #20
 800633c:	009b      	lsls	r3, r3, #2
 800633e:	3114      	adds	r1, #20
 8006340:	0014      	movs	r4, r2
 8006342:	18c9      	adds	r1, r1, r3
 8006344:	18d2      	adds	r2, r2, r3
 8006346:	3a04      	subs	r2, #4
 8006348:	3904      	subs	r1, #4
 800634a:	6815      	ldr	r5, [r2, #0]
 800634c:	680b      	ldr	r3, [r1, #0]
 800634e:	429d      	cmp	r5, r3
 8006350:	d004      	beq.n	800635c <__mcmp+0x30>
 8006352:	2001      	movs	r0, #1
 8006354:	429d      	cmp	r5, r3
 8006356:	d200      	bcs.n	800635a <__mcmp+0x2e>
 8006358:	3802      	subs	r0, #2
 800635a:	bd30      	pop	{r4, r5, pc}
 800635c:	4294      	cmp	r4, r2
 800635e:	d3f2      	bcc.n	8006346 <__mcmp+0x1a>
 8006360:	e7fb      	b.n	800635a <__mcmp+0x2e>
	...

08006364 <__mdiff>:
 8006364:	b5f0      	push	{r4, r5, r6, r7, lr}
 8006366:	000c      	movs	r4, r1
 8006368:	b087      	sub	sp, #28
 800636a:	9000      	str	r0, [sp, #0]
 800636c:	0011      	movs	r1, r2
 800636e:	0020      	movs	r0, r4
 8006370:	0017      	movs	r7, r2
 8006372:	f7ff ffdb 	bl	800632c <__mcmp>
 8006376:	1e05      	subs	r5, r0, #0
 8006378:	d110      	bne.n	800639c <__mdiff+0x38>
 800637a:	0001      	movs	r1, r0
 800637c:	9800      	ldr	r0, [sp, #0]
 800637e:	f7ff fd47 	bl	8005e10 <_Balloc>
 8006382:	1e02      	subs	r2, r0, #0
 8006384:	d104      	bne.n	8006390 <__mdiff+0x2c>
 8006386:	4b40      	ldr	r3, [pc, #256]	@ (8006488 <__mdiff+0x124>)
 8006388:	4840      	ldr	r0, [pc, #256]	@ (800648c <__mdiff+0x128>)
 800638a:	4941      	ldr	r1, [pc, #260]	@ (8006490 <__mdiff+0x12c>)
 800638c:	f000 f9dc 	bl	8006748 <__assert_func>
 8006390:	2301      	movs	r3, #1
 8006392:	6145      	str	r5, [r0, #20]
 8006394:	6103      	str	r3, [r0, #16]
 8006396:	0010      	movs	r0, r2
 8006398:	b007      	add	sp, #28
 800639a:	bdf0      	pop	{r4, r5, r6, r7, pc}
 800639c:	2600      	movs	r6, #0
 800639e:	42b0      	cmp	r0, r6
 80063a0:	da03      	bge.n	80063aa <__mdiff+0x46>
 80063a2:	0023      	movs	r3, r4
 80063a4:	003c      	movs	r4, r7
 80063a6:	001f      	movs	r7, r3
 80063a8:	3601      	adds	r6, #1
 80063aa:	6861      	ldr	r1, [r4, #4]
 80063ac:	9800      	ldr	r0, [sp, #0]
 80063ae:	f7ff fd2f 	bl	8005e10 <_Balloc>
 80063b2:	1e02      	subs	r2, r0, #0
 80063b4:	d103      	bne.n	80063be <__mdiff+0x5a>
 80063b6:	4b34      	ldr	r3, [pc, #208]	@ (8006488 <__mdiff+0x124>)
 80063b8:	4834      	ldr	r0, [pc, #208]	@ (800648c <__mdiff+0x128>)
 80063ba:	4936      	ldr	r1, [pc, #216]	@ (8006494 <__mdiff+0x130>)
 80063bc:	e7e6      	b.n	800638c <__mdiff+0x28>
 80063be:	6923      	ldr	r3, [r4, #16]
 80063c0:	3414      	adds	r4, #20
 80063c2:	9300      	str	r3, [sp, #0]
 80063c4:	009b      	lsls	r3, r3, #2
 80063c6:	18e3      	adds	r3, r4, r3
 80063c8:	0021      	movs	r1, r4
 80063ca:	9401      	str	r4, [sp, #4]
 80063cc:	003c      	movs	r4, r7
 80063ce:	9302      	str	r3, [sp, #8]
 80063d0:	693b      	ldr	r3, [r7, #16]
 80063d2:	3414      	adds	r4, #20
 80063d4:	009b      	lsls	r3, r3, #2
 80063d6:	18e3      	adds	r3, r4, r3
 80063d8:	9303      	str	r3, [sp, #12]
 80063da:	0003      	movs	r3, r0
 80063dc:	60c6      	str	r6, [r0, #12]
 80063de:	468c      	mov	ip, r1
 80063e0:	2000      	movs	r0, #0
 80063e2:	3314      	adds	r3, #20
 80063e4:	9304      	str	r3, [sp, #16]
 80063e6:	9305      	str	r3, [sp, #20]
 80063e8:	4663      	mov	r3, ip
 80063ea:	cb20      	ldmia	r3!, {r5}
 80063ec:	b2a9      	uxth	r1, r5
 80063ee:	000e      	movs	r6, r1
 80063f0:	469c      	mov	ip, r3
 80063f2:	cc08      	ldmia	r4!, {r3}
 80063f4:	0c2d      	lsrs	r5, r5, #16
 80063f6:	b299      	uxth	r1, r3
 80063f8:	1a71      	subs	r1, r6, r1
 80063fa:	1809      	adds	r1, r1, r0
 80063fc:	0c1b      	lsrs	r3, r3, #16
 80063fe:	1408      	asrs	r0, r1, #16
 8006400:	1aeb      	subs	r3, r5, r3
 8006402:	181b      	adds	r3, r3, r0
 8006404:	1418      	asrs	r0, r3, #16
 8006406:	b289      	uxth	r1, r1
 8006408:	041b      	lsls	r3, r3, #16
 800640a:	4319      	orrs	r1, r3
 800640c:	9b05      	ldr	r3, [sp, #20]
 800640e:	c302      	stmia	r3!, {r1}
 8006410:	9305      	str	r3, [sp, #20]
 8006412:	9b03      	ldr	r3, [sp, #12]
 8006414:	42a3      	cmp	r3, r4
 8006416:	d8e7      	bhi.n	80063e8 <__mdiff+0x84>
 8006418:	0039      	movs	r1, r7
 800641a:	9c03      	ldr	r4, [sp, #12]
 800641c:	3115      	adds	r1, #21
 800641e:	2304      	movs	r3, #4
 8006420:	428c      	cmp	r4, r1
 8006422:	d304      	bcc.n	800642e <__mdiff+0xca>
 8006424:	1be3      	subs	r3, r4, r7
 8006426:	3b15      	subs	r3, #21
 8006428:	089b      	lsrs	r3, r3, #2
 800642a:	3301      	adds	r3, #1
 800642c:	009b      	lsls	r3, r3, #2
 800642e:	9901      	ldr	r1, [sp, #4]
 8006430:	18cd      	adds	r5, r1, r3
 8006432:	9904      	ldr	r1, [sp, #16]
 8006434:	002e      	movs	r6, r5
 8006436:	18cb      	adds	r3, r1, r3
 8006438:	001f      	movs	r7, r3
 800643a:	9902      	ldr	r1, [sp, #8]
 800643c:	428e      	cmp	r6, r1
 800643e:	d311      	bcc.n	8006464 <__mdiff+0x100>
 8006440:	9c02      	ldr	r4, [sp, #8]
 8006442:	1ee9      	subs	r1, r5, #3
 8006444:	2000      	movs	r0, #0
 8006446:	428c      	cmp	r4, r1
 8006448:	d304      	bcc.n	8006454 <__mdiff+0xf0>
 800644a:	0021      	movs	r1, r4
 800644c:	3103      	adds	r1, #3
 800644e:	1b49      	subs	r1, r1, r5
 8006450:	0889      	lsrs	r1, r1, #2
 8006452:	0088      	lsls	r0, r1, #2
 8006454:	181b      	adds	r3, r3, r0
 8006456:	3b04      	subs	r3, #4
 8006458:	6819      	ldr	r1, [r3, #0]
 800645a:	2900      	cmp	r1, #0
 800645c:	d010      	beq.n	8006480 <__mdiff+0x11c>
 800645e:	9b00      	ldr	r3, [sp, #0]
 8006460:	6113      	str	r3, [r2, #16]
 8006462:	e798      	b.n	8006396 <__mdiff+0x32>
 8006464:	4684      	mov	ip, r0
 8006466:	ce02      	ldmia	r6!, {r1}
 8006468:	b288      	uxth	r0, r1
 800646a:	4460      	add	r0, ip
 800646c:	1400      	asrs	r0, r0, #16
 800646e:	0c0c      	lsrs	r4, r1, #16
 8006470:	1904      	adds	r4, r0, r4
 8006472:	4461      	add	r1, ip
 8006474:	1420      	asrs	r0, r4, #16
 8006476:	b289      	uxth	r1, r1
 8006478:	0424      	lsls	r4, r4, #16
 800647a:	4321      	orrs	r1, r4
 800647c:	c702      	stmia	r7!, {r1}
 800647e:	e7dc      	b.n	800643a <__mdiff+0xd6>
 8006480:	9900      	ldr	r1, [sp, #0]
 8006482:	3901      	subs	r1, #1
 8006484:	9100      	str	r1, [sp, #0]
 8006486:	e7e6      	b.n	8006456 <__mdiff+0xf2>
 8006488:	0800741f 	.word	0x0800741f
 800648c:	08007441 	.word	0x08007441
 8006490:	00000237 	.word	0x00000237
 8006494:	00000245 	.word	0x00000245

08006498 <__d2b>:
 8006498:	b5f7      	push	{r0, r1, r2, r4, r5, r6, r7, lr}
 800649a:	2101      	movs	r1, #1
 800649c:	0016      	movs	r6, r2
 800649e:	001f      	movs	r7, r3
 80064a0:	f7ff fcb6 	bl	8005e10 <_Balloc>
 80064a4:	1e04      	subs	r4, r0, #0
 80064a6:	d105      	bne.n	80064b4 <__d2b+0x1c>
 80064a8:	0022      	movs	r2, r4
 80064aa:	4b25      	ldr	r3, [pc, #148]	@ (8006540 <__d2b+0xa8>)
 80064ac:	4825      	ldr	r0, [pc, #148]	@ (8006544 <__d2b+0xac>)
 80064ae:	4926      	ldr	r1, [pc, #152]	@ (8006548 <__d2b+0xb0>)
 80064b0:	f000 f94a 	bl	8006748 <__assert_func>
 80064b4:	033b      	lsls	r3, r7, #12
 80064b6:	007d      	lsls	r5, r7, #1
 80064b8:	0b1b      	lsrs	r3, r3, #12
 80064ba:	0d6d      	lsrs	r5, r5, #21
 80064bc:	d002      	beq.n	80064c4 <__d2b+0x2c>
 80064be:	2280      	movs	r2, #128	@ 0x80
 80064c0:	0352      	lsls	r2, r2, #13
 80064c2:	4313      	orrs	r3, r2
 80064c4:	9301      	str	r3, [sp, #4]
 80064c6:	2e00      	cmp	r6, #0
 80064c8:	d025      	beq.n	8006516 <__d2b+0x7e>
 80064ca:	4668      	mov	r0, sp
 80064cc:	9600      	str	r6, [sp, #0]
 80064ce:	f7ff fd6c 	bl	8005faa <__lo0bits>
 80064d2:	9b01      	ldr	r3, [sp, #4]
 80064d4:	9900      	ldr	r1, [sp, #0]
 80064d6:	2800      	cmp	r0, #0
 80064d8:	d01b      	beq.n	8006512 <__d2b+0x7a>
 80064da:	2220      	movs	r2, #32
 80064dc:	001e      	movs	r6, r3
 80064de:	1a12      	subs	r2, r2, r0
 80064e0:	4096      	lsls	r6, r2
 80064e2:	0032      	movs	r2, r6
 80064e4:	40c3      	lsrs	r3, r0
 80064e6:	430a      	orrs	r2, r1
 80064e8:	6162      	str	r2, [r4, #20]
 80064ea:	9301      	str	r3, [sp, #4]
 80064ec:	9e01      	ldr	r6, [sp, #4]
 80064ee:	61a6      	str	r6, [r4, #24]
 80064f0:	1e73      	subs	r3, r6, #1
 80064f2:	419e      	sbcs	r6, r3
 80064f4:	3601      	adds	r6, #1
 80064f6:	6126      	str	r6, [r4, #16]
 80064f8:	2d00      	cmp	r5, #0
 80064fa:	d014      	beq.n	8006526 <__d2b+0x8e>
 80064fc:	2635      	movs	r6, #53	@ 0x35
 80064fe:	4b13      	ldr	r3, [pc, #76]	@ (800654c <__d2b+0xb4>)
 8006500:	18ed      	adds	r5, r5, r3
 8006502:	9b08      	ldr	r3, [sp, #32]
 8006504:	182d      	adds	r5, r5, r0
 8006506:	601d      	str	r5, [r3, #0]
 8006508:	9b09      	ldr	r3, [sp, #36]	@ 0x24
 800650a:	1a36      	subs	r6, r6, r0
 800650c:	601e      	str	r6, [r3, #0]
 800650e:	0020      	movs	r0, r4
 8006510:	bdfe      	pop	{r1, r2, r3, r4, r5, r6, r7, pc}
 8006512:	6161      	str	r1, [r4, #20]
 8006514:	e7ea      	b.n	80064ec <__d2b+0x54>
 8006516:	a801      	add	r0, sp, #4
 8006518:	f7ff fd47 	bl	8005faa <__lo0bits>
 800651c:	9b01      	ldr	r3, [sp, #4]
 800651e:	2601      	movs	r6, #1
 8006520:	6163      	str	r3, [r4, #20]
 8006522:	3020      	adds	r0, #32
 8006524:	e7e7      	b.n	80064f6 <__d2b+0x5e>
 8006526:	4b0a      	ldr	r3, [pc, #40]	@ (8006550 <__d2b+0xb8>)
 8006528:	18c0      	adds	r0, r0, r3
 800652a:	9b08      	ldr	r3, [sp, #32]
 800652c:	6018      	str	r0, [r3, #0]
 800652e:	4b09      	ldr	r3, [pc, #36]	@ (8006554 <__d2b+0xbc>)
 8006530:	18f3      	adds	r3, r6, r3
 8006532:	009b      	lsls	r3, r3, #2
 8006534:	18e3      	adds	r3, r4, r3
 8006536:	6958      	ldr	r0, [r3, #20]
 8006538:	f7ff fd16 	bl	8005f68 <__hi0bits>
 800653c:	0176      	lsls	r6, r6, #5
 800653e:	e7e3      	b.n	8006508 <__d2b+0x70>
 8006540:	0800741f 	.word	0x0800741f
 8006544:	08007441 	.word	0x08007441
 8006548:	0000030f 	.word	0x0000030f
 800654c:	fffffbcd 	.word	0xfffffbcd
 8006550:	fffffbce 	.word	0xfffffbce
 8006554:	3fffffff 	.word	0x3fffffff

08006558 <__sread>:
 8006558:	b570      	push	{r4, r5, r6, lr}
 800655a:	000c      	movs	r4, r1
 800655c:	250e      	movs	r5, #14
 800655e:	5f49      	ldrsh	r1, [r1, r5]
 8006560:	f000 f8ae 	bl	80066c0 <_read_r>
 8006564:	2800      	cmp	r0, #0
 8006566:	db03      	blt.n	8006570 <__sread+0x18>
 8006568:	6d63      	ldr	r3, [r4, #84]	@ 0x54
 800656a:	181b      	adds	r3, r3, r0
 800656c:	6563      	str	r3, [r4, #84]	@ 0x54
 800656e:	bd70      	pop	{r4, r5, r6, pc}
 8006570:	89a3      	ldrh	r3, [r4, #12]
 8006572:	4a02      	ldr	r2, [pc, #8]	@ (800657c <__sread+0x24>)
 8006574:	4013      	ands	r3, r2
 8006576:	81a3      	strh	r3, [r4, #12]
 8006578:	e7f9      	b.n	800656e <__sread+0x16>
 800657a:	46c0      	nop			@ (mov r8, r8)
 800657c:	ffffefff 	.word	0xffffefff

08006580 <__swrite>:
 8006580:	b5f8      	push	{r3, r4, r5, r6, r7, lr}
 8006582:	001f      	movs	r7, r3
 8006584:	898b      	ldrh	r3, [r1, #12]
 8006586:	0005      	movs	r5, r0
 8006588:	000c      	movs	r4, r1
 800658a:	0016      	movs	r6, r2
 800658c:	05db      	lsls	r3, r3, #23
 800658e:	d505      	bpl.n	800659c <__swrite+0x1c>
 8006590:	230e      	movs	r3, #14
 8006592:	5ec9      	ldrsh	r1, [r1, r3]
 8006594:	2200      	movs	r2, #0
 8006596:	2302      	movs	r3, #2
 8006598:	f000 f87e 	bl	8006698 <_lseek_r>
 800659c:	89a3      	ldrh	r3, [r4, #12]
 800659e:	4a05      	ldr	r2, [pc, #20]	@ (80065b4 <__swrite+0x34>)
 80065a0:	0028      	movs	r0, r5
 80065a2:	4013      	ands	r3, r2
 80065a4:	81a3      	strh	r3, [r4, #12]
 80065a6:	0032      	movs	r2, r6
 80065a8:	230e      	movs	r3, #14
 80065aa:	5ee1      	ldrsh	r1, [r4, r3]
 80065ac:	003b      	movs	r3, r7
 80065ae:	f000 f8ad 	bl	800670c <_write_r>
 80065b2:	bdf8      	pop	{r3, r4, r5, r6, r7, pc}
 80065b4:	ffffefff 	.word	0xffffefff

080065b8 <__sseek>:
 80065b8:	b570      	push	{r4, r5, r6, lr}
 80065ba:	000c      	movs	r4, r1
 80065bc:	250e      	movs	r5, #14
 80065be:	5f49      	ldrsh	r1, [r1, r5]
 80065c0:	f000 f86a 	bl	8006698 <_lseek_r>
 80065c4:	89a3      	ldrh	r3, [r4, #12]
 80065c6:	1c42      	adds	r2, r0, #1
 80065c8:	d103      	bne.n	80065d2 <__sseek+0x1a>
 80065ca:	4a05      	ldr	r2, [pc, #20]	@ (80065e0 <__sseek+0x28>)
 80065cc:	4013      	ands	r3, r2
 80065ce:	81a3      	strh	r3, [r4, #12]
 80065d0:	bd70      	pop	{r4, r5, r6, pc}
 80065d2:	2280      	movs	r2, #128	@ 0x80
 80065d4:	0152      	lsls	r2, r2, #5
 80065d6:	4313      	orrs	r3, r2
 80065d8:	81a3      	strh	r3, [r4, #12]
 80065da:	6560      	str	r0, [r4, #84]	@ 0x54
 80065dc:	e7f8      	b.n	80065d0 <__sseek+0x18>
 80065de:	46c0      	nop			@ (mov r8, r8)
 80065e0:	ffffefff 	.word	0xffffefff

080065e4 <__sclose>:
 80065e4:	b510      	push	{r4, lr}
 80065e6:	230e      	movs	r3, #14
 80065e8:	5ec9      	ldrsh	r1, [r1, r3]
 80065ea:	f000 f843 	bl	8006674 <_close_r>
 80065ee:	bd10      	pop	{r4, pc}

080065f0 <_realloc_r>:
 80065f0:	b5f7      	push	{r0, r1, r2, r4, r5, r6, r7, lr}
 80065f2:	0006      	movs	r6, r0
 80065f4:	000c      	movs	r4, r1
 80065f6:	0015      	movs	r5, r2
 80065f8:	2900      	cmp	r1, #0
 80065fa:	d105      	bne.n	8006608 <_realloc_r+0x18>
 80065fc:	0011      	movs	r1, r2
 80065fe:	f7ff fac5 	bl	8005b8c <_malloc_r>
 8006602:	0004      	movs	r4, r0
 8006604:	0020      	movs	r0, r4
 8006606:	bdfe      	pop	{r1, r2, r3, r4, r5, r6, r7, pc}
 8006608:	2a00      	cmp	r2, #0
 800660a:	d103      	bne.n	8006614 <_realloc_r+0x24>
 800660c:	f000 f8e8 	bl	80067e0 <_free_r>
 8006610:	2400      	movs	r4, #0
 8006612:	e7f7      	b.n	8006604 <_realloc_r+0x14>
 8006614:	f000 f940 	bl	8006898 <_malloc_usable_size_r>
 8006618:	0007      	movs	r7, r0
 800661a:	4285      	cmp	r5, r0
 800661c:	d802      	bhi.n	8006624 <_realloc_r+0x34>
 800661e:	0843      	lsrs	r3, r0, #1
 8006620:	42ab      	cmp	r3, r5
 8006622:	d3ef      	bcc.n	8006604 <_realloc_r+0x14>
 8006624:	0029      	movs	r1, r5
 8006626:	0030      	movs	r0, r6
 8006628:	f7ff fab0 	bl	8005b8c <_malloc_r>
 800662c:	9001      	str	r0, [sp, #4]
 800662e:	2800      	cmp	r0, #0
 8006630:	d0ee      	beq.n	8006610 <_realloc_r+0x20>
 8006632:	002a      	movs	r2, r5
 8006634:	42bd      	cmp	r5, r7
 8006636:	d900      	bls.n	800663a <_realloc_r+0x4a>
 8006638:	003a      	movs	r2, r7
 800663a:	0021      	movs	r1, r4
 800663c:	9801      	ldr	r0, [sp, #4]
 800663e:	f000 f879 	bl	8006734 <memcpy>
 8006642:	0021      	movs	r1, r4
 8006644:	0030      	movs	r0, r6
 8006646:	f000 f8cb 	bl	80067e0 <_free_r>
 800664a:	9c01      	ldr	r4, [sp, #4]
 800664c:	e7da      	b.n	8006604 <_realloc_r+0x14>

0800664e <memmove>:
 800664e:	b510      	push	{r4, lr}
 8006650:	4288      	cmp	r0, r1
 8006652:	d806      	bhi.n	8006662 <memmove+0x14>
 8006654:	2300      	movs	r3, #0
 8006656:	429a      	cmp	r2, r3
 8006658:	d008      	beq.n	800666c <memmove+0x1e>
 800665a:	5ccc      	ldrb	r4, [r1, r3]
 800665c:	54c4      	strb	r4, [r0, r3]
 800665e:	3301      	adds	r3, #1
 8006660:	e7f9      	b.n	8006656 <memmove+0x8>
 8006662:	188b      	adds	r3, r1, r2
 8006664:	4298      	cmp	r0, r3
 8006666:	d2f5      	bcs.n	8006654 <memmove+0x6>
 8006668:	3a01      	subs	r2, #1
 800666a:	d200      	bcs.n	800666e <memmove+0x20>
 800666c:	bd10      	pop	{r4, pc}
 800666e:	5c8b      	ldrb	r3, [r1, r2]
 8006670:	5483      	strb	r3, [r0, r2]
 8006672:	e7f9      	b.n	8006668 <memmove+0x1a>

08006674 <_close_r>:
 8006674:	2300      	movs	r3, #0
 8006676:	b570      	push	{r4, r5, r6, lr}
 8006678:	4d06      	ldr	r5, [pc, #24]	@ (8006694 <_close_r+0x20>)
 800667a:	0004      	movs	r4, r0
 800667c:	0008      	movs	r0, r1
 800667e:	602b      	str	r3, [r5, #0]
 8006680:	f7fc fa82 	bl	8002b88 <_close>
 8006684:	1c43      	adds	r3, r0, #1
 8006686:	d103      	bne.n	8006690 <_close_r+0x1c>
 8006688:	682b      	ldr	r3, [r5, #0]
 800668a:	2b00      	cmp	r3, #0
 800668c:	d000      	beq.n	8006690 <_close_r+0x1c>
 800668e:	6023      	str	r3, [r4, #0]
 8006690:	bd70      	pop	{r4, r5, r6, pc}
 8006692:	46c0      	nop			@ (mov r8, r8)
 8006694:	20000514 	.word	0x20000514

08006698 <_lseek_r>:
 8006698:	b570      	push	{r4, r5, r6, lr}
 800669a:	0004      	movs	r4, r0
 800669c:	0008      	movs	r0, r1
 800669e:	0011      	movs	r1, r2
 80066a0:	001a      	movs	r2, r3
 80066a2:	2300      	movs	r3, #0
 80066a4:	4d05      	ldr	r5, [pc, #20]	@ (80066bc <_lseek_r+0x24>)
 80066a6:	602b      	str	r3, [r5, #0]
 80066a8:	f7fc fa78 	bl	8002b9c <_lseek>
 80066ac:	1c43      	adds	r3, r0, #1
 80066ae:	d103      	bne.n	80066b8 <_lseek_r+0x20>
 80066b0:	682b      	ldr	r3, [r5, #0]
 80066b2:	2b00      	cmp	r3, #0
 80066b4:	d000      	beq.n	80066b8 <_lseek_r+0x20>
 80066b6:	6023      	str	r3, [r4, #0]
 80066b8:	bd70      	pop	{r4, r5, r6, pc}
 80066ba:	46c0      	nop			@ (mov r8, r8)
 80066bc:	20000514 	.word	0x20000514

080066c0 <_read_r>:
 80066c0:	b570      	push	{r4, r5, r6, lr}
 80066c2:	0004      	movs	r4, r0
 80066c4:	0008      	movs	r0, r1
 80066c6:	0011      	movs	r1, r2
 80066c8:	001a      	movs	r2, r3
 80066ca:	2300      	movs	r3, #0
 80066cc:	4d05      	ldr	r5, [pc, #20]	@ (80066e4 <_read_r+0x24>)
 80066ce:	602b      	str	r3, [r5, #0]
 80066d0:	f7fc fa40 	bl	8002b54 <_read>
 80066d4:	1c43      	adds	r3, r0, #1
 80066d6:	d103      	bne.n	80066e0 <_read_r+0x20>
 80066d8:	682b      	ldr	r3, [r5, #0]
 80066da:	2b00      	cmp	r3, #0
 80066dc:	d000      	beq.n	80066e0 <_read_r+0x20>
 80066de:	6023      	str	r3, [r4, #0]
 80066e0:	bd70      	pop	{r4, r5, r6, pc}
 80066e2:	46c0      	nop			@ (mov r8, r8)
 80066e4:	20000514 	.word	0x20000514

080066e8 <_sbrk_r>:
 80066e8:	2300      	movs	r3, #0
 80066ea:	b570      	push	{r4, r5, r6, lr}
 80066ec:	4d06      	ldr	r5, [pc, #24]	@ (8006708 <_sbrk_r+0x20>)
 80066ee:	0004      	movs	r4, r0
 80066f0:	0008      	movs	r0, r1
 80066f2:	602b      	str	r3, [r5, #0]
 80066f4:	f7fc fa54 	bl	8002ba0 <_sbrk>
 80066f8:	1c43      	adds	r3, r0, #1
 80066fa:	d103      	bne.n	8006704 <_sbrk_r+0x1c>
 80066fc:	682b      	ldr	r3, [r5, #0]
 80066fe:	2b00      	cmp	r3, #0
 8006700:	d000      	beq.n	8006704 <_sbrk_r+0x1c>
 8006702:	6023      	str	r3, [r4, #0]
 8006704:	bd70      	pop	{r4, r5, r6, pc}
 8006706:	46c0      	nop			@ (mov r8, r8)
 8006708:	20000514 	.word	0x20000514

0800670c <_write_r>:
 800670c:	b570      	push	{r4, r5, r6, lr}
 800670e:	0004      	movs	r4, r0
 8006710:	0008      	movs	r0, r1
 8006712:	0011      	movs	r1, r2
 8006714:	001a      	movs	r2, r3
 8006716:	2300      	movs	r3, #0
 8006718:	4d05      	ldr	r5, [pc, #20]	@ (8006730 <_write_r+0x24>)
 800671a:	602b      	str	r3, [r5, #0]
 800671c:	f7fc fa27 	bl	8002b6e <_write>
 8006720:	1c43      	adds	r3, r0, #1
 8006722:	d103      	bne.n	800672c <_write_r+0x20>
 8006724:	682b      	ldr	r3, [r5, #0]
 8006726:	2b00      	cmp	r3, #0
 8006728:	d000      	beq.n	800672c <_write_r+0x20>
 800672a:	6023      	str	r3, [r4, #0]
 800672c:	bd70      	pop	{r4, r5, r6, pc}
 800672e:	46c0      	nop			@ (mov r8, r8)
 8006730:	20000514 	.word	0x20000514

08006734 <memcpy>:
 8006734:	2300      	movs	r3, #0
 8006736:	b510      	push	{r4, lr}
 8006738:	429a      	cmp	r2, r3
 800673a:	d100      	bne.n	800673e <memcpy+0xa>
 800673c:	bd10      	pop	{r4, pc}
 800673e:	5ccc      	ldrb	r4, [r1, r3]
 8006740:	54c4      	strb	r4, [r0, r3]
 8006742:	3301      	adds	r3, #1
 8006744:	e7f8      	b.n	8006738 <memcpy+0x4>
	...

08006748 <__assert_func>:
 8006748:	b57f      	push	{r0, r1, r2, r3, r4, r5, r6, lr}
 800674a:	0014      	movs	r4, r2
 800674c:	001a      	movs	r2, r3
 800674e:	4b09      	ldr	r3, [pc, #36]	@ (8006774 <__assert_func+0x2c>)
 8006750:	0005      	movs	r5, r0
 8006752:	681b      	ldr	r3, [r3, #0]
 8006754:	000e      	movs	r6, r1
 8006756:	68d8      	ldr	r0, [r3, #12]
 8006758:	4b07      	ldr	r3, [pc, #28]	@ (8006778 <__assert_func+0x30>)
 800675a:	2c00      	cmp	r4, #0
 800675c:	d101      	bne.n	8006762 <__assert_func+0x1a>
 800675e:	4b07      	ldr	r3, [pc, #28]	@ (800677c <__assert_func+0x34>)
 8006760:	001c      	movs	r4, r3
 8006762:	4907      	ldr	r1, [pc, #28]	@ (8006780 <__assert_func+0x38>)
 8006764:	9301      	str	r3, [sp, #4]
 8006766:	9402      	str	r4, [sp, #8]
 8006768:	002b      	movs	r3, r5
 800676a:	9600      	str	r6, [sp, #0]
 800676c:	f000 f89c 	bl	80068a8 <fiprintf>
 8006770:	f000 f8b7 	bl	80068e2 <abort>
 8006774:	20000018 	.word	0x20000018
 8006778:	080076a3 	.word	0x080076a3
 800677c:	08007333 	.word	0x08007333
 8006780:	080076b0 	.word	0x080076b0

08006784 <_calloc_r>:
 8006784:	b570      	push	{r4, r5, r6, lr}
 8006786:	0c0b      	lsrs	r3, r1, #16
 8006788:	0c15      	lsrs	r5, r2, #16
 800678a:	2b00      	cmp	r3, #0
 800678c:	d11e      	bne.n	80067cc <_calloc_r+0x48>
 800678e:	2d00      	cmp	r5, #0
 8006790:	d10c      	bne.n	80067ac <_calloc_r+0x28>
 8006792:	b289      	uxth	r1, r1
 8006794:	b294      	uxth	r4, r2
 8006796:	434c      	muls	r4, r1
 8006798:	0021      	movs	r1, r4
 800679a:	f7ff f9f7 	bl	8005b8c <_malloc_r>
 800679e:	1e05      	subs	r5, r0, #0
 80067a0:	d01a      	beq.n	80067d8 <_calloc_r+0x54>
 80067a2:	0022      	movs	r2, r4
 80067a4:	2100      	movs	r1, #0
 80067a6:	f7fe f9a1 	bl	8004aec <memset>
 80067aa:	e016      	b.n	80067da <_calloc_r+0x56>
 80067ac:	1c2b      	adds	r3, r5, #0
 80067ae:	1c0c      	adds	r4, r1, #0
 80067b0:	b289      	uxth	r1, r1
 80067b2:	b292      	uxth	r2, r2
 80067b4:	434a      	muls	r2, r1
 80067b6:	b29b      	uxth	r3, r3
 80067b8:	b2a1      	uxth	r1, r4
 80067ba:	4359      	muls	r1, r3
 80067bc:	0c14      	lsrs	r4, r2, #16
 80067be:	190c      	adds	r4, r1, r4
 80067c0:	0c23      	lsrs	r3, r4, #16
 80067c2:	d107      	bne.n	80067d4 <_calloc_r+0x50>
 80067c4:	0424      	lsls	r4, r4, #16
 80067c6:	b292      	uxth	r2, r2
 80067c8:	4314      	orrs	r4, r2
 80067ca:	e7e5      	b.n	8006798 <_calloc_r+0x14>
 80067cc:	2d00      	cmp	r5, #0
 80067ce:	d101      	bne.n	80067d4 <_calloc_r+0x50>
 80067d0:	1c14      	adds	r4, r2, #0
 80067d2:	e7ed      	b.n	80067b0 <_calloc_r+0x2c>
 80067d4:	230c      	movs	r3, #12
 80067d6:	6003      	str	r3, [r0, #0]
 80067d8:	2500      	movs	r5, #0
 80067da:	0028      	movs	r0, r5
 80067dc:	bd70      	pop	{r4, r5, r6, pc}
	...

080067e0 <_free_r>:
 80067e0:	b570      	push	{r4, r5, r6, lr}
 80067e2:	0005      	movs	r5, r0
 80067e4:	1e0c      	subs	r4, r1, #0
 80067e6:	d010      	beq.n	800680a <_free_r+0x2a>
 80067e8:	3c04      	subs	r4, #4
 80067ea:	6823      	ldr	r3, [r4, #0]
 80067ec:	2b00      	cmp	r3, #0
 80067ee:	da00      	bge.n	80067f2 <_free_r+0x12>
 80067f0:	18e4      	adds	r4, r4, r3
 80067f2:	0028      	movs	r0, r5
 80067f4:	f7ff fafc 	bl	8005df0 <__malloc_lock>
 80067f8:	4a1d      	ldr	r2, [pc, #116]	@ (8006870 <_free_r+0x90>)
 80067fa:	6813      	ldr	r3, [r2, #0]
 80067fc:	2b00      	cmp	r3, #0
 80067fe:	d105      	bne.n	800680c <_free_r+0x2c>
 8006800:	6063      	str	r3, [r4, #4]
 8006802:	6014      	str	r4, [r2, #0]
 8006804:	0028      	movs	r0, r5
 8006806:	f7ff fafb 	bl	8005e00 <__malloc_unlock>
 800680a:	bd70      	pop	{r4, r5, r6, pc}
 800680c:	42a3      	cmp	r3, r4
 800680e:	d908      	bls.n	8006822 <_free_r+0x42>
 8006810:	6820      	ldr	r0, [r4, #0]
 8006812:	1821      	adds	r1, r4, r0
 8006814:	428b      	cmp	r3, r1
 8006816:	d1f3      	bne.n	8006800 <_free_r+0x20>
 8006818:	6819      	ldr	r1, [r3, #0]
 800681a:	685b      	ldr	r3, [r3, #4]
 800681c:	1809      	adds	r1, r1, r0
 800681e:	6021      	str	r1, [r4, #0]
 8006820:	e7ee      	b.n	8006800 <_free_r+0x20>
 8006822:	001a      	movs	r2, r3
 8006824:	685b      	ldr	r3, [r3, #4]
 8006826:	2b00      	cmp	r3, #0
 8006828:	d001      	beq.n	800682e <_free_r+0x4e>
 800682a:	42a3      	cmp	r3, r4
 800682c:	d9f9      	bls.n	8006822 <_free_r+0x42>
 800682e:	6811      	ldr	r1, [r2, #0]
 8006830:	1850      	adds	r0, r2, r1
 8006832:	42a0      	cmp	r0, r4
 8006834:	d10b      	bne.n	800684e <_free_r+0x6e>
 8006836:	6820      	ldr	r0, [r4, #0]
 8006838:	1809      	adds	r1, r1, r0
 800683a:	1850      	adds	r0, r2, r1
 800683c:	6011      	str	r1, [r2, #0]
 800683e:	4283      	cmp	r3, r0
 8006840:	d1e0      	bne.n	8006804 <_free_r+0x24>
 8006842:	6818      	ldr	r0, [r3, #0]
 8006844:	685b      	ldr	r3, [r3, #4]
 8006846:	1841      	adds	r1, r0, r1
 8006848:	6011      	str	r1, [r2, #0]
 800684a:	6053      	str	r3, [r2, #4]
 800684c:	e7da      	b.n	8006804 <_free_r+0x24>
 800684e:	42a0      	cmp	r0, r4
 8006850:	d902      	bls.n	8006858 <_free_r+0x78>
 8006852:	230c      	movs	r3, #12
 8006854:	602b      	str	r3, [r5, #0]
 8006856:	e7d5      	b.n	8006804 <_free_r+0x24>
 8006858:	6820      	ldr	r0, [r4, #0]
 800685a:	1821      	adds	r1, r4, r0
 800685c:	428b      	cmp	r3, r1
 800685e:	d103      	bne.n	8006868 <_free_r+0x88>
 8006860:	6819      	ldr	r1, [r3, #0]
 8006862:	685b      	ldr	r3, [r3, #4]
 8006864:	1809      	adds	r1, r1, r0
 8006866:	6021      	str	r1, [r4, #0]
 8006868:	6063      	str	r3, [r4, #4]
 800686a:	6054      	str	r4, [r2, #4]
 800686c:	e7ca      	b.n	8006804 <_free_r+0x24>
 800686e:	46c0      	nop			@ (mov r8, r8)
 8006870:	20000510 	.word	0x20000510

08006874 <__ascii_mbtowc>:
 8006874:	b082      	sub	sp, #8
 8006876:	2900      	cmp	r1, #0
 8006878:	d100      	bne.n	800687c <__ascii_mbtowc+0x8>
 800687a:	a901      	add	r1, sp, #4
 800687c:	1e10      	subs	r0, r2, #0
 800687e:	d006      	beq.n	800688e <__ascii_mbtowc+0x1a>
 8006880:	2b00      	cmp	r3, #0
 8006882:	d006      	beq.n	8006892 <__ascii_mbtowc+0x1e>
 8006884:	7813      	ldrb	r3, [r2, #0]
 8006886:	600b      	str	r3, [r1, #0]
 8006888:	7810      	ldrb	r0, [r2, #0]
 800688a:	1e43      	subs	r3, r0, #1
 800688c:	4198      	sbcs	r0, r3
 800688e:	b002      	add	sp, #8
 8006890:	4770      	bx	lr
 8006892:	2002      	movs	r0, #2
 8006894:	4240      	negs	r0, r0
 8006896:	e7fa      	b.n	800688e <__ascii_mbtowc+0x1a>

08006898 <_malloc_usable_size_r>:
 8006898:	1f0b      	subs	r3, r1, #4
 800689a:	681b      	ldr	r3, [r3, #0]
 800689c:	1f18      	subs	r0, r3, #4
 800689e:	2b00      	cmp	r3, #0
 80068a0:	da01      	bge.n	80068a6 <_malloc_usable_size_r+0xe>
 80068a2:	580b      	ldr	r3, [r1, r0]
 80068a4:	18c0      	adds	r0, r0, r3
 80068a6:	4770      	bx	lr

080068a8 <fiprintf>:
 80068a8:	b40e      	push	{r1, r2, r3}
 80068aa:	b517      	push	{r0, r1, r2, r4, lr}
 80068ac:	4c05      	ldr	r4, [pc, #20]	@ (80068c4 <fiprintf+0x1c>)
 80068ae:	ab05      	add	r3, sp, #20
 80068b0:	cb04      	ldmia	r3!, {r2}
 80068b2:	0001      	movs	r1, r0
 80068b4:	6820      	ldr	r0, [r4, #0]
 80068b6:	9301      	str	r3, [sp, #4]
 80068b8:	f000 f842 	bl	8006940 <_vfiprintf_r>
 80068bc:	bc1e      	pop	{r1, r2, r3, r4}
 80068be:	bc08      	pop	{r3}
 80068c0:	b003      	add	sp, #12
 80068c2:	4718      	bx	r3
 80068c4:	20000018 	.word	0x20000018

080068c8 <__ascii_wctomb>:
 80068c8:	0003      	movs	r3, r0
 80068ca:	1e08      	subs	r0, r1, #0
 80068cc:	d005      	beq.n	80068da <__ascii_wctomb+0x12>
 80068ce:	2aff      	cmp	r2, #255	@ 0xff
 80068d0:	d904      	bls.n	80068dc <__ascii_wctomb+0x14>
 80068d2:	228a      	movs	r2, #138	@ 0x8a
 80068d4:	2001      	movs	r0, #1
 80068d6:	601a      	str	r2, [r3, #0]
 80068d8:	4240      	negs	r0, r0
 80068da:	4770      	bx	lr
 80068dc:	2001      	movs	r0, #1
 80068de:	700a      	strb	r2, [r1, #0]
 80068e0:	e7fb      	b.n	80068da <__ascii_wctomb+0x12>

080068e2 <abort>:
 80068e2:	2006      	movs	r0, #6
 80068e4:	b510      	push	{r4, lr}
 80068e6:	f000 faa1 	bl	8006e2c <raise>
 80068ea:	2001      	movs	r0, #1
 80068ec:	f7fc f92c 	bl	8002b48 <_exit>

080068f0 <__sfputc_r>:
 80068f0:	6893      	ldr	r3, [r2, #8]
 80068f2:	b510      	push	{r4, lr}
 80068f4:	3b01      	subs	r3, #1
 80068f6:	6093      	str	r3, [r2, #8]
 80068f8:	2b00      	cmp	r3, #0
 80068fa:	da04      	bge.n	8006906 <__sfputc_r+0x16>
 80068fc:	6994      	ldr	r4, [r2, #24]
 80068fe:	42a3      	cmp	r3, r4
 8006900:	db07      	blt.n	8006912 <__sfputc_r+0x22>
 8006902:	290a      	cmp	r1, #10
 8006904:	d005      	beq.n	8006912 <__sfputc_r+0x22>
 8006906:	6813      	ldr	r3, [r2, #0]
 8006908:	1c58      	adds	r0, r3, #1
 800690a:	6010      	str	r0, [r2, #0]
 800690c:	7019      	strb	r1, [r3, #0]
 800690e:	0008      	movs	r0, r1
 8006910:	bd10      	pop	{r4, pc}
 8006912:	f000 f931 	bl	8006b78 <__swbuf_r>
 8006916:	0001      	movs	r1, r0
 8006918:	e7f9      	b.n	800690e <__sfputc_r+0x1e>

0800691a <__sfputs_r>:
 800691a:	b5f8      	push	{r3, r4, r5, r6, r7, lr}
 800691c:	0006      	movs	r6, r0
 800691e:	000f      	movs	r7, r1
 8006920:	0014      	movs	r4, r2
 8006922:	18d5      	adds	r5, r2, r3
 8006924:	42ac      	cmp	r4, r5
 8006926:	d101      	bne.n	800692c <__sfputs_r+0x12>
 8006928:	2000      	movs	r0, #0
 800692a:	e007      	b.n	800693c <__sfputs_r+0x22>
 800692c:	7821      	ldrb	r1, [r4, #0]
 800692e:	003a      	movs	r2, r7
 8006930:	0030      	movs	r0, r6
 8006932:	f7ff ffdd 	bl	80068f0 <__sfputc_r>
 8006936:	3401      	adds	r4, #1
 8006938:	1c43      	adds	r3, r0, #1
 800693a:	d1f3      	bne.n	8006924 <__sfputs_r+0xa>
 800693c:	bdf8      	pop	{r3, r4, r5, r6, r7, pc}
	...

08006940 <_vfiprintf_r>:
 8006940:	b5f0      	push	{r4, r5, r6, r7, lr}
 8006942:	b0a1      	sub	sp, #132	@ 0x84
 8006944:	000f      	movs	r7, r1
 8006946:	0015      	movs	r5, r2
 8006948:	001e      	movs	r6, r3
 800694a:	9003      	str	r0, [sp, #12]
 800694c:	2800      	cmp	r0, #0
 800694e:	d004      	beq.n	800695a <_vfiprintf_r+0x1a>
 8006950:	6a03      	ldr	r3, [r0, #32]
 8006952:	2b00      	cmp	r3, #0
 8006954:	d101      	bne.n	800695a <_vfiprintf_r+0x1a>
 8006956:	f7fe f895 	bl	8004a84 <__sinit>
 800695a:	6e7b      	ldr	r3, [r7, #100]	@ 0x64
 800695c:	07db      	lsls	r3, r3, #31
 800695e:	d405      	bmi.n	800696c <_vfiprintf_r+0x2c>
 8006960:	89bb      	ldrh	r3, [r7, #12]
 8006962:	059b      	lsls	r3, r3, #22
 8006964:	d402      	bmi.n	800696c <_vfiprintf_r+0x2c>
 8006966:	6db8      	ldr	r0, [r7, #88]	@ 0x58
 8006968:	f7fe f8f7 	bl	8004b5a <__retarget_lock_acquire_recursive>
 800696c:	89bb      	ldrh	r3, [r7, #12]
 800696e:	071b      	lsls	r3, r3, #28
 8006970:	d502      	bpl.n	8006978 <_vfiprintf_r+0x38>
 8006972:	693b      	ldr	r3, [r7, #16]
 8006974:	2b00      	cmp	r3, #0
 8006976:	d113      	bne.n	80069a0 <_vfiprintf_r+0x60>
 8006978:	0039      	movs	r1, r7
 800697a:	9803      	ldr	r0, [sp, #12]
 800697c:	f000 f93e 	bl	8006bfc <__swsetup_r>
 8006980:	2800      	cmp	r0, #0
 8006982:	d00d      	beq.n	80069a0 <_vfiprintf_r+0x60>
 8006984:	6e7b      	ldr	r3, [r7, #100]	@ 0x64
 8006986:	07db      	lsls	r3, r3, #31
 8006988:	d503      	bpl.n	8006992 <_vfiprintf_r+0x52>
 800698a:	2001      	movs	r0, #1
 800698c:	4240      	negs	r0, r0
 800698e:	b021      	add	sp, #132	@ 0x84
 8006990:	bdf0      	pop	{r4, r5, r6, r7, pc}
 8006992:	89bb      	ldrh	r3, [r7, #12]
 8006994:	059b      	lsls	r3, r3, #22
 8006996:	d4f8      	bmi.n	800698a <_vfiprintf_r+0x4a>
 8006998:	6db8      	ldr	r0, [r7, #88]	@ 0x58
 800699a:	f7fe f8df 	bl	8004b5c <__retarget_lock_release_recursive>
 800699e:	e7f4      	b.n	800698a <_vfiprintf_r+0x4a>
 80069a0:	2300      	movs	r3, #0
 80069a2:	ac08      	add	r4, sp, #32
 80069a4:	6163      	str	r3, [r4, #20]
 80069a6:	3320      	adds	r3, #32
 80069a8:	7663      	strb	r3, [r4, #25]
 80069aa:	3310      	adds	r3, #16
 80069ac:	76a3      	strb	r3, [r4, #26]
 80069ae:	9607      	str	r6, [sp, #28]
 80069b0:	002e      	movs	r6, r5
 80069b2:	7833      	ldrb	r3, [r6, #0]
 80069b4:	2b00      	cmp	r3, #0
 80069b6:	d001      	beq.n	80069bc <_vfiprintf_r+0x7c>
 80069b8:	2b25      	cmp	r3, #37	@ 0x25
 80069ba:	d148      	bne.n	8006a4e <_vfiprintf_r+0x10e>
 80069bc:	1b73      	subs	r3, r6, r5
 80069be:	9305      	str	r3, [sp, #20]
 80069c0:	42ae      	cmp	r6, r5
 80069c2:	d00b      	beq.n	80069dc <_vfiprintf_r+0x9c>
 80069c4:	002a      	movs	r2, r5
 80069c6:	0039      	movs	r1, r7
 80069c8:	9803      	ldr	r0, [sp, #12]
 80069ca:	f7ff ffa6 	bl	800691a <__sfputs_r>
 80069ce:	3001      	adds	r0, #1
 80069d0:	d100      	bne.n	80069d4 <_vfiprintf_r+0x94>
 80069d2:	e0ae      	b.n	8006b32 <_vfiprintf_r+0x1f2>
 80069d4:	6963      	ldr	r3, [r4, #20]
 80069d6:	9a05      	ldr	r2, [sp, #20]
 80069d8:	189b      	adds	r3, r3, r2
 80069da:	6163      	str	r3, [r4, #20]
 80069dc:	7833      	ldrb	r3, [r6, #0]
 80069de:	2b00      	cmp	r3, #0
 80069e0:	d100      	bne.n	80069e4 <_vfiprintf_r+0xa4>
 80069e2:	e0a6      	b.n	8006b32 <_vfiprintf_r+0x1f2>
 80069e4:	2201      	movs	r2, #1
 80069e6:	2300      	movs	r3, #0
 80069e8:	4252      	negs	r2, r2
 80069ea:	6062      	str	r2, [r4, #4]
 80069ec:	a904      	add	r1, sp, #16
 80069ee:	3254      	adds	r2, #84	@ 0x54
 80069f0:	1852      	adds	r2, r2, r1
 80069f2:	1c75      	adds	r5, r6, #1
 80069f4:	6023      	str	r3, [r4, #0]
 80069f6:	60e3      	str	r3, [r4, #12]
 80069f8:	60a3      	str	r3, [r4, #8]
 80069fa:	7013      	strb	r3, [r2, #0]
 80069fc:	65a3      	str	r3, [r4, #88]	@ 0x58
 80069fe:	4b59      	ldr	r3, [pc, #356]	@ (8006b64 <_vfiprintf_r+0x224>)
 8006a00:	2205      	movs	r2, #5
 8006a02:	0018      	movs	r0, r3
 8006a04:	7829      	ldrb	r1, [r5, #0]
 8006a06:	9305      	str	r3, [sp, #20]
 8006a08:	f7fe f8a9 	bl	8004b5e <memchr>
 8006a0c:	1c6e      	adds	r6, r5, #1
 8006a0e:	2800      	cmp	r0, #0
 8006a10:	d11f      	bne.n	8006a52 <_vfiprintf_r+0x112>
 8006a12:	6822      	ldr	r2, [r4, #0]
 8006a14:	06d3      	lsls	r3, r2, #27
 8006a16:	d504      	bpl.n	8006a22 <_vfiprintf_r+0xe2>
 8006a18:	2353      	movs	r3, #83	@ 0x53
 8006a1a:	a904      	add	r1, sp, #16
 8006a1c:	185b      	adds	r3, r3, r1
 8006a1e:	2120      	movs	r1, #32
 8006a20:	7019      	strb	r1, [r3, #0]
 8006a22:	0713      	lsls	r3, r2, #28
 8006a24:	d504      	bpl.n	8006a30 <_vfiprintf_r+0xf0>
 8006a26:	2353      	movs	r3, #83	@ 0x53
 8006a28:	a904      	add	r1, sp, #16
 8006a2a:	185b      	adds	r3, r3, r1
 8006a2c:	212b      	movs	r1, #43	@ 0x2b
 8006a2e:	7019      	strb	r1, [r3, #0]
 8006a30:	782b      	ldrb	r3, [r5, #0]
 8006a32:	2b2a      	cmp	r3, #42	@ 0x2a
 8006a34:	d016      	beq.n	8006a64 <_vfiprintf_r+0x124>
 8006a36:	002e      	movs	r6, r5
 8006a38:	2100      	movs	r1, #0
 8006a3a:	200a      	movs	r0, #10
 8006a3c:	68e3      	ldr	r3, [r4, #12]
 8006a3e:	7832      	ldrb	r2, [r6, #0]
 8006a40:	1c75      	adds	r5, r6, #1
 8006a42:	3a30      	subs	r2, #48	@ 0x30
 8006a44:	2a09      	cmp	r2, #9
 8006a46:	d950      	bls.n	8006aea <_vfiprintf_r+0x1aa>
 8006a48:	2900      	cmp	r1, #0
 8006a4a:	d111      	bne.n	8006a70 <_vfiprintf_r+0x130>
 8006a4c:	e017      	b.n	8006a7e <_vfiprintf_r+0x13e>
 8006a4e:	3601      	adds	r6, #1
 8006a50:	e7af      	b.n	80069b2 <_vfiprintf_r+0x72>
 8006a52:	9b05      	ldr	r3, [sp, #20]
 8006a54:	6822      	ldr	r2, [r4, #0]
 8006a56:	1ac0      	subs	r0, r0, r3
 8006a58:	2301      	movs	r3, #1
 8006a5a:	4083      	lsls	r3, r0
 8006a5c:	4313      	orrs	r3, r2
 8006a5e:	0035      	movs	r5, r6
 8006a60:	6023      	str	r3, [r4, #0]
 8006a62:	e7cc      	b.n	80069fe <_vfiprintf_r+0xbe>
 8006a64:	9b07      	ldr	r3, [sp, #28]
 8006a66:	1d19      	adds	r1, r3, #4
 8006a68:	681b      	ldr	r3, [r3, #0]
 8006a6a:	9107      	str	r1, [sp, #28]
 8006a6c:	2b00      	cmp	r3, #0
 8006a6e:	db01      	blt.n	8006a74 <_vfiprintf_r+0x134>
 8006a70:	930b      	str	r3, [sp, #44]	@ 0x2c
 8006a72:	e004      	b.n	8006a7e <_vfiprintf_r+0x13e>
 8006a74:	425b      	negs	r3, r3
 8006a76:	60e3      	str	r3, [r4, #12]
 8006a78:	2302      	movs	r3, #2
 8006a7a:	4313      	orrs	r3, r2
 8006a7c:	6023      	str	r3, [r4, #0]
 8006a7e:	7833      	ldrb	r3, [r6, #0]
 8006a80:	2b2e      	cmp	r3, #46	@ 0x2e
 8006a82:	d10c      	bne.n	8006a9e <_vfiprintf_r+0x15e>
 8006a84:	7873      	ldrb	r3, [r6, #1]
 8006a86:	2b2a      	cmp	r3, #42	@ 0x2a
 8006a88:	d134      	bne.n	8006af4 <_vfiprintf_r+0x1b4>
 8006a8a:	9b07      	ldr	r3, [sp, #28]
 8006a8c:	3602      	adds	r6, #2
 8006a8e:	1d1a      	adds	r2, r3, #4
 8006a90:	681b      	ldr	r3, [r3, #0]
 8006a92:	9207      	str	r2, [sp, #28]
 8006a94:	2b00      	cmp	r3, #0
 8006a96:	da01      	bge.n	8006a9c <_vfiprintf_r+0x15c>
 8006a98:	2301      	movs	r3, #1
 8006a9a:	425b      	negs	r3, r3
 8006a9c:	9309      	str	r3, [sp, #36]	@ 0x24
 8006a9e:	4d32      	ldr	r5, [pc, #200]	@ (8006b68 <_vfiprintf_r+0x228>)
 8006aa0:	2203      	movs	r2, #3
 8006aa2:	0028      	movs	r0, r5
 8006aa4:	7831      	ldrb	r1, [r6, #0]
 8006aa6:	f7fe f85a 	bl	8004b5e <memchr>
 8006aaa:	2800      	cmp	r0, #0
 8006aac:	d006      	beq.n	8006abc <_vfiprintf_r+0x17c>
 8006aae:	2340      	movs	r3, #64	@ 0x40
 8006ab0:	1b40      	subs	r0, r0, r5
 8006ab2:	4083      	lsls	r3, r0
 8006ab4:	6822      	ldr	r2, [r4, #0]
 8006ab6:	3601      	adds	r6, #1
 8006ab8:	4313      	orrs	r3, r2
 8006aba:	6023      	str	r3, [r4, #0]
 8006abc:	7831      	ldrb	r1, [r6, #0]
 8006abe:	2206      	movs	r2, #6
 8006ac0:	482a      	ldr	r0, [pc, #168]	@ (8006b6c <_vfiprintf_r+0x22c>)
 8006ac2:	1c75      	adds	r5, r6, #1
 8006ac4:	7621      	strb	r1, [r4, #24]
 8006ac6:	f7fe f84a 	bl	8004b5e <memchr>
 8006aca:	2800      	cmp	r0, #0
 8006acc:	d040      	beq.n	8006b50 <_vfiprintf_r+0x210>
 8006ace:	4b28      	ldr	r3, [pc, #160]	@ (8006b70 <_vfiprintf_r+0x230>)
 8006ad0:	2b00      	cmp	r3, #0
 8006ad2:	d122      	bne.n	8006b1a <_vfiprintf_r+0x1da>
 8006ad4:	2207      	movs	r2, #7
 8006ad6:	9b07      	ldr	r3, [sp, #28]
 8006ad8:	3307      	adds	r3, #7
 8006ada:	4393      	bics	r3, r2
 8006adc:	3308      	adds	r3, #8
 8006ade:	9307      	str	r3, [sp, #28]
 8006ae0:	6963      	ldr	r3, [r4, #20]
 8006ae2:	9a04      	ldr	r2, [sp, #16]
 8006ae4:	189b      	adds	r3, r3, r2
 8006ae6:	6163      	str	r3, [r4, #20]
 8006ae8:	e762      	b.n	80069b0 <_vfiprintf_r+0x70>
 8006aea:	4343      	muls	r3, r0
 8006aec:	002e      	movs	r6, r5
 8006aee:	2101      	movs	r1, #1
 8006af0:	189b      	adds	r3, r3, r2
 8006af2:	e7a4      	b.n	8006a3e <_vfiprintf_r+0xfe>
 8006af4:	2300      	movs	r3, #0
 8006af6:	200a      	movs	r0, #10
 8006af8:	0019      	movs	r1, r3
 8006afa:	3601      	adds	r6, #1
 8006afc:	6063      	str	r3, [r4, #4]
 8006afe:	7832      	ldrb	r2, [r6, #0]
 8006b00:	1c75      	adds	r5, r6, #1
 8006b02:	3a30      	subs	r2, #48	@ 0x30
 8006b04:	2a09      	cmp	r2, #9
 8006b06:	d903      	bls.n	8006b10 <_vfiprintf_r+0x1d0>
 8006b08:	2b00      	cmp	r3, #0
 8006b0a:	d0c8      	beq.n	8006a9e <_vfiprintf_r+0x15e>
 8006b0c:	9109      	str	r1, [sp, #36]	@ 0x24
 8006b0e:	e7c6      	b.n	8006a9e <_vfiprintf_r+0x15e>
 8006b10:	4341      	muls	r1, r0
 8006b12:	002e      	movs	r6, r5
 8006b14:	2301      	movs	r3, #1
 8006b16:	1889      	adds	r1, r1, r2
 8006b18:	e7f1      	b.n	8006afe <_vfiprintf_r+0x1be>
 8006b1a:	aa07      	add	r2, sp, #28
 8006b1c:	9200      	str	r2, [sp, #0]
 8006b1e:	0021      	movs	r1, r4
 8006b20:	003a      	movs	r2, r7
 8006b22:	4b14      	ldr	r3, [pc, #80]	@ (8006b74 <_vfiprintf_r+0x234>)
 8006b24:	9803      	ldr	r0, [sp, #12]
 8006b26:	f7fd fb41 	bl	80041ac <_printf_float>
 8006b2a:	9004      	str	r0, [sp, #16]
 8006b2c:	9b04      	ldr	r3, [sp, #16]
 8006b2e:	3301      	adds	r3, #1
 8006b30:	d1d6      	bne.n	8006ae0 <_vfiprintf_r+0x1a0>
 8006b32:	6e7b      	ldr	r3, [r7, #100]	@ 0x64
 8006b34:	07db      	lsls	r3, r3, #31
 8006b36:	d405      	bmi.n	8006b44 <_vfiprintf_r+0x204>
 8006b38:	89bb      	ldrh	r3, [r7, #12]
 8006b3a:	059b      	lsls	r3, r3, #22
 8006b3c:	d402      	bmi.n	8006b44 <_vfiprintf_r+0x204>
 8006b3e:	6db8      	ldr	r0, [r7, #88]	@ 0x58
 8006b40:	f7fe f80c 	bl	8004b5c <__retarget_lock_release_recursive>
 8006b44:	89bb      	ldrh	r3, [r7, #12]
 8006b46:	065b      	lsls	r3, r3, #25
 8006b48:	d500      	bpl.n	8006b4c <_vfiprintf_r+0x20c>
 8006b4a:	e71e      	b.n	800698a <_vfiprintf_r+0x4a>
 8006b4c:	980d      	ldr	r0, [sp, #52]	@ 0x34
 8006b4e:	e71e      	b.n	800698e <_vfiprintf_r+0x4e>
 8006b50:	aa07      	add	r2, sp, #28
 8006b52:	9200      	str	r2, [sp, #0]
 8006b54:	0021      	movs	r1, r4
 8006b56:	003a      	movs	r2, r7
 8006b58:	4b06      	ldr	r3, [pc, #24]	@ (8006b74 <_vfiprintf_r+0x234>)
 8006b5a:	9803      	ldr	r0, [sp, #12]
 8006b5c:	f7fd fdd4 	bl	8004708 <_printf_i>
 8006b60:	e7e3      	b.n	8006b2a <_vfiprintf_r+0x1ea>
 8006b62:	46c0      	nop			@ (mov r8, r8)
 8006b64:	08007430 	.word	0x08007430
 8006b68:	08007436 	.word	0x08007436
 8006b6c:	0800743a 	.word	0x0800743a
 8006b70:	080041ad 	.word	0x080041ad
 8006b74:	0800691b 	.word	0x0800691b

08006b78 <__swbuf_r>:
 8006b78:	b5f8      	push	{r3, r4, r5, r6, r7, lr}
 8006b7a:	0006      	movs	r6, r0
 8006b7c:	000d      	movs	r5, r1
 8006b7e:	0014      	movs	r4, r2
 8006b80:	2800      	cmp	r0, #0
 8006b82:	d004      	beq.n	8006b8e <__swbuf_r+0x16>
 8006b84:	6a03      	ldr	r3, [r0, #32]
 8006b86:	2b00      	cmp	r3, #0
 8006b88:	d101      	bne.n	8006b8e <__swbuf_r+0x16>
 8006b8a:	f7fd ff7b 	bl	8004a84 <__sinit>
 8006b8e:	69a3      	ldr	r3, [r4, #24]
 8006b90:	60a3      	str	r3, [r4, #8]
 8006b92:	89a3      	ldrh	r3, [r4, #12]
 8006b94:	071b      	lsls	r3, r3, #28
 8006b96:	d502      	bpl.n	8006b9e <__swbuf_r+0x26>
 8006b98:	6923      	ldr	r3, [r4, #16]
 8006b9a:	2b00      	cmp	r3, #0
 8006b9c:	d109      	bne.n	8006bb2 <__swbuf_r+0x3a>
 8006b9e:	0021      	movs	r1, r4
 8006ba0:	0030      	movs	r0, r6
 8006ba2:	f000 f82b 	bl	8006bfc <__swsetup_r>
 8006ba6:	2800      	cmp	r0, #0
 8006ba8:	d003      	beq.n	8006bb2 <__swbuf_r+0x3a>
 8006baa:	2501      	movs	r5, #1
 8006bac:	426d      	negs	r5, r5
 8006bae:	0028      	movs	r0, r5
 8006bb0:	bdf8      	pop	{r3, r4, r5, r6, r7, pc}
 8006bb2:	6923      	ldr	r3, [r4, #16]
 8006bb4:	6820      	ldr	r0, [r4, #0]
 8006bb6:	b2ef      	uxtb	r7, r5
 8006bb8:	1ac0      	subs	r0, r0, r3
 8006bba:	6963      	ldr	r3, [r4, #20]
 8006bbc:	b2ed      	uxtb	r5, r5
 8006bbe:	4283      	cmp	r3, r0
 8006bc0:	dc05      	bgt.n	8006bce <__swbuf_r+0x56>
 8006bc2:	0021      	movs	r1, r4
 8006bc4:	0030      	movs	r0, r6
 8006bc6:	f7ff f8e7 	bl	8005d98 <_fflush_r>
 8006bca:	2800      	cmp	r0, #0
 8006bcc:	d1ed      	bne.n	8006baa <__swbuf_r+0x32>
 8006bce:	68a3      	ldr	r3, [r4, #8]
 8006bd0:	3001      	adds	r0, #1
 8006bd2:	3b01      	subs	r3, #1
 8006bd4:	60a3      	str	r3, [r4, #8]
 8006bd6:	6823      	ldr	r3, [r4, #0]
 8006bd8:	1c5a      	adds	r2, r3, #1
 8006bda:	6022      	str	r2, [r4, #0]
 8006bdc:	701f      	strb	r7, [r3, #0]
 8006bde:	6963      	ldr	r3, [r4, #20]
 8006be0:	4283      	cmp	r3, r0
 8006be2:	d004      	beq.n	8006bee <__swbuf_r+0x76>
 8006be4:	89a3      	ldrh	r3, [r4, #12]
 8006be6:	07db      	lsls	r3, r3, #31
 8006be8:	d5e1      	bpl.n	8006bae <__swbuf_r+0x36>
 8006bea:	2d0a      	cmp	r5, #10
 8006bec:	d1df      	bne.n	8006bae <__swbuf_r+0x36>
 8006bee:	0021      	movs	r1, r4
 8006bf0:	0030      	movs	r0, r6
 8006bf2:	f7ff f8d1 	bl	8005d98 <_fflush_r>
 8006bf6:	2800      	cmp	r0, #0
 8006bf8:	d0d9      	beq.n	8006bae <__swbuf_r+0x36>
 8006bfa:	e7d6      	b.n	8006baa <__swbuf_r+0x32>

08006bfc <__swsetup_r>:
 8006bfc:	4b2d      	ldr	r3, [pc, #180]	@ (8006cb4 <__swsetup_r+0xb8>)
 8006bfe:	b570      	push	{r4, r5, r6, lr}
 8006c00:	0005      	movs	r5, r0
 8006c02:	6818      	ldr	r0, [r3, #0]
 8006c04:	000c      	movs	r4, r1
 8006c06:	2800      	cmp	r0, #0
 8006c08:	d004      	beq.n	8006c14 <__swsetup_r+0x18>
 8006c0a:	6a03      	ldr	r3, [r0, #32]
 8006c0c:	2b00      	cmp	r3, #0
 8006c0e:	d101      	bne.n	8006c14 <__swsetup_r+0x18>
 8006c10:	f7fd ff38 	bl	8004a84 <__sinit>
 8006c14:	230c      	movs	r3, #12
 8006c16:	5ee2      	ldrsh	r2, [r4, r3]
 8006c18:	0713      	lsls	r3, r2, #28
 8006c1a:	d423      	bmi.n	8006c64 <__swsetup_r+0x68>
 8006c1c:	06d3      	lsls	r3, r2, #27
 8006c1e:	d407      	bmi.n	8006c30 <__swsetup_r+0x34>
 8006c20:	2309      	movs	r3, #9
 8006c22:	602b      	str	r3, [r5, #0]
 8006c24:	2340      	movs	r3, #64	@ 0x40
 8006c26:	2001      	movs	r0, #1
 8006c28:	4313      	orrs	r3, r2
 8006c2a:	81a3      	strh	r3, [r4, #12]
 8006c2c:	4240      	negs	r0, r0
 8006c2e:	e03a      	b.n	8006ca6 <__swsetup_r+0xaa>
 8006c30:	0752      	lsls	r2, r2, #29
 8006c32:	d513      	bpl.n	8006c5c <__swsetup_r+0x60>
 8006c34:	6b61      	ldr	r1, [r4, #52]	@ 0x34
 8006c36:	2900      	cmp	r1, #0
 8006c38:	d008      	beq.n	8006c4c <__swsetup_r+0x50>
 8006c3a:	0023      	movs	r3, r4
 8006c3c:	3344      	adds	r3, #68	@ 0x44
 8006c3e:	4299      	cmp	r1, r3
 8006c40:	d002      	beq.n	8006c48 <__swsetup_r+0x4c>
 8006c42:	0028      	movs	r0, r5
 8006c44:	f7ff fdcc 	bl	80067e0 <_free_r>
 8006c48:	2300      	movs	r3, #0
 8006c4a:	6363      	str	r3, [r4, #52]	@ 0x34
 8006c4c:	2224      	movs	r2, #36	@ 0x24
 8006c4e:	89a3      	ldrh	r3, [r4, #12]
 8006c50:	4393      	bics	r3, r2
 8006c52:	81a3      	strh	r3, [r4, #12]
 8006c54:	2300      	movs	r3, #0
 8006c56:	6063      	str	r3, [r4, #4]
 8006c58:	6923      	ldr	r3, [r4, #16]
 8006c5a:	6023      	str	r3, [r4, #0]
 8006c5c:	2308      	movs	r3, #8
 8006c5e:	89a2      	ldrh	r2, [r4, #12]
 8006c60:	4313      	orrs	r3, r2
 8006c62:	81a3      	strh	r3, [r4, #12]
 8006c64:	6923      	ldr	r3, [r4, #16]
 8006c66:	2b00      	cmp	r3, #0
 8006c68:	d10b      	bne.n	8006c82 <__swsetup_r+0x86>
 8006c6a:	21a0      	movs	r1, #160	@ 0xa0
 8006c6c:	2280      	movs	r2, #128	@ 0x80
 8006c6e:	89a3      	ldrh	r3, [r4, #12]
 8006c70:	0089      	lsls	r1, r1, #2
 8006c72:	0092      	lsls	r2, r2, #2
 8006c74:	400b      	ands	r3, r1
 8006c76:	4293      	cmp	r3, r2
 8006c78:	d003      	beq.n	8006c82 <__swsetup_r+0x86>
 8006c7a:	0021      	movs	r1, r4
 8006c7c:	0028      	movs	r0, r5
 8006c7e:	f000 f845 	bl	8006d0c <__smakebuf_r>
 8006c82:	230c      	movs	r3, #12
 8006c84:	5ee2      	ldrsh	r2, [r4, r3]
 8006c86:	2101      	movs	r1, #1
 8006c88:	0013      	movs	r3, r2
 8006c8a:	400b      	ands	r3, r1
 8006c8c:	420a      	tst	r2, r1
 8006c8e:	d00b      	beq.n	8006ca8 <__swsetup_r+0xac>
 8006c90:	2300      	movs	r3, #0
 8006c92:	60a3      	str	r3, [r4, #8]
 8006c94:	6963      	ldr	r3, [r4, #20]
 8006c96:	425b      	negs	r3, r3
 8006c98:	61a3      	str	r3, [r4, #24]
 8006c9a:	2000      	movs	r0, #0
 8006c9c:	6923      	ldr	r3, [r4, #16]
 8006c9e:	4283      	cmp	r3, r0
 8006ca0:	d101      	bne.n	8006ca6 <__swsetup_r+0xaa>
 8006ca2:	0613      	lsls	r3, r2, #24
 8006ca4:	d4be      	bmi.n	8006c24 <__swsetup_r+0x28>
 8006ca6:	bd70      	pop	{r4, r5, r6, pc}
 8006ca8:	0791      	lsls	r1, r2, #30
 8006caa:	d400      	bmi.n	8006cae <__swsetup_r+0xb2>
 8006cac:	6963      	ldr	r3, [r4, #20]
 8006cae:	60a3      	str	r3, [r4, #8]
 8006cb0:	e7f3      	b.n	8006c9a <__swsetup_r+0x9e>
 8006cb2:	46c0      	nop			@ (mov r8, r8)
 8006cb4:	20000018 	.word	0x20000018

08006cb8 <__swhatbuf_r>:
 8006cb8:	b570      	push	{r4, r5, r6, lr}
 8006cba:	000e      	movs	r6, r1
 8006cbc:	001d      	movs	r5, r3
 8006cbe:	230e      	movs	r3, #14
 8006cc0:	5ec9      	ldrsh	r1, [r1, r3]
 8006cc2:	0014      	movs	r4, r2
 8006cc4:	b096      	sub	sp, #88	@ 0x58
 8006cc6:	2900      	cmp	r1, #0
 8006cc8:	da0c      	bge.n	8006ce4 <__swhatbuf_r+0x2c>
 8006cca:	89b2      	ldrh	r2, [r6, #12]
 8006ccc:	2380      	movs	r3, #128	@ 0x80
 8006cce:	0011      	movs	r1, r2
 8006cd0:	4019      	ands	r1, r3
 8006cd2:	421a      	tst	r2, r3
 8006cd4:	d114      	bne.n	8006d00 <__swhatbuf_r+0x48>
 8006cd6:	2380      	movs	r3, #128	@ 0x80
 8006cd8:	00db      	lsls	r3, r3, #3
 8006cda:	2000      	movs	r0, #0
 8006cdc:	6029      	str	r1, [r5, #0]
 8006cde:	6023      	str	r3, [r4, #0]
 8006ce0:	b016      	add	sp, #88	@ 0x58
 8006ce2:	bd70      	pop	{r4, r5, r6, pc}
 8006ce4:	466a      	mov	r2, sp
 8006ce6:	f000 f853 	bl	8006d90 <_fstat_r>
 8006cea:	2800      	cmp	r0, #0
 8006cec:	dbed      	blt.n	8006cca <__swhatbuf_r+0x12>
 8006cee:	23f0      	movs	r3, #240	@ 0xf0
 8006cf0:	9901      	ldr	r1, [sp, #4]
 8006cf2:	021b      	lsls	r3, r3, #8
 8006cf4:	4019      	ands	r1, r3
 8006cf6:	4b04      	ldr	r3, [pc, #16]	@ (8006d08 <__swhatbuf_r+0x50>)
 8006cf8:	18c9      	adds	r1, r1, r3
 8006cfa:	424b      	negs	r3, r1
 8006cfc:	4159      	adcs	r1, r3
 8006cfe:	e7ea      	b.n	8006cd6 <__swhatbuf_r+0x1e>
 8006d00:	2100      	movs	r1, #0
 8006d02:	2340      	movs	r3, #64	@ 0x40
 8006d04:	e7e9      	b.n	8006cda <__swhatbuf_r+0x22>
 8006d06:	46c0      	nop			@ (mov r8, r8)
 8006d08:	ffffe000 	.word	0xffffe000

08006d0c <__smakebuf_r>:
 8006d0c:	b5f0      	push	{r4, r5, r6, r7, lr}
 8006d0e:	2602      	movs	r6, #2
 8006d10:	898b      	ldrh	r3, [r1, #12]
 8006d12:	0005      	movs	r5, r0
 8006d14:	000c      	movs	r4, r1
 8006d16:	b085      	sub	sp, #20
 8006d18:	4233      	tst	r3, r6
 8006d1a:	d007      	beq.n	8006d2c <__smakebuf_r+0x20>
 8006d1c:	0023      	movs	r3, r4
 8006d1e:	3347      	adds	r3, #71	@ 0x47
 8006d20:	6023      	str	r3, [r4, #0]
 8006d22:	6123      	str	r3, [r4, #16]
 8006d24:	2301      	movs	r3, #1
 8006d26:	6163      	str	r3, [r4, #20]
 8006d28:	b005      	add	sp, #20
 8006d2a:	bdf0      	pop	{r4, r5, r6, r7, pc}
 8006d2c:	ab03      	add	r3, sp, #12
 8006d2e:	aa02      	add	r2, sp, #8
 8006d30:	f7ff ffc2 	bl	8006cb8 <__swhatbuf_r>
 8006d34:	9f02      	ldr	r7, [sp, #8]
 8006d36:	9001      	str	r0, [sp, #4]
 8006d38:	0039      	movs	r1, r7
 8006d3a:	0028      	movs	r0, r5
 8006d3c:	f7fe ff26 	bl	8005b8c <_malloc_r>
 8006d40:	2800      	cmp	r0, #0
 8006d42:	d108      	bne.n	8006d56 <__smakebuf_r+0x4a>
 8006d44:	220c      	movs	r2, #12
 8006d46:	5ea3      	ldrsh	r3, [r4, r2]
 8006d48:	059a      	lsls	r2, r3, #22
 8006d4a:	d4ed      	bmi.n	8006d28 <__smakebuf_r+0x1c>
 8006d4c:	2203      	movs	r2, #3
 8006d4e:	4393      	bics	r3, r2
 8006d50:	431e      	orrs	r6, r3
 8006d52:	81a6      	strh	r6, [r4, #12]
 8006d54:	e7e2      	b.n	8006d1c <__smakebuf_r+0x10>
 8006d56:	2380      	movs	r3, #128	@ 0x80
 8006d58:	89a2      	ldrh	r2, [r4, #12]
 8006d5a:	6020      	str	r0, [r4, #0]
 8006d5c:	4313      	orrs	r3, r2
 8006d5e:	81a3      	strh	r3, [r4, #12]
 8006d60:	9b03      	ldr	r3, [sp, #12]
 8006d62:	6120      	str	r0, [r4, #16]
 8006d64:	6167      	str	r7, [r4, #20]
 8006d66:	2b00      	cmp	r3, #0
 8006d68:	d00c      	beq.n	8006d84 <__smakebuf_r+0x78>
 8006d6a:	0028      	movs	r0, r5
 8006d6c:	230e      	movs	r3, #14
 8006d6e:	5ee1      	ldrsh	r1, [r4, r3]
 8006d70:	f000 f820 	bl	8006db4 <_isatty_r>
 8006d74:	2800      	cmp	r0, #0
 8006d76:	d005      	beq.n	8006d84 <__smakebuf_r+0x78>
 8006d78:	2303      	movs	r3, #3
 8006d7a:	89a2      	ldrh	r2, [r4, #12]
 8006d7c:	439a      	bics	r2, r3
 8006d7e:	3b02      	subs	r3, #2
 8006d80:	4313      	orrs	r3, r2
 8006d82:	81a3      	strh	r3, [r4, #12]
 8006d84:	89a3      	ldrh	r3, [r4, #12]
 8006d86:	9a01      	ldr	r2, [sp, #4]
 8006d88:	4313      	orrs	r3, r2
 8006d8a:	81a3      	strh	r3, [r4, #12]
 8006d8c:	e7cc      	b.n	8006d28 <__smakebuf_r+0x1c>
	...

08006d90 <_fstat_r>:
 8006d90:	2300      	movs	r3, #0
 8006d92:	b570      	push	{r4, r5, r6, lr}
 8006d94:	4d06      	ldr	r5, [pc, #24]	@ (8006db0 <_fstat_r+0x20>)
 8006d96:	0004      	movs	r4, r0
 8006d98:	0008      	movs	r0, r1
 8006d9a:	0011      	movs	r1, r2
 8006d9c:	602b      	str	r3, [r5, #0]
 8006d9e:	f7fb fef6 	bl	8002b8e <_fstat>
 8006da2:	1c43      	adds	r3, r0, #1
 8006da4:	d103      	bne.n	8006dae <_fstat_r+0x1e>
 8006da6:	682b      	ldr	r3, [r5, #0]
 8006da8:	2b00      	cmp	r3, #0
 8006daa:	d000      	beq.n	8006dae <_fstat_r+0x1e>
 8006dac:	6023      	str	r3, [r4, #0]
 8006dae:	bd70      	pop	{r4, r5, r6, pc}
 8006db0:	20000514 	.word	0x20000514

08006db4 <_isatty_r>:
 8006db4:	2300      	movs	r3, #0
 8006db6:	b570      	push	{r4, r5, r6, lr}
 8006db8:	4d06      	ldr	r5, [pc, #24]	@ (8006dd4 <_isatty_r+0x20>)
 8006dba:	0004      	movs	r4, r0
 8006dbc:	0008      	movs	r0, r1
 8006dbe:	602b      	str	r3, [r5, #0]
 8006dc0:	f7fb feea 	bl	8002b98 <_isatty>
 8006dc4:	1c43      	adds	r3, r0, #1
 8006dc6:	d103      	bne.n	8006dd0 <_isatty_r+0x1c>
 8006dc8:	682b      	ldr	r3, [r5, #0]
 8006dca:	2b00      	cmp	r3, #0
 8006dcc:	d000      	beq.n	8006dd0 <_isatty_r+0x1c>
 8006dce:	6023      	str	r3, [r4, #0]
 8006dd0:	bd70      	pop	{r4, r5, r6, pc}
 8006dd2:	46c0      	nop			@ (mov r8, r8)
 8006dd4:	20000514 	.word	0x20000514

08006dd8 <_raise_r>:
 8006dd8:	b570      	push	{r4, r5, r6, lr}
 8006dda:	0004      	movs	r4, r0
 8006ddc:	000d      	movs	r5, r1
 8006dde:	291f      	cmp	r1, #31
 8006de0:	d904      	bls.n	8006dec <_raise_r+0x14>
 8006de2:	2316      	movs	r3, #22
 8006de4:	6003      	str	r3, [r0, #0]
 8006de6:	2001      	movs	r0, #1
 8006de8:	4240      	negs	r0, r0
 8006dea:	bd70      	pop	{r4, r5, r6, pc}
 8006dec:	6bc3      	ldr	r3, [r0, #60]	@ 0x3c
 8006dee:	2b00      	cmp	r3, #0
 8006df0:	d004      	beq.n	8006dfc <_raise_r+0x24>
 8006df2:	008a      	lsls	r2, r1, #2
 8006df4:	189b      	adds	r3, r3, r2
 8006df6:	681a      	ldr	r2, [r3, #0]
 8006df8:	2a00      	cmp	r2, #0
 8006dfa:	d108      	bne.n	8006e0e <_raise_r+0x36>
 8006dfc:	0020      	movs	r0, r4
 8006dfe:	f000 f831 	bl	8006e64 <_getpid_r>
 8006e02:	002a      	movs	r2, r5
 8006e04:	0001      	movs	r1, r0
 8006e06:	0020      	movs	r0, r4
 8006e08:	f000 f81a 	bl	8006e40 <_kill_r>
 8006e0c:	e7ed      	b.n	8006dea <_raise_r+0x12>
 8006e0e:	2a01      	cmp	r2, #1
 8006e10:	d009      	beq.n	8006e26 <_raise_r+0x4e>
 8006e12:	1c51      	adds	r1, r2, #1
 8006e14:	d103      	bne.n	8006e1e <_raise_r+0x46>
 8006e16:	2316      	movs	r3, #22
 8006e18:	6003      	str	r3, [r0, #0]
 8006e1a:	2001      	movs	r0, #1
 8006e1c:	e7e5      	b.n	8006dea <_raise_r+0x12>
 8006e1e:	2100      	movs	r1, #0
 8006e20:	0028      	movs	r0, r5
 8006e22:	6019      	str	r1, [r3, #0]
 8006e24:	4790      	blx	r2
 8006e26:	2000      	movs	r0, #0
 8006e28:	e7df      	b.n	8006dea <_raise_r+0x12>
	...

08006e2c <raise>:
 8006e2c:	b510      	push	{r4, lr}
 8006e2e:	4b03      	ldr	r3, [pc, #12]	@ (8006e3c <raise+0x10>)
 8006e30:	0001      	movs	r1, r0
 8006e32:	6818      	ldr	r0, [r3, #0]
 8006e34:	f7ff ffd0 	bl	8006dd8 <_raise_r>
 8006e38:	bd10      	pop	{r4, pc}
 8006e3a:	46c0      	nop			@ (mov r8, r8)
 8006e3c:	20000018 	.word	0x20000018

08006e40 <_kill_r>:
 8006e40:	2300      	movs	r3, #0
 8006e42:	b570      	push	{r4, r5, r6, lr}
 8006e44:	4d06      	ldr	r5, [pc, #24]	@ (8006e60 <_kill_r+0x20>)
 8006e46:	0004      	movs	r4, r0
 8006e48:	0008      	movs	r0, r1
 8006e4a:	0011      	movs	r1, r2
 8006e4c:	602b      	str	r3, [r5, #0]
 8006e4e:	f7fb fe73 	bl	8002b38 <_kill>
 8006e52:	1c43      	adds	r3, r0, #1
 8006e54:	d103      	bne.n	8006e5e <_kill_r+0x1e>
 8006e56:	682b      	ldr	r3, [r5, #0]
 8006e58:	2b00      	cmp	r3, #0
 8006e5a:	d000      	beq.n	8006e5e <_kill_r+0x1e>
 8006e5c:	6023      	str	r3, [r4, #0]
 8006e5e:	bd70      	pop	{r4, r5, r6, pc}
 8006e60:	20000514 	.word	0x20000514

08006e64 <_getpid_r>:
 8006e64:	b510      	push	{r4, lr}
 8006e66:	f7fb fe65 	bl	8002b34 <_getpid>
 8006e6a:	bd10      	pop	{r4, pc}

08006e6c <log>:
 8006e6c:	b5f8      	push	{r3, r4, r5, r6, r7, lr}
 8006e6e:	0004      	movs	r4, r0
 8006e70:	000d      	movs	r5, r1
 8006e72:	f000 f837 	bl	8006ee4 <__ieee754_log>
 8006e76:	0022      	movs	r2, r4
 8006e78:	0006      	movs	r6, r0
 8006e7a:	000f      	movs	r7, r1
 8006e7c:	002b      	movs	r3, r5
 8006e7e:	0020      	movs	r0, r4
 8006e80:	0029      	movs	r1, r5
 8006e82:	f7fb fa7f 	bl	8002384 <__aeabi_dcmpun>
 8006e86:	2800      	cmp	r0, #0
 8006e88:	d115      	bne.n	8006eb6 <log+0x4a>
 8006e8a:	2200      	movs	r2, #0
 8006e8c:	2300      	movs	r3, #0
 8006e8e:	0020      	movs	r0, r4
 8006e90:	0029      	movs	r1, r5
 8006e92:	f7f9 faf5 	bl	8000480 <__aeabi_dcmpgt>
 8006e96:	2800      	cmp	r0, #0
 8006e98:	d10d      	bne.n	8006eb6 <log+0x4a>
 8006e9a:	2200      	movs	r2, #0
 8006e9c:	2300      	movs	r3, #0
 8006e9e:	0020      	movs	r0, r4
 8006ea0:	0029      	movs	r1, r5
 8006ea2:	f7f9 fad3 	bl	800044c <__aeabi_dcmpeq>
 8006ea6:	2800      	cmp	r0, #0
 8006ea8:	d008      	beq.n	8006ebc <log+0x50>
 8006eaa:	f7fd fe2b 	bl	8004b04 <__errno>
 8006eae:	2322      	movs	r3, #34	@ 0x22
 8006eb0:	2600      	movs	r6, #0
 8006eb2:	4f07      	ldr	r7, [pc, #28]	@ (8006ed0 <log+0x64>)
 8006eb4:	6003      	str	r3, [r0, #0]
 8006eb6:	0030      	movs	r0, r6
 8006eb8:	0039      	movs	r1, r7
 8006eba:	bdf8      	pop	{r3, r4, r5, r6, r7, pc}
 8006ebc:	f7fd fe22 	bl	8004b04 <__errno>
 8006ec0:	2321      	movs	r3, #33	@ 0x21
 8006ec2:	6003      	str	r3, [r0, #0]
 8006ec4:	4803      	ldr	r0, [pc, #12]	@ (8006ed4 <log+0x68>)
 8006ec6:	f000 f807 	bl	8006ed8 <nan>
 8006eca:	0006      	movs	r6, r0
 8006ecc:	000f      	movs	r7, r1
 8006ece:	e7f2      	b.n	8006eb6 <log+0x4a>
 8006ed0:	fff00000 	.word	0xfff00000
 8006ed4:	08007333 	.word	0x08007333

08006ed8 <nan>:
 8006ed8:	2000      	movs	r0, #0
 8006eda:	4901      	ldr	r1, [pc, #4]	@ (8006ee0 <nan+0x8>)
 8006edc:	4770      	bx	lr
 8006ede:	46c0      	nop			@ (mov r8, r8)
 8006ee0:	7ff80000 	.word	0x7ff80000

08006ee4 <__ieee754_log>:
 8006ee4:	2380      	movs	r3, #128	@ 0x80
 8006ee6:	b5f0      	push	{r4, r5, r6, r7, lr}
 8006ee8:	035b      	lsls	r3, r3, #13
 8006eea:	000e      	movs	r6, r1
 8006eec:	b08d      	sub	sp, #52	@ 0x34
 8006eee:	4299      	cmp	r1, r3
 8006ef0:	da23      	bge.n	8006f3a <__ieee754_log+0x56>
 8006ef2:	004b      	lsls	r3, r1, #1
 8006ef4:	085b      	lsrs	r3, r3, #1
 8006ef6:	4303      	orrs	r3, r0
 8006ef8:	d107      	bne.n	8006f0a <__ieee754_log+0x26>
 8006efa:	2200      	movs	r2, #0
 8006efc:	2300      	movs	r3, #0
 8006efe:	2000      	movs	r0, #0
 8006f00:	49b4      	ldr	r1, [pc, #720]	@ (80071d4 <__ieee754_log+0x2f0>)
 8006f02:	f7f9 ff97 	bl	8000e34 <__aeabi_ddiv>
 8006f06:	b00d      	add	sp, #52	@ 0x34
 8006f08:	bdf0      	pop	{r4, r5, r6, r7, pc}
 8006f0a:	2900      	cmp	r1, #0
 8006f0c:	da06      	bge.n	8006f1c <__ieee754_log+0x38>
 8006f0e:	0002      	movs	r2, r0
 8006f10:	000b      	movs	r3, r1
 8006f12:	f7fa fe9b 	bl	8001c4c <__aeabi_dsub>
 8006f16:	2200      	movs	r2, #0
 8006f18:	2300      	movs	r3, #0
 8006f1a:	e7f2      	b.n	8006f02 <__ieee754_log+0x1e>
 8006f1c:	4bae      	ldr	r3, [pc, #696]	@ (80071d8 <__ieee754_log+0x2f4>)
 8006f1e:	2200      	movs	r2, #0
 8006f20:	f7fa fbcc 	bl	80016bc <__aeabi_dmul>
 8006f24:	2336      	movs	r3, #54	@ 0x36
 8006f26:	000e      	movs	r6, r1
 8006f28:	425b      	negs	r3, r3
 8006f2a:	4aac      	ldr	r2, [pc, #688]	@ (80071dc <__ieee754_log+0x2f8>)
 8006f2c:	4296      	cmp	r6, r2
 8006f2e:	dd06      	ble.n	8006f3e <__ieee754_log+0x5a>
 8006f30:	0002      	movs	r2, r0
 8006f32:	000b      	movs	r3, r1
 8006f34:	f7f9 fc1a 	bl	800076c <__aeabi_dadd>
 8006f38:	e7e5      	b.n	8006f06 <__ieee754_log+0x22>
 8006f3a:	2300      	movs	r3, #0
 8006f3c:	e7f5      	b.n	8006f2a <__ieee754_log+0x46>
 8006f3e:	4ca8      	ldr	r4, [pc, #672]	@ (80071e0 <__ieee754_log+0x2fc>)
 8006f40:	1532      	asrs	r2, r6, #20
 8006f42:	1912      	adds	r2, r2, r4
 8006f44:	0336      	lsls	r6, r6, #12
 8006f46:	4ca7      	ldr	r4, [pc, #668]	@ (80071e4 <__ieee754_log+0x300>)
 8006f48:	18d2      	adds	r2, r2, r3
 8006f4a:	0b33      	lsrs	r3, r6, #12
 8006f4c:	9302      	str	r3, [sp, #8]
 8006f4e:	191b      	adds	r3, r3, r4
 8006f50:	2480      	movs	r4, #128	@ 0x80
 8006f52:	0364      	lsls	r4, r4, #13
 8006f54:	4023      	ands	r3, r4
 8006f56:	4ca4      	ldr	r4, [pc, #656]	@ (80071e8 <__ieee754_log+0x304>)
 8006f58:	9d02      	ldr	r5, [sp, #8]
 8006f5a:	405c      	eors	r4, r3
 8006f5c:	151b      	asrs	r3, r3, #20
 8006f5e:	189b      	adds	r3, r3, r2
 8006f60:	4325      	orrs	r5, r4
 8006f62:	2200      	movs	r2, #0
 8006f64:	9300      	str	r3, [sp, #0]
 8006f66:	0029      	movs	r1, r5
 8006f68:	4b9f      	ldr	r3, [pc, #636]	@ (80071e8 <__ieee754_log+0x304>)
 8006f6a:	f7fa fe6f 	bl	8001c4c <__aeabi_dsub>
 8006f6e:	9b02      	ldr	r3, [sp, #8]
 8006f70:	0006      	movs	r6, r0
 8006f72:	3302      	adds	r3, #2
 8006f74:	031b      	lsls	r3, r3, #12
 8006f76:	000f      	movs	r7, r1
 8006f78:	2200      	movs	r2, #0
 8006f7a:	0b1b      	lsrs	r3, r3, #12
 8006f7c:	2b02      	cmp	r3, #2
 8006f7e:	dc64      	bgt.n	800704a <__ieee754_log+0x166>
 8006f80:	2300      	movs	r3, #0
 8006f82:	f7f9 fa63 	bl	800044c <__aeabi_dcmpeq>
 8006f86:	2800      	cmp	r0, #0
 8006f88:	d019      	beq.n	8006fbe <__ieee754_log+0xda>
 8006f8a:	9b00      	ldr	r3, [sp, #0]
 8006f8c:	2b00      	cmp	r3, #0
 8006f8e:	d100      	bne.n	8006f92 <__ieee754_log+0xae>
 8006f90:	e11c      	b.n	80071cc <__ieee754_log+0x2e8>
 8006f92:	0018      	movs	r0, r3
 8006f94:	f7fb fa54 	bl	8002440 <__aeabi_i2d>
 8006f98:	4a94      	ldr	r2, [pc, #592]	@ (80071ec <__ieee754_log+0x308>)
 8006f9a:	4b95      	ldr	r3, [pc, #596]	@ (80071f0 <__ieee754_log+0x30c>)
 8006f9c:	0004      	movs	r4, r0
 8006f9e:	000d      	movs	r5, r1
 8006fa0:	f7fa fb8c 	bl	80016bc <__aeabi_dmul>
 8006fa4:	4a93      	ldr	r2, [pc, #588]	@ (80071f4 <__ieee754_log+0x310>)
 8006fa6:	0006      	movs	r6, r0
 8006fa8:	000f      	movs	r7, r1
 8006faa:	4b93      	ldr	r3, [pc, #588]	@ (80071f8 <__ieee754_log+0x314>)
 8006fac:	0020      	movs	r0, r4
 8006fae:	0029      	movs	r1, r5
 8006fb0:	f7fa fb84 	bl	80016bc <__aeabi_dmul>
 8006fb4:	0002      	movs	r2, r0
 8006fb6:	000b      	movs	r3, r1
 8006fb8:	0030      	movs	r0, r6
 8006fba:	0039      	movs	r1, r7
 8006fbc:	e7ba      	b.n	8006f34 <__ieee754_log+0x50>
 8006fbe:	4a8f      	ldr	r2, [pc, #572]	@ (80071fc <__ieee754_log+0x318>)
 8006fc0:	4b8f      	ldr	r3, [pc, #572]	@ (8007200 <__ieee754_log+0x31c>)
 8006fc2:	0030      	movs	r0, r6
 8006fc4:	0039      	movs	r1, r7
 8006fc6:	f7fa fb79 	bl	80016bc <__aeabi_dmul>
 8006fca:	0002      	movs	r2, r0
 8006fcc:	000b      	movs	r3, r1
 8006fce:	2000      	movs	r0, #0
 8006fd0:	498c      	ldr	r1, [pc, #560]	@ (8007204 <__ieee754_log+0x320>)
 8006fd2:	f7fa fe3b 	bl	8001c4c <__aeabi_dsub>
 8006fd6:	0032      	movs	r2, r6
 8006fd8:	0004      	movs	r4, r0
 8006fda:	000d      	movs	r5, r1
 8006fdc:	003b      	movs	r3, r7
 8006fde:	0030      	movs	r0, r6
 8006fe0:	0039      	movs	r1, r7
 8006fe2:	f7fa fb6b 	bl	80016bc <__aeabi_dmul>
 8006fe6:	000b      	movs	r3, r1
 8006fe8:	0002      	movs	r2, r0
 8006fea:	0029      	movs	r1, r5
 8006fec:	0020      	movs	r0, r4
 8006fee:	f7fa fb65 	bl	80016bc <__aeabi_dmul>
 8006ff2:	9b00      	ldr	r3, [sp, #0]
 8006ff4:	9002      	str	r0, [sp, #8]
 8006ff6:	9103      	str	r1, [sp, #12]
 8006ff8:	2b00      	cmp	r3, #0
 8006ffa:	d106      	bne.n	800700a <__ieee754_log+0x126>
 8006ffc:	0002      	movs	r2, r0
 8006ffe:	000b      	movs	r3, r1
 8007000:	0030      	movs	r0, r6
 8007002:	0039      	movs	r1, r7
 8007004:	f7fa fe22 	bl	8001c4c <__aeabi_dsub>
 8007008:	e77d      	b.n	8006f06 <__ieee754_log+0x22>
 800700a:	9800      	ldr	r0, [sp, #0]
 800700c:	f7fb fa18 	bl	8002440 <__aeabi_i2d>
 8007010:	4a76      	ldr	r2, [pc, #472]	@ (80071ec <__ieee754_log+0x308>)
 8007012:	4b77      	ldr	r3, [pc, #476]	@ (80071f0 <__ieee754_log+0x30c>)
 8007014:	0004      	movs	r4, r0
 8007016:	000d      	movs	r5, r1
 8007018:	f7fa fb50 	bl	80016bc <__aeabi_dmul>
 800701c:	4a75      	ldr	r2, [pc, #468]	@ (80071f4 <__ieee754_log+0x310>)
 800701e:	9000      	str	r0, [sp, #0]
 8007020:	9101      	str	r1, [sp, #4]
 8007022:	4b75      	ldr	r3, [pc, #468]	@ (80071f8 <__ieee754_log+0x314>)
 8007024:	0020      	movs	r0, r4
 8007026:	0029      	movs	r1, r5
 8007028:	f7fa fb48 	bl	80016bc <__aeabi_dmul>
 800702c:	0002      	movs	r2, r0
 800702e:	000b      	movs	r3, r1
 8007030:	9802      	ldr	r0, [sp, #8]
 8007032:	9903      	ldr	r1, [sp, #12]
 8007034:	f7fa fe0a 	bl	8001c4c <__aeabi_dsub>
 8007038:	0032      	movs	r2, r6
 800703a:	003b      	movs	r3, r7
 800703c:	f7fa fe06 	bl	8001c4c <__aeabi_dsub>
 8007040:	0002      	movs	r2, r0
 8007042:	000b      	movs	r3, r1
 8007044:	9800      	ldr	r0, [sp, #0]
 8007046:	9901      	ldr	r1, [sp, #4]
 8007048:	e7dc      	b.n	8007004 <__ieee754_log+0x120>
 800704a:	2380      	movs	r3, #128	@ 0x80
 800704c:	05db      	lsls	r3, r3, #23
 800704e:	f7f9 fb8d 	bl	800076c <__aeabi_dadd>
 8007052:	0002      	movs	r2, r0
 8007054:	000b      	movs	r3, r1
 8007056:	0030      	movs	r0, r6
 8007058:	0039      	movs	r1, r7
 800705a:	f7f9 feeb 	bl	8000e34 <__aeabi_ddiv>
 800705e:	9004      	str	r0, [sp, #16]
 8007060:	9105      	str	r1, [sp, #20]
 8007062:	9800      	ldr	r0, [sp, #0]
 8007064:	f7fb f9ec 	bl	8002440 <__aeabi_i2d>
 8007068:	9a04      	ldr	r2, [sp, #16]
 800706a:	9b05      	ldr	r3, [sp, #20]
 800706c:	9006      	str	r0, [sp, #24]
 800706e:	9107      	str	r1, [sp, #28]
 8007070:	0010      	movs	r0, r2
 8007072:	0019      	movs	r1, r3
 8007074:	f7fa fb22 	bl	80016bc <__aeabi_dmul>
 8007078:	4a63      	ldr	r2, [pc, #396]	@ (8007208 <__ieee754_log+0x324>)
 800707a:	9b02      	ldr	r3, [sp, #8]
 800707c:	4694      	mov	ip, r2
 800707e:	4463      	add	r3, ip
 8007080:	0002      	movs	r2, r0
 8007082:	930b      	str	r3, [sp, #44]	@ 0x2c
 8007084:	000b      	movs	r3, r1
 8007086:	9008      	str	r0, [sp, #32]
 8007088:	9109      	str	r1, [sp, #36]	@ 0x24
 800708a:	f7fa fb17 	bl	80016bc <__aeabi_dmul>
 800708e:	0004      	movs	r4, r0
 8007090:	000d      	movs	r5, r1
 8007092:	4a5e      	ldr	r2, [pc, #376]	@ (800720c <__ieee754_log+0x328>)
 8007094:	4b5e      	ldr	r3, [pc, #376]	@ (8007210 <__ieee754_log+0x32c>)
 8007096:	f7fa fb11 	bl	80016bc <__aeabi_dmul>
 800709a:	4a5e      	ldr	r2, [pc, #376]	@ (8007214 <__ieee754_log+0x330>)
 800709c:	4b5e      	ldr	r3, [pc, #376]	@ (8007218 <__ieee754_log+0x334>)
 800709e:	f7f9 fb65 	bl	800076c <__aeabi_dadd>
 80070a2:	0022      	movs	r2, r4
 80070a4:	002b      	movs	r3, r5
 80070a6:	f7fa fb09 	bl	80016bc <__aeabi_dmul>
 80070aa:	4a5c      	ldr	r2, [pc, #368]	@ (800721c <__ieee754_log+0x338>)
 80070ac:	4b5c      	ldr	r3, [pc, #368]	@ (8007220 <__ieee754_log+0x33c>)
 80070ae:	f7f9 fb5d 	bl	800076c <__aeabi_dadd>
 80070b2:	0022      	movs	r2, r4
 80070b4:	002b      	movs	r3, r5
 80070b6:	f7fa fb01 	bl	80016bc <__aeabi_dmul>
 80070ba:	4a5a      	ldr	r2, [pc, #360]	@ (8007224 <__ieee754_log+0x340>)
 80070bc:	4b5a      	ldr	r3, [pc, #360]	@ (8007228 <__ieee754_log+0x344>)
 80070be:	f7f9 fb55 	bl	800076c <__aeabi_dadd>
 80070c2:	9a08      	ldr	r2, [sp, #32]
 80070c4:	9b09      	ldr	r3, [sp, #36]	@ 0x24
 80070c6:	f7fa faf9 	bl	80016bc <__aeabi_dmul>
 80070ca:	4a58      	ldr	r2, [pc, #352]	@ (800722c <__ieee754_log+0x348>)
 80070cc:	9008      	str	r0, [sp, #32]
 80070ce:	9109      	str	r1, [sp, #36]	@ 0x24
 80070d0:	4b57      	ldr	r3, [pc, #348]	@ (8007230 <__ieee754_log+0x34c>)
 80070d2:	0020      	movs	r0, r4
 80070d4:	0029      	movs	r1, r5
 80070d6:	f7fa faf1 	bl	80016bc <__aeabi_dmul>
 80070da:	4a56      	ldr	r2, [pc, #344]	@ (8007234 <__ieee754_log+0x350>)
 80070dc:	4b56      	ldr	r3, [pc, #344]	@ (8007238 <__ieee754_log+0x354>)
 80070de:	f7f9 fb45 	bl	800076c <__aeabi_dadd>
 80070e2:	0022      	movs	r2, r4
 80070e4:	002b      	movs	r3, r5
 80070e6:	f7fa fae9 	bl	80016bc <__aeabi_dmul>
 80070ea:	4a54      	ldr	r2, [pc, #336]	@ (800723c <__ieee754_log+0x358>)
 80070ec:	4b54      	ldr	r3, [pc, #336]	@ (8007240 <__ieee754_log+0x35c>)
 80070ee:	f7f9 fb3d 	bl	800076c <__aeabi_dadd>
 80070f2:	0022      	movs	r2, r4
 80070f4:	002b      	movs	r3, r5
 80070f6:	f7fa fae1 	bl	80016bc <__aeabi_dmul>
 80070fa:	0002      	movs	r2, r0
 80070fc:	000b      	movs	r3, r1
 80070fe:	9808      	ldr	r0, [sp, #32]
 8007100:	9909      	ldr	r1, [sp, #36]	@ 0x24
 8007102:	f7f9 fb33 	bl	800076c <__aeabi_dadd>
 8007106:	9a02      	ldr	r2, [sp, #8]
 8007108:	4b4e      	ldr	r3, [pc, #312]	@ (8007244 <__ieee754_log+0x360>)
 800710a:	0004      	movs	r4, r0
 800710c:	1a9b      	subs	r3, r3, r2
 800710e:	9a0b      	ldr	r2, [sp, #44]	@ 0x2c
 8007110:	000d      	movs	r5, r1
 8007112:	4313      	orrs	r3, r2
 8007114:	2b00      	cmp	r3, #0
 8007116:	dd34      	ble.n	8007182 <__ieee754_log+0x29e>
 8007118:	2200      	movs	r2, #0
 800711a:	4b3a      	ldr	r3, [pc, #232]	@ (8007204 <__ieee754_log+0x320>)
 800711c:	0030      	movs	r0, r6
 800711e:	0039      	movs	r1, r7
 8007120:	f7fa facc 	bl	80016bc <__aeabi_dmul>
 8007124:	0032      	movs	r2, r6
 8007126:	003b      	movs	r3, r7
 8007128:	f7fa fac8 	bl	80016bc <__aeabi_dmul>
 800712c:	0002      	movs	r2, r0
 800712e:	000b      	movs	r3, r1
 8007130:	9002      	str	r0, [sp, #8]
 8007132:	9103      	str	r1, [sp, #12]
 8007134:	0020      	movs	r0, r4
 8007136:	0029      	movs	r1, r5
 8007138:	f7f9 fb18 	bl	800076c <__aeabi_dadd>
 800713c:	9a04      	ldr	r2, [sp, #16]
 800713e:	9b05      	ldr	r3, [sp, #20]
 8007140:	f7fa fabc 	bl	80016bc <__aeabi_dmul>
 8007144:	9b00      	ldr	r3, [sp, #0]
 8007146:	0004      	movs	r4, r0
 8007148:	000d      	movs	r5, r1
 800714a:	2b00      	cmp	r3, #0
 800714c:	d106      	bne.n	800715c <__ieee754_log+0x278>
 800714e:	0002      	movs	r2, r0
 8007150:	000b      	movs	r3, r1
 8007152:	9802      	ldr	r0, [sp, #8]
 8007154:	9903      	ldr	r1, [sp, #12]
 8007156:	f7fa fd79 	bl	8001c4c <__aeabi_dsub>
 800715a:	e74f      	b.n	8006ffc <__ieee754_log+0x118>
 800715c:	4a23      	ldr	r2, [pc, #140]	@ (80071ec <__ieee754_log+0x308>)
 800715e:	4b24      	ldr	r3, [pc, #144]	@ (80071f0 <__ieee754_log+0x30c>)
 8007160:	9806      	ldr	r0, [sp, #24]
 8007162:	9907      	ldr	r1, [sp, #28]
 8007164:	f7fa faaa 	bl	80016bc <__aeabi_dmul>
 8007168:	4a22      	ldr	r2, [pc, #136]	@ (80071f4 <__ieee754_log+0x310>)
 800716a:	9000      	str	r0, [sp, #0]
 800716c:	9101      	str	r1, [sp, #4]
 800716e:	9806      	ldr	r0, [sp, #24]
 8007170:	9907      	ldr	r1, [sp, #28]
 8007172:	4b21      	ldr	r3, [pc, #132]	@ (80071f8 <__ieee754_log+0x314>)
 8007174:	f7fa faa2 	bl	80016bc <__aeabi_dmul>
 8007178:	0022      	movs	r2, r4
 800717a:	002b      	movs	r3, r5
 800717c:	f7f9 faf6 	bl	800076c <__aeabi_dadd>
 8007180:	e754      	b.n	800702c <__ieee754_log+0x148>
 8007182:	0002      	movs	r2, r0
 8007184:	000b      	movs	r3, r1
 8007186:	0030      	movs	r0, r6
 8007188:	0039      	movs	r1, r7
 800718a:	f7fa fd5f 	bl	8001c4c <__aeabi_dsub>
 800718e:	9a04      	ldr	r2, [sp, #16]
 8007190:	9b05      	ldr	r3, [sp, #20]
 8007192:	f7fa fa93 	bl	80016bc <__aeabi_dmul>
 8007196:	9b00      	ldr	r3, [sp, #0]
 8007198:	0004      	movs	r4, r0
 800719a:	000d      	movs	r5, r1
 800719c:	2b00      	cmp	r3, #0
 800719e:	d102      	bne.n	80071a6 <__ieee754_log+0x2c2>
 80071a0:	0002      	movs	r2, r0
 80071a2:	000b      	movs	r3, r1
 80071a4:	e72c      	b.n	8007000 <__ieee754_log+0x11c>
 80071a6:	4a11      	ldr	r2, [pc, #68]	@ (80071ec <__ieee754_log+0x308>)
 80071a8:	4b11      	ldr	r3, [pc, #68]	@ (80071f0 <__ieee754_log+0x30c>)
 80071aa:	9806      	ldr	r0, [sp, #24]
 80071ac:	9907      	ldr	r1, [sp, #28]
 80071ae:	f7fa fa85 	bl	80016bc <__aeabi_dmul>
 80071b2:	4a10      	ldr	r2, [pc, #64]	@ (80071f4 <__ieee754_log+0x310>)
 80071b4:	9000      	str	r0, [sp, #0]
 80071b6:	9101      	str	r1, [sp, #4]
 80071b8:	9806      	ldr	r0, [sp, #24]
 80071ba:	9907      	ldr	r1, [sp, #28]
 80071bc:	4b0e      	ldr	r3, [pc, #56]	@ (80071f8 <__ieee754_log+0x314>)
 80071be:	f7fa fa7d 	bl	80016bc <__aeabi_dmul>
 80071c2:	0002      	movs	r2, r0
 80071c4:	000b      	movs	r3, r1
 80071c6:	0020      	movs	r0, r4
 80071c8:	0029      	movs	r1, r5
 80071ca:	e733      	b.n	8007034 <__ieee754_log+0x150>
 80071cc:	2000      	movs	r0, #0
 80071ce:	2100      	movs	r1, #0
 80071d0:	e699      	b.n	8006f06 <__ieee754_log+0x22>
 80071d2:	46c0      	nop			@ (mov r8, r8)
 80071d4:	c3500000 	.word	0xc3500000
 80071d8:	43500000 	.word	0x43500000
 80071dc:	7fefffff 	.word	0x7fefffff
 80071e0:	fffffc01 	.word	0xfffffc01
 80071e4:	00095f64 	.word	0x00095f64
 80071e8:	3ff00000 	.word	0x3ff00000
 80071ec:	fee00000 	.word	0xfee00000
 80071f0:	3fe62e42 	.word	0x3fe62e42
 80071f4:	35793c76 	.word	0x35793c76
 80071f8:	3dea39ef 	.word	0x3dea39ef
 80071fc:	55555555 	.word	0x55555555
 8007200:	3fd55555 	.word	0x3fd55555
 8007204:	3fe00000 	.word	0x3fe00000
 8007208:	fff9eb86 	.word	0xfff9eb86
 800720c:	df3e5244 	.word	0xdf3e5244
 8007210:	3fc2f112 	.word	0x3fc2f112
 8007214:	96cb03de 	.word	0x96cb03de
 8007218:	3fc74664 	.word	0x3fc74664
 800721c:	94229359 	.word	0x94229359
 8007220:	3fd24924 	.word	0x3fd24924
 8007224:	55555593 	.word	0x55555593
 8007228:	3fe55555 	.word	0x3fe55555
 800722c:	d078c69f 	.word	0xd078c69f
 8007230:	3fc39a09 	.word	0x3fc39a09
 8007234:	1d8e78af 	.word	0x1d8e78af
 8007238:	3fcc71c5 	.word	0x3fcc71c5
 800723c:	9997fa04 	.word	0x9997fa04
 8007240:	3fd99999 	.word	0x3fd99999
 8007244:	0006b851 	.word	0x0006b851

08007248 <_init>:
 8007248:	b5f8      	push	{r3, r4, r5, r6, r7, lr}
 800724a:	46c0      	nop			@ (mov r8, r8)
 800724c:	bcf8      	pop	{r3, r4, r5, r6, r7}
 800724e:	bc08      	pop	{r3}
 8007250:	469e      	mov	lr, r3
 8007252:	4770      	bx	lr

08007254 <_fini>:
 8007254:	b5f8      	push	{r3, r4, r5, r6, r7, lr}
 8007256:	46c0      	nop			@ (mov r8, r8)
 8007258:	bcf8      	pop	{r3, r4, r5, r6, r7}
 800725a:	bc08      	pop	{r3}
 800725c:	469e      	mov	lr, r3
 800725e:	4770      	bx	lr
